Invoking: ARM v7 Print Size
arm-none-eabi-size streamWR.elf  |tee "streamWR.elf.size"
   text	   data	    bss	    dec	    hex	filename
  79840	   2580	 334648	 417068	  65d2c	streamWR.elf
Finished building: streamWR.elf.size




/home/ylxiao/ws_201/RISC/axi2stream/axi2stream.sdk/streamWR/Debug/streamWR.elf:     file format elf32-littlearm
/home/ylxiao/ws_201/RISC/axi2stream/axi2stream.sdk/streamWR/Debug/streamWR.elf
architecture: arm, flags 0x00000112:
EXEC_P, HAS_SYMS, D_PAGED
start address 0x00100000

Program Header:
0x70000001 off    0x00028000 vaddr 0x00118000 paddr 0x00118000 align 2**2
         filesz 0x000000e0 memsz 0x000000e0 flags r--
    LOAD off    0x00010000 vaddr 0x00100000 paddr 0x00100000 align 2**16
         filesz 0x000180e8 memsz 0x00069c20 flags rwx
private flags = 5000400: [Version5 EABI] [hard-float ABI]

Sections:
Idx Name          Size      VMA       LMA       File off  Algn
  0 .text         0000f1d4  00100000  00100000  00010000  2**6
                  CONTENTS, ALLOC, LOAD, READONLY, CODE
  1 .init         00000018  0010f1d4  0010f1d4  0001f1d4  2**2
                  CONTENTS, ALLOC, LOAD, READONLY, CODE
  2 .fini         00000018  0010f1ec  0010f1ec  0001f1ec  2**2
                  CONTENTS, ALLOC, LOAD, READONLY, CODE
  3 .rodata       000004f8  0010f208  0010f208  0001f208  2**3
                  CONTENTS, ALLOC, LOAD, READONLY, DATA
  4 .data         00000a0c  0010f700  0010f700  0001f700  2**3
                  CONTENTS, ALLOC, LOAD, DATA
  5 .eh_frame     00000004  0011010c  0011010c  0002010c  2**2
                  CONTENTS, ALLOC, LOAD, READONLY, DATA
  6 .mmu_tbl      00004000  00114000  00114000  00024000  2**0
                  CONTENTS, ALLOC, LOAD, READONLY, DATA
  7 .ARM.exidx    000000e0  00118000  00118000  00028000  2**2
                  CONTENTS, ALLOC, LOAD, READONLY, DATA
  8 .init_array   00000004  001180e0  001180e0  000280e0  2**2
                  CONTENTS, ALLOC, LOAD, DATA
  9 .fini_array   00000004  001180e4  001180e4  000280e4  2**2
                  CONTENTS, ALLOC, LOAD, DATA
 10 .ARM.attributes 00000033  001180e8  001180e8  000280e8  2**0
                  CONTENTS, READONLY
 11 .bss          00010330  001180e8  001180e8  000280e8  2**2
                  ALLOC
 12 .heap         00020008  00128418  00128418  000280e8  2**0
                  ALLOC
 13 .stack        00021800  00148420  00148420  000280e8  2**0
                  ALLOC
 14 .comment      00000031  00000000  00000000  0002811b  2**0
                  CONTENTS, READONLY
 15 .debug_info   00008f45  00000000  00000000  0002814c  2**0
                  CONTENTS, READONLY, DEBUGGING
 16 .debug_abbrev 00002042  00000000  00000000  00031091  2**0
                  CONTENTS, READONLY, DEBUGGING
 17 .debug_loc    000016cb  00000000  00000000  000330d3  2**0
                  CONTENTS, READONLY, DEBUGGING
 18 .debug_aranges 000002e8  00000000  00000000  000347a0  2**3
                  CONTENTS, READONLY, DEBUGGING
 19 .debug_ranges 00000498  00000000  00000000  00034a88  2**0
                  CONTENTS, READONLY, DEBUGGING
 20 .debug_macro  000033fc  00000000  00000000  00034f20  2**0
                  CONTENTS, READONLY, DEBUGGING
 21 .debug_line   000029e9  00000000  00000000  0003831c  2**0
                  CONTENTS, READONLY, DEBUGGING
 22 .debug_str    0000e947  00000000  00000000  0003ad05  2**0
                  CONTENTS, READONLY, DEBUGGING
 23 .debug_frame  000006ac  00000000  00000000  0004964c  2**2
                  CONTENTS, READONLY, DEBUGGING
SYMBOL TABLE:
00100000 l    d  .text	00000000 .text
0010f1d4 l    d  .init	00000000 .init
0010f1ec l    d  .fini	00000000 .fini
0010f208 l    d  .rodata	00000000 .rodata
0010f700 l    d  .data	00000000 .data
0011010c l    d  .eh_frame	00000000 .eh_frame
00114000 l    d  .mmu_tbl	00000000 .mmu_tbl
00118000 l    d  .ARM.exidx	00000000 .ARM.exidx
001180e0 l    d  .init_array	00000000 .init_array
001180e4 l    d  .fini_array	00000000 .fini_array
001180e8 l    d  .ARM.attributes	00000000 .ARM.attributes
001180e8 l    d  .bss	00000000 .bss
00128418 l    d  .heap	00000000 .heap
00148420 l    d  .stack	00000000 .stack
00000000 l    d  .comment	00000000 .comment
00000000 l    d  .debug_info	00000000 .debug_info
00000000 l    d  .debug_abbrev	00000000 .debug_abbrev
00000000 l    d  .debug_loc	00000000 .debug_loc
00000000 l    d  .debug_aranges	00000000 .debug_aranges
00000000 l    d  .debug_ranges	00000000 .debug_ranges
00000000 l    d  .debug_macro	00000000 .debug_macro
00000000 l    d  .debug_line	00000000 .debug_line
00000000 l    d  .debug_str	00000000 .debug_str
00000000 l    d  .debug_frame	00000000 .debug_frame
00000000 l    df *ABS*	00000000 asm_vectors.o
001000a0 l       .text	00000000 Undefined
001000bc l       .text	00000000 SVCHandler
00100100 l       .text	00000000 PrefetchAbortHandler
001000e0 l       .text	00000000 DataAbortHandler
00100020 l       .text	00000000 IRQHandler
00100060 l       .text	00000000 FIQHandler
0010007c l       .text	00000000 FIQLoop
00000000 l    df *ABS*	00000000 boot.o
f8f02000 l       *ABS*	00000000 PSS_L2CC_BASE_ADDR
f8000000 l       *ABS*	00000000 PSS_SLCR_BASE_ADDR
0fffff00 l       *ABS*	00000000 RESERVED
fe00000f l       *ABS*	00000000 LRemap
f8f0277c l       *ABS*	00000000 L2CCWay
f8f02730 l       *ABS*	00000000 L2CCSync
f8f02100 l       *ABS*	00000000 L2CCCrtl
f8f02104 l       *ABS*	00000000 L2CCAuxCrtl
f8f02108 l       *ABS*	00000000 L2CCTAGLatReg
f8f0210c l       *ABS*	00000000 L2CCDataLatReg
f8f02220 l       *ABS*	00000000 L2CCIntClear
f8f0221c l       *ABS*	00000000 L2CCIntRaw
f8000004 l       *ABS*	00000000 SLCRlockReg
f8000008 l       *ABS*	00000000 SLCRUnlockReg
f8000a1c l       *ABS*	00000000 SLCRL2cRamReg
f8000244 l       *ABS*	00000000 SLCRCPURSTReg
f800d010 l       *ABS*	00000000 EFUSEStaus
00001005 l       *ABS*	00000000 CRValMmuCac
00002000 l       *ABS*	00000000 CRValHiVectorAddr
72360000 l       *ABS*	00000000 L2CCAuxControl
00000001 l       *ABS*	00000000 L2CCControl
00000111 l       *ABS*	00000000 L2CCTAGLatency
00000121 l       *ABS*	00000000 L2CCDataLatency
0000767b l       *ABS*	00000000 SLCRlockKey
0000df0d l       *ABS*	00000000 SLCRUnlockKey
00020202 l       *ABS*	00000000 SLCRL2cRamConfig
40000000 l       *ABS*	00000000 FPEXC_EN
00100144 l       .text	00000000 CheckEFUSE
0010013c l       .text	00000000 EndlessLoop0
0010017c l       .text	00000000 OKToRun
001003c8 l       .text	00000000 invalidate_dcache
00100324 l       .text	00000000 Sync
00100444 l       .text	00000000 finished
001003dc l       .text	00000000 loop1
00100438 l       .text	00000000 skip
00100418 l       .text	00000000 loop2
0010041c l       .text	00000000 loop3
00000000 l    df *ABS*	00000000 /opt/Xilinx/SDK/2018.2/gnu/aarch32/lin/gcc-arm-none-eabi/bin/../lib/gcc/arm-none-eabi/7.2.1/v7-a/fpv3/hard/crti.o
00000000 l    df *ABS*	00000000 crtstuff.c
0011010c l     O .eh_frame	00000000 
001004dc l     F .text	00000000 deregister_tm_clones
00100508 l     F .text	00000000 register_tm_clones
00100540 l     F .text	00000000 __do_global_dtors_aux
001180e8 l       .bss	00000001 completed.9754
001180e4 l     O .fini_array	00000000 __do_global_dtors_aux_fini_array_entry
00100584 l     F .text	00000000 frame_dummy
001180ec l       .bss	00000018 object.9759
001180e0 l     O .init_array	00000000 __frame_dummy_init_array_entry
00000000 l    df *ABS*	00000000 main.cc
00118104 l     O .bss	00000004 main::max_index
00118108 l     O .bss	00000005 main::max_min
00118110 l     O .bss	00000004 main::parity
00000000 l    df *ABS*	00000000 stream.cc
0010067c l     F .text	00000030 stream_inst::print_status() [clone .constprop.0]
00000000 l    df *ABS*	00000000 translation_table.o
00000000 l       *ABS*	00000000 SECT
00100000 l       *ABS*	00000000 DDR_START
1fffffff l       *ABS*	00000000 DDR_END
1ff00000 l       *ABS*	00000000 DDR_SIZE
000001ff l       *ABS*	00000000 DDR_REG
00000200 l       *ABS*	00000000 UNDEF_REG
00000000 l    df *ABS*	00000000 vectors.c
00000000 l    df *ABS*	00000000 xil-crt0.S
00000000 l    df *ABS*	00000000 xil_exception.c
00100be0 l     F .text	00000004 Xil_ExceptionNullHandler
00000000 l    df *ABS*	00000000 xtime_l.c
00000000 l    df *ABS*	00000000 cpu_init.o
00000000 l    df *ABS*	00000000 unwind-arm.c
00100cd8 l     F .text	00000018 selfrel_offset31
00100cf0 l     F .text	0000008c search_EIT_table
00100d7c l     F .text	0000003c __gnu_unwind_get_pr_addr
00100db8 l     F .text	00000110 get_eit_entry
00100ec8 l     F .text	00000088 restore_non_core_regs
00100f50 l     F .text	00000014 _Unwind_decode_typeinfo_ptr.isra.0
00100f64 l     F .text	00000008 __gnu_unwind_24bit.isra.1
00100f6c l     F .text	00000004 _Unwind_DebugHook
00100f70 l     F .text	00000068 unwind_phase2
00100fd8 l     F .text	0000013c unwind_phase2_forced
00101300 l     F .text	0000002c _Unwind_GetGR
00101394 l     F .text	0000002c _Unwind_SetGR
00101480 l     F .text	00000460 __gnu_unwind_pr_common
00000000 l    df *ABS*	00000000 libunwind.o
00000000 l    df *ABS*	00000000 pr-support.c
00101eb0 l     F .text	00000064 next_unwind_byte
00101f14 l     F .text	0000002c _Unwind_GetGR.constprop.0
00101f40 l     F .text	00000004 unwind_UCB_from_context
00000000 l    df *ABS*	00000000 abort.c
00000000 l    df *ABS*	00000000 exit.c
00000000 l    df *ABS*	00000000 fini.c
00000000 l    df *ABS*	00000000 impure.c
0010f748 l     O .data	00000428 impure_data
00000000 l    df *ABS*	00000000 init.c
00000000 l    df *ABS*	00000000 lib_a-memcpy.o
00000000 l    df *ABS*	00000000 printf.c
00000000 l    df *ABS*	00000000 putchar.c
00000000 l    df *ABS*	00000000 putc.c
00000000 l    df *ABS*	00000000 puts.c
00000000 l    df *ABS*	00000000 signal.c
00102cfc l     F .text	00000044 _init_signal_r.part.0
00000000 l    df *ABS*	00000000 signalr.c
00000000 l    df *ABS*	00000000 lib_a-strlen.o
00000000 l    df *ABS*	00000000 vfprintf.c
001059f8 l     F .text	000000ac __sbprintf
0010f20c l     O .rodata	00000010 blanks.8344
0010f21c l     O .rodata	00000010 zeroes.8345
00000000 l    df *ABS*	00000000 wbuf.c
00000000 l    df *ABS*	00000000 wcrtomb.c
00000000 l    df *ABS*	00000000 wcsrtombs.c
00000000 l    df *ABS*	00000000 wctomb_r.c
00000000 l    df *ABS*	00000000 wsetup.c
00000000 l    df *ABS*	00000000 __call_atexit.c
00000000 l    df *ABS*	00000000 dtoa.c
00106378 l     F .text	000001c4 quorem
00000000 l    df *ABS*	00000000 fflush.c
00000000 l    df *ABS*	00000000 findfp.c
00107a14 l     F .text	00000008 __fp_lock
00107a28 l     F .text	00000144 __sinit.part.1
00107b6c l     F .text	00000008 __fp_unlock
00000000 l    df *ABS*	00000000 mallocr.c
00000000 l    df *ABS*	00000000 fvwrite.c
00000000 l    df *ABS*	00000000 fwalk.c
00000000 l    df *ABS*	00000000 locale.c
00108678 l     F .text	00000090 __get_locale_env
00108708 l     F .text	000008f4 loadlocale
00108ffc l     F .text	0000008c currentlocale
0010f22c l     O .rodata	0000001c categories
0010fb94 l     O .data	000000e0 current_categories
0010fc74 l     O .data	00000020 lc_ctype_charset
0010fc98 l     O .data	00000020 lc_message_charset
0010fcb8 l     O .data	00000038 lconv
00128114 l     O .bss	000000e0 new_categories
001281f4 l     O .bss	00000004 lc_ctype_cjk_lang
001281f8 l     O .bss	000000e7 current_locale_string
001282e0 l     O .bss	000000e0 saved_categories
00000000 l    df *ABS*	00000000 makebuf.c
00000000 l    df *ABS*	00000000 mallocr.c
00000000 l    df *ABS*	00000000 mbtowc_r.c
0010f248 l     O .rodata	00000048 JIS_state_table
0010f290 l     O .rodata	00000048 JIS_action_table
00000000 l    df *ABS*	00000000 lib_a-memchr.o
00000000 l    df *ABS*	00000000 memmove.c
00000000 l    df *ABS*	00000000 memset.c
00000000 l    df *ABS*	00000000 mlock.c
00000000 l    df *ABS*	00000000 mprec.c
0010f2d8 l     O .rodata	0000000c p05.6583
00000000 l    df *ABS*	00000000 mallocr.c
00000000 l    df *ABS*	00000000 reent.c
00000000 l    df *ABS*	00000000 sbrkr.c
00000000 l    df *ABS*	00000000 s_frexp.c
00000000 l    df *ABS*	00000000 stdio.c
00000000 l    df *ABS*	00000000 strcasecmp.c
00000000 l    df *ABS*	00000000 strcat.c
00000000 l    df *ABS*	00000000 strchr.c
00000000 l    df *ABS*	00000000 lib_a-strcmp.o
00000000 l    df *ABS*	00000000 strcpy.c
00000000 l    df *ABS*	00000000 strlcpy.c
00000000 l    df *ABS*	00000000 strncasecmp.c
00000000 l    df *ABS*	00000000 strncmp.c
00000000 l    df *ABS*	00000000 strncpy.c
00000000 l    df *ABS*	00000000 strtol.c
00000000 l    df *ABS*	00000000 vfprintf.c
0010c684 l     F .text	000000a8 __sprint_r.part.0
0010de04 l     F .text	000000ac __sbprintf
0010f400 l     O .rodata	00000010 blanks.8322
0010f410 l     O .rodata	00000010 zeroes.8323
00000000 l    df *ABS*	00000000 wcsnrtombs.c
00000000 l    df *ABS*	00000000 writer.c
00000000 l    df *ABS*	00000000 mallocr.c
00000000 l    df *ABS*	00000000 closer.c
00000000 l    df *ABS*	00000000 ctype_.c
00000000 l    df *ABS*	00000000 fclose.c
00000000 l    df *ABS*	00000000 fputwc.c
00000000 l    df *ABS*	00000000 fstatr.c
00000000 l    df *ABS*	00000000 getenv_r.c
00000000 l    df *ABS*	00000000 isattyr.c
00000000 l    df *ABS*	00000000 lseekr.c
00000000 l    df *ABS*	00000000 readr.c
00000000 l    df *ABS*	00000000 environ.c
00128400 l     O .bss	00000004 initial_env
00000000 l    df *ABS*	00000000 envlock.c
00000000 l    df *ABS*	00000000 _exit.c
00000000 l    df *ABS*	00000000 _sbrk.c
00128404 l     O .bss	00000004 heap.5533
00000000 l    df *ABS*	00000000 close.c
00000000 l    df *ABS*	00000000 fstat.c
00000000 l    df *ABS*	00000000 getpid.c
00000000 l    df *ABS*	00000000 isatty.c
00000000 l    df *ABS*	00000000 kill.c
00000000 l    df *ABS*	00000000 lseek.c
00000000 l    df *ABS*	00000000 read.c
0010e710 l     F .text	00000054 read.localalias.0
00000000 l    df *ABS*	00000000 write.c
0010e768 l     F .text	0000006c write.localalias.0
00000000 l    df *ABS*	00000000 errno.c
00000000 l    df *ABS*	00000000 inbyte.c
00000000 l    df *ABS*	00000000 outbyte.c
00000000 l    df *ABS*	00000000 xuartps_hw.c
00000000 l    df *ABS*	00000000 _udivsi3.o
0010e884 l       .text	00000000 .udivsi3_skip_div0_test
00000000 l       *ABS*	00000000 shift
00000000 l    df *ABS*	00000000 _divsi3.o
0010ea98 l       .text	00000000 .divsi3_skip_div0_test
00000000 l       *ABS*	00000000 shift
00000000 l    df *ABS*	00000000 _dvmd_tls.o
00000000 l    df *ABS*	00000000 _aeabi_uldivmod.o
00000000 l    df *ABS*	00000000 libgcc2.c
00000000 l    df *ABS*	00000000 crtstuff.c
0011010c l     O .eh_frame	00000000 __FRAME_END__
00000000 l    df *ABS*	00000000 /opt/Xilinx/SDK/2018.2/gnu/aarch32/lin/gcc-arm-none-eabi/bin/../lib/gcc/arm-none-eabi/7.2.1/v7-a/fpv3/hard/crtn.o
00101e68 g     F .text	00000024 .hidden ___Unwind_ForcedUnwind
0010111c g     F .text	000000a8 .hidden __gnu_Unwind_RaiseException
00102b1c g     F .text	00000018 putchar
0010b2fc g     F .text	00000034 _mprec_log10
00168820 g       .stack	00000000 _supervisor_stack_end
0010b39c g     F .text	00000078 __any_on
0010e564 g     F .text	00000038 _isatty_r
0010f3b0 g     O .rodata	00000028 __mprec_tinytens
0010c0fc g     F .text	000000f8 strcpy
0010b8f4 g     F .text	0000003c cleanup_glue
0010e690  w    F .text	00000008 _getpid
00102c44 g     F .text	000000a4 _puts_r
0010e59c g     F .text	00000044 _lseek_r
00100000 g       .text	00000000 _vector_table
00110110 g       .eh_frame	00000000 __eh_framehdr_start
0011010c g       .data	00000000 ___CTORS_LIST___
00100ac0 g     F .text	00000030 stream_inst::print_status()
00000400 g       *ABS*	00000000 _ABORT_STACK_SIZE
00102f40 g     F .text	00000040 _kill_r
001006b4 g     F .text	0000001c stream_inst::ap_start()
00102ad4 g     F .text	00000040 printf
00105be4 g     F .text	00000088 _wcrtomb_r
00102d58 g     F .text	00000058 _signal_r
0010bb84 g     F .text	0000002c __sseek
00107cc0 g     F .text	00000010 __sinit
00105aa4 g     F .text	00000128 __swbuf_r
00100be8 g     F .text	00000004 Xil_PrefetchAbortHandler
00109088 g     F .text	00000318 _setlocale_r
00107b74 g     F .text	00000048 __sfmoreglue
0010a710 g     F .text	00000004 __malloc_unlock
0010e190 g     F .text	00000018 __set_ctype
0010a4c0 g     F .text	0000013c memmove
00101d24 g     F .text	00000000 .hidden __gnu_Unwind_Save_VFP
00107ca8 g     F .text	00000018 _cleanup
00101e44 g     F .text	00000024 .hidden _Unwind_Resume_or_Rethrow
00169020 g       .stack	00000000 __supervisor_stack
0010a714 g     F .text	00000088 _Balloc
001180e0 g       .ARM.exidx	00000000 __exidx_end
0010e7fc g     F .text	00000018 XUartPs_SendByte
00169820 g       .stack	00000000 _undef_stack_end
001005b8 g     F .text	000000c4 check_results(unsigned int*)
001018e0 g     F .text	00000008 .hidden __aeabi_unwind_cpp_pr0
0010e7d8  w    F .text	00000010 __errno
00100bf0 g     F .text	00000004 Xil_ExceptionInit
00102388 g     F .text	00000010 .hidden _Unwind_GetRegionStart
00105ebc g     F .text	0000008c __sjis_wctomb
00101e44 g     F .text	00000024 .hidden ___Unwind_Resume_or_Rethrow
001180e8 g       .ARM.attributes	00000000 __sbss_start
0010e444 g     F .text	00000040 _fstat_r
00128414 g     O .bss	00000004 errno
0010bb28 g     F .text	00000008 __seofread
00100b54 g     F .text	00000014 PrefetchAbortInterrupt
0010e814 g     F .text	0000001c XUartPs_RecvByte
00101e8c g     F .text	00000024 .hidden _Unwind_Backtrace
0011010c g       .data	00000000 __fixup_start
0010e688  w    F .text	00000008 getpid
00101d08 g     F .text	00000014 .hidden __restore_core_regs
00101d44 g     F .text	00000000 .hidden __gnu_Unwind_Save_VFP_D_16_to_31
0010012c g       .text	00000000 _boot
00118114 g     O .bss	00010000 output
00105f48 g     F .text	000000b8 __eucjp_wctomb
0011010c g       .data	00000000 __fixup_end
00102b14 g     F .text	00000008 _putchar_r
00101114 g     F .text	00000008 .hidden _Unwind_GetCFA
001024c0 g     F .text	000005e0 memcpy
0011010c g     O .data	00000000 .hidden __TMC_END__
0010132c g     F .text	00000068 .hidden _Unwind_VRS_Set
00107a1c g     F .text	0000000c _cleanup_r
00100bec g     F .text	00000004 Xil_UndefinedExceptionHandler
00114000 g       .mmu_tbl	00000000 __mmu_tbl_start
001180e8 g       .ARM.attributes	00000000 __sdata_start
0011010c g       .data	00000000 __DTOR_END__
0010ecd4 g     F .text	00000000 .hidden __aeabi_uldivmod
00102ce8 g     F .text	00000014 puts
00169420 g       .stack	00000000 __abort_stack
001180e8 g       .fini_array	00000000 __fini_array_end
0010f700 g       .rodata	00000000 __rodata_end
0010b27c g     F .text	00000080 __ratio
00102aa0 g     F .text	00000034 _printf_r
0010e884 g     F .text	000001ec .hidden __udivsi3
0010e698  w    F .text	00000008 isatty
00102db0 g     F .text	00000098 _raise_r
0010e678  w    F .text	00000010 _fstat
0011010c g       .data	00000000 __data1_start
0010f2e8 g     O .rodata	000000c8 __mprec_tens
0010f700 g       .data	00000000 __sbss2_end
001093a0 g     F .text	0000000c __locale_charset
00128408 g     O .bss	00000004 UndefinedExceptionAddr
001009e8 g     F .text	00000048 stream_inst::stream5_read()
001283cc g     O .bss	00000004 __malloc_top_pad
00102f80 g     F .text	00000004 _getpid_r
001013c0 g     F .text	000000c0 .hidden __gnu_Unwind_Backtrace
0010f700 g     O .data	00000000 .hidden __dso_handle
0010fc94 g     O .data	00000004 __mb_cur_max
00168820 g       .stack	00000000 __irq_stack
001093d8 g     F .text	0000000c _localeconv_r
0010aa58 g     F .text	00000020 __i2b
001080f0 g     F .text	000004a0 __sfvwrite_r
00102e48 g     F .text	00000094 __sigtramp_r
0010ed10 g     F .text	00000124 .hidden __udivmoddi4
0010ba20 g     F .text	00000038 _sbrk_r
00100c9c g       .text	00000000 __cpu_init
00101d34 g     F .text	00000000 .hidden __gnu_Unwind_Save_VFP_D
0010e5e0 g     F .text	00000044 _read_r
001018f8 g     F .text	00000410 .hidden _Unwind_VRS_Pop
0010e1a8 g     F .text	000000f8 _fclose_r
001018f0  w    F .text	00000008 .hidden __aeabi_unwind_cpp_pr2
001079e4 g     F .text	00000030 fflush
001283f8 g     O .bss	00000004 __malloc_max_sbrked_mem
00101e8c g     F .text	00000024 .hidden ___Unwind_Backtrace
00000800 g       *ABS*	00000000 _SUPERVISOR_STACK_SIZE
00148420 g       .heap	00000000 _heap_end
0010b09c g     F .text	000000e0 __b2d
00118000 g       .ARM.exidx	00000000 __exidx_start
0010e6e0  w    F .text	00000018 lseek
0010e6a0  w    F .text	00000008 _isatty
00100b04 g     F .text	00000014 IRQInterrupt
0010f208 g     O .rodata	00000004 _global_impure_ptr
0010b414 g     F .text	000004e0 _realloc_r
0010c248 g     F .text	00000090 strncasecmp
0010244c g     F .text	00000074 __libc_init_array
00128418 g       .bss	00000000 __bss_end
0010e048 g     F .text	0000003c wcsnrtombs
001006ac g     F .text	00000008 stream_inst::stream_inst(int, unsigned int)
0010f700 g       .data	00000000 __rodata1_start
00101dfc g     F .text	00000024 .hidden ___Unwind_RaiseException
0010e3bc g     F .text	00000020 _fputwc_r
001194bb g       .ARM.attributes	00000000 __ARM.attributes_end
0010f3d8 g     O .rodata	00000028 __mprec_bigtens
0010a888 g     F .text	000000e0 __s2b
00100b2c g     F .text	00000014 SWInterrupt
001023c4 g     F .text	00000014 abort
00101e20 g     F .text	00000024 .hidden ___Unwind_Resume
00100910 g     F .text	00000048 stream_inst::stream2_read()
0010e630  w    F .text	00000040 _sbrk
0010ae60 g     F .text	0000005c __mcmp
001180e8 g       .ARM.attributes	00000000 __tbss_start
00107ce0 g     F .text	00000018 __fp_lock_all
0010f1d4 g     F .init	00000000 _init
0010c668 g     F .text	0000001c strtol
00101d4c g     F .text	00000000 .hidden __gnu_Unwind_Restore_WMMXD
0010240c g     F .text	00000040 __libc_fini_array
00106000 g     F .text	000000d0 __jis_wctomb
001006d0 g     F .text	00000048 stream_inst::stream1_write(unsigned int)
0010b930 g     F .text	000000f0 _reclaim_reent
00169820 g       .stack	00000000 __fiq_stack
0010a968 g     F .text	00000058 __hi0bits
00100bf4 g     F .text	00000018 Xil_ExceptionRegisterHandler
00100958 g     F .text	00000048 stream_inst::stream3_read()
00128420 g       .heap	00000000 _heap_start
00000400 g       *ABS*	00000000 _IRQ_STACK_SIZE
001180e8 g       .ARM.attributes	00000000 __sbss_end
00000400 g       *ABS*	00000000 _FIQ_STACK_SIZE
0010e768  w    F .text	0000006c write
0010012c g       .text	00000000 _prestart
00102b34 g     F .text	00000080 _putc_r
00110108 g     O .data	00000004 environ
0010e6a8  w    F .text	0000001c kill
00100838 g     F .text	00000048 stream_inst::stream6_write(unsigned int)
0010bc24 g     F .text	00000070 strcat
0010ac70 g     F .text	000000f8 __pow5mult
001283c8 g     O .bss	00000004 __nlocale_changed
00169c20 g       .stack	00000000 __undef_stack
00101d1c g     F .text	00000000 .hidden __gnu_Unwind_Restore_VFP
0010ea90 g     F .text	00000000 .hidden __aeabi_idiv
00101e20 g     F .text	00000024 .hidden _Unwind_Resume
00101280 g     F .text	00000018 .hidden _Unwind_DeleteException
0010127c g     F .text	00000004 .hidden _Unwind_Complete
0012840c g     O .bss	00000004 PrefetchAbortAddr
0011010c g       .data	00000000 __CTOR_LIST__
00114000 g       .mmu_tbl	00000000 MMUTable
0010f700 g       .data	00000000 __sbss2_start
00107cd0 g     F .text	00000004 __sfp_lock_acquire
0010a420 g     F .text	00000000 memchr
00107e0c g     F .text	000002e4 _free_r
001093ac g     F .text	00000010 __locale_mb_cur_max
00105cfc g     F .text	00000024 _wcsrtombs_r
00106210 g     F .text	00000164 __call_exitprocs
001283c4 g     O .bss	00000004 __mlocale_changed
0010fb74 g     O .data	00000020 __default_locale
001100f8 g     O .data	00000004 __malloc_sbrk_base
00100b7c g       .text	00000064 _start
001008c8 g     F .text	00000048 stream_inst::stream1_read()
0010e6f8  w    F .text	00000018 _lseek
0010f208 g       .rodata	00000000 __rodata_start
0010ad68 g     F .text	000000f8 __lshift
00102ef0 g     F .text	00000018 signal
0010e710  w    F .text	00000054 read
00101f44 g     F .text	00000404 .hidden __gnu_unwind_execute
001180e8 g       *ABS*	00000000 _SDA_BASE_
0010a080 g     F .text	000000cc __sjis_mbtowc
0010c1f4 g     F .text	00000054 strlcpy
0010c2d8 g     F .text	000000f8 strncmp
00101d2c g     F .text	00000000 .hidden __gnu_Unwind_Restore_VFP_D
00105d20 g     F .text	00000038 wcsrtombs
0011010c g       .data	00000000 __data_end
0010aa78 g     F .text	000001f8 __multiply
00128420 g       .heap	00000000 HeapBase
0010c3d0 g     F .text	000000d8 strncpy
001283d0 g     O .bss	00000028 __malloc_current_mallinfo
0010b17c g     F .text	00000100 __d2b
0010bbb8 g     F .text	0000006c strcasecmp
001011e8 g     F .text	00000074 .hidden __gnu_Unwind_Resume
0010e158 g     F .text	00000038 _close_r
00100b18 g     F .text	00000014 UndefinedException
00128410 g     O .bss	00000004 DataAbortAddr
00101d3c g     F .text	00000000 .hidden __gnu_Unwind_Restore_VFP_D_16_to_31
00168420 g       .stack	00000000 _irq_stack_end
001060d0 g     F .text	00000140 __swsetup_r
00101dfc g     F .text	00000024 .hidden _Unwind_RaiseException
0010ecd0  w    F .text	00000004 .hidden __aeabi_ldiv0
00107bbc g     F .text	000000ec __sfp
0010b330 g     F .text	0000006c __copybits
0010fcf0 g     O .data	00000408 __malloc_av_
00100760 g     F .text	00000048 stream_inst::stream3_write(unsigned int)
00107cdc g     F .text	00000004 __sinit_lock_release
00110110 g       .eh_frame	00000000 __eh_framehdr_end
00100a30 g     F .text	00000048 stream_inst::stream6_read()
0010baf8 g     F .text	00000030 __sread
0010e7f0 g     F .text	0000000c outbyte
00100a78 g     F .text	00000048 stream_inst::stream7_read()
0010a70c g     F .text	00000004 __malloc_lock
001180e4 g       .fini_array	00000000 __fini_array_start
0010798c g     F .text	00000058 _fflush_r
00109d84 g     F .text	000002fc __utf8_mbtowc
0010e0c8 g     F .text	00000090 _calloc_r
001180e8 g       .bss	00000000 __bss_start
00020000 g       *ABS*	00000000 _STACK_SIZE
001180e8 g       .ARM.attributes	00000000 __tdata_start
001180e8 g       .ARM.attributes	00000000 __tdata_end
0010a5fc g     F .text	00000110 memset
0010ee34 g     F .text	00000394 main
00100880 g     F .text	00000048 stream_inst::stream7_write(unsigned int)
001283fc g     O .bss	00000004 __malloc_max_total_mem
00020000 g       *ABS*	00000000 _HEAP_SIZE
00105bcc g     F .text	00000018 __swbuf
0010a14c g     F .text	0000012c __eucjp_mbtowc
0010e884 g     F .text	00000000 .hidden __aeabi_uidiv
0010bbb0 g     F .text	00000008 __sclose
0010e2a0 g     F .text	00000014 fclose
0010c4a8 g     F .text	000001c0 _strtol_r
0010e484 g     F .text	000000c8 _findenv_r
001180e4 g       .init_array	00000000 __init_array_end
0010653c g     F .text	00001228 _dtoa_r
00109580 g     F .text	00000774 _malloc_r
00105d58 g     F .text	00000028 __ascii_wctomb
00105dc8 g     F .text	000000f4 __utf8_wctomb
00102f08 g     F .text	00000024 _init_signal
0010e628 g     F .text	00000004 __env_unlock
00108590 g     F .text	00000070 _fwalk
00148420 g       .stack	00000000 _stack_end
001007a8 g     F .text	00000048 stream_inst::stream4_write(unsigned int)
00109d38 g     F .text	0000004c _mbtowc_r
0011010c g       .data	00000000 ___DTORS_END___
00102bb4 g     F .text	00000090 putc
0010ea90 g     F .text	00000220 .hidden __divsi3
00100c50 g     F .text	00000024 XTime_SetTime
001180e8 g       .ARM.attributes	00000000 __sdata_end
00107d10 g     F .text	000000fc _malloc_trim_r
001011c4 g     F .text	00000024 .hidden __gnu_Unwind_ForcedUnwind
0010f700 g       .data	00000000 __sdata2_start
0011010c g       .data	00000000 __CTOR_END__
0011010c g       .data	00000000 ___DTORS_LIST___
0010be28 g     F .text	000002dc strcmp
001006ac g     F .text	00000008 stream_inst::stream_inst(int, unsigned int)
0011010c g       .data	00000000 __DTOR_LIST__
0010dde8 g     F .text	0000001c vfiprintf
0010125c g     F .text	00000020 .hidden __gnu_Unwind_Resume_or_Rethrow
0010f1ec g     F .fini	00000000 _fini
00101d08 g     F .text	00000014 .hidden restore_core_regs
00101de8 g     F .text	00000000 .hidden __gnu_Unwind_Save_WMMXC
001283c0 g     O .bss	00000004 _PathLocale
00169020 g       .stack	00000000 _abort_stack_end
0010deb0 g     F .text	00000198 _wcsnrtombs_r
0010e084 g     F .text	00000044 _write_r
001093e4 g     F .text	00000018 setlocale
001023bc g     F .text	00000008 .hidden _Unwind_GetTextRelBase
001009a0 g     F .text	00000048 stream_inst::stream4_read()
001007f0 g     F .text	00000048 stream_inst::stream5_write(unsigned int)
0010f740 g     O .data	00000004 _impure_ptr
00107764 g     F .text	00000228 __sflush_r
001093c8 g     F .text	00000010 __locale_cjk_lang
001180e0 g       .init_array	00000000 __preinit_array_end
0010f700 g       .data	00000000 __sdata2_end
00109cf4 g     F .text	00000044 __ascii_mbtowc
0010b024 g     F .text	00000078 __ulp
00107cf8 g     F .text	00000018 __fp_unlock_all
0010e7e8 g     F .text	00000008 inbyte
00102398 g     F .text	0000001c .hidden _Unwind_GetLanguageSpecificData
0010f704 g     O .data	00000038 XExc_VectorTable
001093fc g     F .text	0000000c localeconv
00101298 g     F .text	00000068 .hidden _Unwind_VRS_Get
0011010c g       .data	00000000 ___CTORS_END___
00109408 g     F .text	00000094 __swhatbuf_r
00168420 g       .stack	00000000 __stack
00101dd4 g     F .text	00000000 .hidden __gnu_Unwind_Restore_WMMXC
0010ea70 g     F .text	00000020 .hidden __aeabi_uidivmod
00148420 g       .heap	00000000 HeapLimit
00100c2c g     F .text	00000024 Xil_ExceptionRemoveHandler
0010e7d4  w    F .text	00000004 _write
00102348 g     F .text	00000040 .hidden __gnu_unwind_frame
00100718 g     F .text	00000048 stream_inst::stream2_write(unsigned int)
00101e68 g     F .text	00000024 .hidden _Unwind_ForcedUnwind
00169c20 g       .stack	00000000 _end
0010e830 g     F .text	00000054 XUartPs_ResetHw
0010f700 g       .data	00000000 __rodata1_end
0010e2b4 g     F .text	00000108 __fputwc
0011010c g       .data	00000000 __data1_end
00100b40 g     F .text	00000014 DataAbortInterrupt
0010bb30 g     F .text	00000054 __swrite
001100fc g     O .data	00000004 __malloc_trim_threshold
00128420 g       .heap	00000000 _heap
001093bc g     F .text	0000000c __locale_msgcharset
001023d8 g     F .text	00000034 exit
0010c748 g     F .text	000016a0 _vfiprintf_r
0010a278 g     F .text	000001a4 __jis_mbtowc
00108600 g     F .text	00000078 _fwalk_reent
0010aebc g     F .text	00000168 __mdiff
00101d90 g     F .text	00000000 .hidden __gnu_Unwind_Save_WMMXD
0010e6c4  w    F .text	0000001c _kill
00110104 g     O .data	00000004 __ctype_ptr__
001180e8 g       .ARM.attributes	00000000 __tbss_end
00107cd4 g     F .text	00000004 __sfp_lock_release
0010f420 g     O .rodata	00000101 _ctype_
0010e764  w    F .text	00000004 _read
0010ecd0  w    F .text	00000004 .hidden __aeabi_idiv0
001180e0 g       .init_array	00000000 __init_array_start
00110100 g     O .data	00000004 __mbtowc
0010e62c  w    F .text	00000004 _exit
0010949c g     F .text	000000e4 __smakebuf_r
00100af0 g     F .text	00000014 FIQInterrupt
00102fc0 g     F .text	000000dc strlen
00102d40 g     F .text	00000018 _init_signal_r
001018e8  w    F .text	00000008 .hidden __aeabi_unwind_cpp_pr1
00168420 g       .stack	00000000 _stack
0010fb70 g     O .data	00000004 __wctomb
0010c72c g     F .text	0000001c __sprint_r
0010bc94 g     F .text	00000188 strchr
001023b4 g     F .text	00000008 .hidden _Unwind_GetDataRelBase
0010f700 g       .data	00000000 __data_start
00105d80 g     F .text	00000048 _wctomb_r
0010e624 g     F .text	00000004 __env_lock
00169420 g       .stack	00000000 _fiq_stack_end
001030a0 g     F .text	0000293c _vfprintf_r
001180e0 g       .init_array	00000000 __preinit_array_start
00000400 g       *ABS*	00000000 _UNDEF_STACK_SIZE
0010a9c0 g     F .text	00000098 __lo0bits
0010ecb0 g     F .text	00000020 .hidden __aeabi_idivmod
00102f2c g     F .text	00000014 __sigtramp
0010f700 g       *ABS*	00000000 _SDA2_BASE_
00100be4 g     F .text	00000004 Xil_DataAbortHandler
00100c74 g     F .text	00000028 XTime_GetTime
00105c6c g     F .text	00000090 wcrtomb
00100c0c g     F .text	00000020 Xil_GetExceptionRegisterHandler
0010ba58 g     F .text	000000a0 frexp
00118000 g       .mmu_tbl	00000000 __mmu_tbl_end
001180e8 g       .ARM.attributes	00000000 __ARM.attributes_start
001059dc g     F .text	0000001c vfprintf
0010e3dc g     F .text	00000068 fputwc
0010e670  w    F .text	00000008 _close
00102edc g     F .text	00000014 raise
00107cd8 g     F .text	00000004 __sinit_lock_acquire
0010a7b8 g     F .text	000000d0 __multadd
0010a79c g     F .text	0000001c _Bfree
0010e54c g     F .text	00000018 _getenv_r



Disassembly of section .text:

00100000 <_vector_table>:

.globl _vector_table

.section .vectors
_vector_table:
	B	_boot
  100000:	ea000049 	b	10012c <_boot>
	B	Undefined
  100004:	ea000025 	b	1000a0 <Undefined>
	B	SVCHandler
  100008:	ea00002b 	b	1000bc <SVCHandler>
	B	PrefetchAbortHandler
  10000c:	ea00003b 	b	100100 <PrefetchAbortHandler>
	B	DataAbortHandler
  100010:	ea000032 	b	1000e0 <DataAbortHandler>
	NOP	/* Placeholder for address exception vector*/
  100014:	e320f000 	nop	{0}
	B	IRQHandler
  100018:	ea000000 	b	100020 <IRQHandler>
	B	FIQHandler
  10001c:	ea00000f 	b	100060 <FIQHandler>

00100020 <IRQHandler>:


IRQHandler:					/* IRQ vector handler */

	stmdb	sp!,{r0-r3,r12,lr}		/* state save from compiled code*/
  100020:	e92d500f 	push	{r0, r1, r2, r3, ip, lr}
#ifdef __ARM_NEON__
	vpush {d0-d7}
  100024:	ed2d0b10 	vpush	{d0-d7}
	vpush {d16-d31}
  100028:	ed6d0b20 	vpush	{d16-d31}
	vmrs r1, FPSCR
  10002c:	eef11a10 	vmrs	r1, fpscr
	push {r1}
  100030:	e52d1004 	push	{r1}		; (str r1, [sp, #-4]!)
	vmrs r1, FPEXC
  100034:	eef81a10 	vmrs	r1, fpexc
	push {r1}
  100038:	e52d1004 	push	{r1}		; (str r1, [sp, #-4]!)
	ldr	r2, =prof_pc
	subs	r3, lr, #0
	str	r3, [r2]
#endif

	bl	IRQInterrupt			/* IRQ vector */
  10003c:	eb0002b0 	bl	100b04 <IRQInterrupt>

#ifdef __ARM_NEON__
	pop 	{r1}
  100040:	e49d1004 	pop	{r1}		; (ldr r1, [sp], #4)
	vmsr    FPEXC, r1
  100044:	eee81a10 	vmsr	fpexc, r1
	pop 	{r1}
  100048:	e49d1004 	pop	{r1}		; (ldr r1, [sp], #4)
	vmsr    FPSCR, r1
  10004c:	eee11a10 	vmsr	fpscr, r1
	vpop    {d16-d31}
  100050:	ecfd0b20 	vpop	{d16-d31}
	vpop    {d0-d7}
  100054:	ecbd0b10 	vpop	{d0-d7}
#endif
	ldmia	sp!,{r0-r3,r12,lr}		/* state restore from compiled code */
  100058:	e8bd500f 	pop	{r0, r1, r2, r3, ip, lr}


	subs	pc, lr, #4			/* adjust return */
  10005c:	e25ef004 	subs	pc, lr, #4

00100060 <FIQHandler>:


FIQHandler:					/* FIQ vector handler */
	stmdb	sp!,{r0-r3,r12,lr}		/* state save from compiled code */
  100060:	e92d500f 	push	{r0, r1, r2, r3, ip, lr}
#ifdef __ARM_NEON__
	vpush {d0-d7}
  100064:	ed2d0b10 	vpush	{d0-d7}
	vpush {d16-d31}
  100068:	ed6d0b20 	vpush	{d16-d31}
	vmrs r1, FPSCR
  10006c:	eef11a10 	vmrs	r1, fpscr
	push {r1}
  100070:	e52d1004 	push	{r1}		; (str r1, [sp, #-4]!)
	vmrs r1, FPEXC
  100074:	eef81a10 	vmrs	r1, fpexc
	push {r1}
  100078:	e52d1004 	push	{r1}		; (str r1, [sp, #-4]!)

0010007c <FIQLoop>:
#endif

FIQLoop:
	bl	FIQInterrupt			/* FIQ vector */
  10007c:	eb00029b 	bl	100af0 <FIQInterrupt>

#ifdef __ARM_NEON__
	pop 	{r1}
  100080:	e49d1004 	pop	{r1}		; (ldr r1, [sp], #4)
	vmsr    FPEXC, r1
  100084:	eee81a10 	vmsr	fpexc, r1
	pop 	{r1}
  100088:	e49d1004 	pop	{r1}		; (ldr r1, [sp], #4)
	vmsr    FPSCR, r1
  10008c:	eee11a10 	vmsr	fpscr, r1
	vpop    {d16-d31}
  100090:	ecfd0b20 	vpop	{d16-d31}
	vpop    {d0-d7}
  100094:	ecbd0b10 	vpop	{d0-d7}
#endif
	ldmia	sp!,{r0-r3,r12,lr}		/* state restore from compiled code */
  100098:	e8bd500f 	pop	{r0, r1, r2, r3, ip, lr}
	subs	pc, lr, #4			/* adjust return */
  10009c:	e25ef004 	subs	pc, lr, #4

001000a0 <Undefined>:


Undefined:					/* Undefined handler */
	stmdb	sp!,{r0-r3,r12,lr}		/* state save from compiled code */
  1000a0:	e92d500f 	push	{r0, r1, r2, r3, ip, lr}
	ldr     r0, =UndefinedExceptionAddr
  1000a4:	e59f0074 	ldr	r0, [pc, #116]	; 100120 <PrefetchAbortHandler+0x20>
	sub     r1, lr, #4
  1000a8:	e24e1004 	sub	r1, lr, #4
	str     r1, [r0]            		/* Store address of instruction causing undefined exception */
  1000ac:	e5801000 	str	r1, [r0]

	bl	UndefinedException		/* UndefinedException: call C function here */
  1000b0:	eb000298 	bl	100b18 <UndefinedException>
	ldmia	sp!,{r0-r3,r12,lr}		/* state restore from compiled code */
  1000b4:	e8bd500f 	pop	{r0, r1, r2, r3, ip, lr}
	movs	pc, lr
  1000b8:	e1b0f00e 	movs	pc, lr

001000bc <SVCHandler>:

SVCHandler:					/* SWI handler */
	stmdb	sp!,{r0-r3,r12,lr}		/* state save from compiled code */
  1000bc:	e92d500f 	push	{r0, r1, r2, r3, ip, lr}

	tst	r0, #0x20			/* check the T bit */
  1000c0:	e3100020 	tst	r0, #32
	ldrneh	r0, [lr,#-2]			/* Thumb mode */
  1000c4:	115e00b2 	ldrhne	r0, [lr, #-2]
	bicne	r0, r0, #0xff00			/* Thumb mode */
  1000c8:	13c00cff 	bicne	r0, r0, #65280	; 0xff00
	ldreq	r0, [lr,#-4]			/* ARM mode */
  1000cc:	051e0004 	ldreq	r0, [lr, #-4]
	biceq	r0, r0, #0xff000000		/* ARM mode */
  1000d0:	03c004ff 	biceq	r0, r0, #-16777216	; 0xff000000

	bl	SWInterrupt			/* SWInterrupt: call C function here */
  1000d4:	eb000294 	bl	100b2c <SWInterrupt>

	ldmia	sp!,{r0-r3,r12,lr}		/* state restore from compiled code */
  1000d8:	e8bd500f 	pop	{r0, r1, r2, r3, ip, lr}

	movs	pc, lr		/*return to the next instruction after the SWI instruction */
  1000dc:	e1b0f00e 	movs	pc, lr

001000e0 <DataAbortHandler>:


DataAbortHandler:				/* Data Abort handler */
#ifdef CONFIG_ARM_ERRATA_775420
	dsb
  1000e0:	f57ff04f 	dsb	sy
#endif
	stmdb	sp!,{r0-r3,r12,lr}		/* state save from compiled code */
  1000e4:	e92d500f 	push	{r0, r1, r2, r3, ip, lr}
	ldr     r0, =DataAbortAddr
  1000e8:	e59f0034 	ldr	r0, [pc, #52]	; 100124 <PrefetchAbortHandler+0x24>
	sub     r1, lr, #8
  1000ec:	e24e1008 	sub	r1, lr, #8
	str     r1, [r0]            		/* Stores instruction causing data abort */
  1000f0:	e5801000 	str	r1, [r0]

	bl	DataAbortInterrupt		/*DataAbortInterrupt :call C function here */
  1000f4:	eb000291 	bl	100b40 <DataAbortInterrupt>

	ldmia	sp!,{r0-r3,r12,lr}		/* state restore from compiled code */
  1000f8:	e8bd500f 	pop	{r0, r1, r2, r3, ip, lr}

	subs	pc, lr, #8			/* points to the instruction that caused the Data Abort exception */
  1000fc:	e25ef008 	subs	pc, lr, #8

00100100 <PrefetchAbortHandler>:

PrefetchAbortHandler:				/* Prefetch Abort handler */
#ifdef CONFIG_ARM_ERRATA_775420
	dsb
  100100:	f57ff04f 	dsb	sy
#endif
	stmdb	sp!,{r0-r3,r12,lr}		/* state save from compiled code */
  100104:	e92d500f 	push	{r0, r1, r2, r3, ip, lr}
	ldr     r0, =PrefetchAbortAddr
  100108:	e59f0018 	ldr	r0, [pc, #24]	; 100128 <PrefetchAbortHandler+0x28>
	sub     r1, lr, #4
  10010c:	e24e1004 	sub	r1, lr, #4
	str     r1, [r0]            		/* Stores instruction causing prefetch abort */
  100110:	e5801000 	str	r1, [r0]

	bl	PrefetchAbortInterrupt		/* PrefetchAbortInterrupt: call C function here */
  100114:	eb00028e 	bl	100b54 <PrefetchAbortInterrupt>

	ldmia	sp!,{r0-r3,r12,lr}		/* state restore from compiled code */
  100118:	e8bd500f 	pop	{r0, r1, r2, r3, ip, lr}

	subs	pc, lr, #4			/* points to the instruction that caused the Prefetch Abort exception */
  10011c:	e25ef004 	subs	pc, lr, #4
	ldr     r0, =UndefinedExceptionAddr
  100120:	00128408 	.word	0x00128408
	ldr     r0, =DataAbortAddr
  100124:	00128410 	.word	0x00128410
	ldr     r0, =PrefetchAbortAddr
  100128:	0012840c 	.word	0x0012840c

0010012c <_boot>:
_prestart:
_boot:

#if XPAR_CPU_ID==0
        /* only allow cpu0 through */
	mrc	p15,0,r1,c0,c0,5
  10012c:	ee101fb0 	mrc	15, 0, r1, cr0, cr0, {5}
	and	r1, r1, #0xf
  100130:	e201100f 	and	r1, r1, #15
        cmp	r1, #0
  100134:	e3510000 	cmp	r1, #0
	beq	CheckEFUSE
  100138:	0a000001 	beq	100144 <CheckEFUSE>

0010013c <EndlessLoop0>:
	EndlessLoop0:
		wfe
  10013c:	e320f002 	wfe
	b	EndlessLoop0
  100140:	eafffffd 	b	10013c <EndlessLoop0>

00100144 <CheckEFUSE>:

CheckEFUSE:
        ldr r0,=EFUSEStaus
  100144:	e59f030c 	ldr	r0, [pc, #780]	; 100458 <finished+0x14>
        ldr r1,[r0]                             /* Read eFuse setting */
  100148:	e5901000 	ldr	r1, [r0]
        ands r1,r1,#0x80                        /* Check whether device is having single core */
  10014c:	e2111080 	ands	r1, r1, #128	; 0x80
	beq OKToRun
  100150:	0a000009 	beq	10017c <OKToRun>

 /* single core device, reset cpu1 */
        ldr     r0,=SLCRUnlockReg               /* Load SLCR base address base + unlock register */
  100154:	e59f0300 	ldr	r0, [pc, #768]	; 10045c <finished+0x18>
        ldr     r1,=SLCRUnlockKey               /* set unlock key */
  100158:	e59f1300 	ldr	r1, [pc, #768]	; 100460 <finished+0x1c>
        str     r1, [r0]                        /* Unlock SLCR */
  10015c:	e5801000 	str	r1, [r0]

	ldr r0,=SLCRCPURSTReg
  100160:	e59f02fc 	ldr	r0, [pc, #764]	; 100464 <finished+0x20>
	ldr r1,[r0]                             /* Read CPU Software Reset Control register */
  100164:	e5901000 	ldr	r1, [r0]
	orr r1,r1,#0x22
  100168:	e3811022 	orr	r1, r1, #34	; 0x22
        str r1,[r0]                             /* Reset CPU1 */
  10016c:	e5801000 	str	r1, [r0]

        ldr	r0,=SLCRlockReg         	/* Load SLCR base address base + lock register */
  100170:	e59f02f0 	ldr	r0, [pc, #752]	; 100468 <finished+0x24>
	ldr	r1,=SLCRlockKey	        	/* set lock key */
  100174:	e59f12f0 	ldr	r1, [pc, #752]	; 10046c <finished+0x28>
	str	r1, [r0]	        	/* lock SLCR */
  100178:	e5801000 	str	r1, [r0]

0010017c <OKToRun>:
	        wfe
	b	EndlessLoop1
#endif

OKToRun:
	mrc     p15, 0, r0, c0, c0, 0		/* Get the revision */
  10017c:	ee100f10 	mrc	15, 0, r0, cr0, cr0, {0}
	and     r5, r0, #0x00f00000
  100180:	e200560f 	and	r5, r0, #15728640	; 0xf00000
	and     r6, r0, #0x0000000f
  100184:	e200600f 	and	r6, r0, #15
	orr     r6, r6, r5, lsr #20-4
  100188:	e1866825 	orr	r6, r6, r5, lsr #16

#ifdef CONFIG_ARM_ERRATA_742230
        cmp     r6, #0x22                       /* only present up to r2p2 */
  10018c:	e3560022 	cmp	r6, #34	; 0x22
        mrcle   p15, 0, r10, c15, c0, 1         /* read diagnostic register */
  100190:	de1faf30 	mrcle	15, 0, sl, cr15, cr0, {1}
        orrle   r10, r10, #1 << 4               /* set bit #4 */
  100194:	d38aa010 	orrle	sl, sl, #16
        mcrle   p15, 0, r10, c15, c0, 1         /* write diagnostic register */
  100198:	de0faf30 	mcrle	15, 0, sl, cr15, cr0, {1}
#endif

#ifdef CONFIG_ARM_ERRATA_743622
	teq     r5, #0x00200000                 /* only present in r2p* */
  10019c:	e3350602 	teq	r5, #2097152	; 0x200000
	mrceq   p15, 0, r10, c15, c0, 1         /* read diagnostic register */
  1001a0:	0e1faf30 	mrceq	15, 0, sl, cr15, cr0, {1}
	orreq   r10, r10, #1 << 6               /* set bit #6 */
  1001a4:	038aa040 	orreq	sl, sl, #64	; 0x40
	mcreq   p15, 0, r10, c15, c0, 1         /* write diagnostic register */
  1001a8:	0e0faf30 	mcreq	15, 0, sl, cr15, cr0, {1}
#endif

	/* set VBAR to the _vector_table address in linker script */
	ldr	r0, =vector_base
  1001ac:	e59f02bc 	ldr	r0, [pc, #700]	; 100470 <finished+0x2c>
	mcr	p15, 0, r0, c12, c0, 0
  1001b0:	ee0c0f10 	mcr	15, 0, r0, cr12, cr0, {0}

	/*invalidate scu*/
	ldr	r7, =0xf8f0000c
  1001b4:	e59f72b8 	ldr	r7, [pc, #696]	; 100474 <finished+0x30>
	ldr	r6, =0xffff
  1001b8:	e59f62b8 	ldr	r6, [pc, #696]	; 100478 <finished+0x34>
	str	r6, [r7]
  1001bc:	e5876000 	str	r6, [r7]

	/* Invalidate caches and TLBs */
	mov	r0,#0				/* r0 = 0  */
  1001c0:	e3a00000 	mov	r0, #0
	mcr	p15, 0, r0, c8, c7, 0		/* invalidate TLBs */
  1001c4:	ee080f17 	mcr	15, 0, r0, cr8, cr7, {0}
	mcr	p15, 0, r0, c7, c5, 0		/* invalidate icache */
  1001c8:	ee070f15 	mcr	15, 0, r0, cr7, cr5, {0}
	mcr	p15, 0, r0, c7, c5, 6		/* Invalidate branch predictor array */
  1001cc:	ee070fd5 	mcr	15, 0, r0, cr7, cr5, {6}
	bl	invalidate_dcache		/* invalidate dcache */
  1001d0:	eb00007c 	bl	1003c8 <invalidate_dcache>

	/* Disable MMU, if enabled */
	mrc	p15, 0, r0, c1, c0, 0		/* read CP15 register 1 */
  1001d4:	ee110f10 	mrc	15, 0, r0, cr1, cr0, {0}
	bic	r0, r0, #0x1			/* clear bit 0 */
  1001d8:	e3c00001 	bic	r0, r0, #1
	mcr	p15, 0, r0, c1, c0, 0		/* write value back */
  1001dc:	ee010f10 	mcr	15, 0, r0, cr1, cr0, {0}
	add	r2, r2, #0x100000		/* next section */
	subs	r3, r3, #1
	bge	shareable_loop			/* loop till 1G is covered */
#endif

	mrs	r0, cpsr			/* get the current PSR */
  1001e0:	e10f0000 	mrs	r0, CPSR
	mvn	r1, #0x1f			/* set up the irq stack pointer */
  1001e4:	e3e0101f 	mvn	r1, #31
	and	r2, r1, r0
  1001e8:	e0012000 	and	r2, r1, r0
	orr	r2, r2, #0x12			/* IRQ mode */
  1001ec:	e3822012 	orr	r2, r2, #18
	msr	cpsr, r2
  1001f0:	e129f002 	msr	CPSR_fc, r2
	ldr	r13,=IRQ_stack			/* IRQ stack pointer */
  1001f4:	e59fd280 	ldr	sp, [pc, #640]	; 10047c <finished+0x38>
	bic r2, r2, #(0x1 << 9)    		 /* Set EE bit to little-endian */
  1001f8:	e3c22c02 	bic	r2, r2, #512	; 0x200
	msr spsr_fsxc,r2
  1001fc:	e16ff002 	msr	SPSR_fsxc, r2

	mrs	r0, cpsr			/* get the current PSR */
  100200:	e10f0000 	mrs	r0, CPSR
	mvn	r1, #0x1f			/* set up the supervisor stack pointer */
  100204:	e3e0101f 	mvn	r1, #31
	and	r2, r1, r0
  100208:	e0012000 	and	r2, r1, r0
	orr	r2, r2, #0x13			/* supervisor mode */
  10020c:	e3822013 	orr	r2, r2, #19
	msr	cpsr, r2
  100210:	e129f002 	msr	CPSR_fc, r2
	ldr	r13,=SPV_stack			/* Supervisor stack pointer */
  100214:	e59fd264 	ldr	sp, [pc, #612]	; 100480 <finished+0x3c>
	bic r2, r2, #(0x1 << 9)     		/* Set EE bit to little-endian */
  100218:	e3c22c02 	bic	r2, r2, #512	; 0x200
	msr spsr_fsxc,r2
  10021c:	e16ff002 	msr	SPSR_fsxc, r2

	mrs	r0, cpsr			/* get the current PSR */
  100220:	e10f0000 	mrs	r0, CPSR
	mvn	r1, #0x1f			/* set up the Abort  stack pointer */
  100224:	e3e0101f 	mvn	r1, #31
	and	r2, r1, r0
  100228:	e0012000 	and	r2, r1, r0
	orr	r2, r2, #0x17			/* Abort mode */
  10022c:	e3822017 	orr	r2, r2, #23
	msr	cpsr, r2
  100230:	e129f002 	msr	CPSR_fc, r2
	ldr	r13,=Abort_stack		/* Abort stack pointer */
  100234:	e59fd248 	ldr	sp, [pc, #584]	; 100484 <finished+0x40>
	bic r2, r2, #(0x1 << 9)     		/* Set EE bit to little-endian */
  100238:	e3c22c02 	bic	r2, r2, #512	; 0x200
	msr spsr_fsxc,r2
  10023c:	e16ff002 	msr	SPSR_fsxc, r2

	mrs	r0, cpsr			/* get the current PSR */
  100240:	e10f0000 	mrs	r0, CPSR
	mvn	r1, #0x1f			/* set up the FIQ stack pointer */
  100244:	e3e0101f 	mvn	r1, #31
	and	r2, r1, r0
  100248:	e0012000 	and	r2, r1, r0
	orr	r2, r2, #0x11			/* FIQ mode */
  10024c:	e3822011 	orr	r2, r2, #17
	msr	cpsr, r2
  100250:	e129f002 	msr	CPSR_fc, r2
	ldr	r13,=FIQ_stack			/* FIQ stack pointer */
  100254:	e59fd22c 	ldr	sp, [pc, #556]	; 100488 <finished+0x44>
	bic r2, r2, #(0x1 << 9)    		/* Set EE bit to little-endian */
  100258:	e3c22c02 	bic	r2, r2, #512	; 0x200
	msr spsr_fsxc,r2
  10025c:	e16ff002 	msr	SPSR_fsxc, r2

	mrs	r0, cpsr			/* get the current PSR */
  100260:	e10f0000 	mrs	r0, CPSR
	mvn	r1, #0x1f			/* set up the Undefine stack pointer */
  100264:	e3e0101f 	mvn	r1, #31
	and	r2, r1, r0
  100268:	e0012000 	and	r2, r1, r0
	orr	r2, r2, #0x1b			/* Undefine mode */
  10026c:	e382201b 	orr	r2, r2, #27
	msr	cpsr, r2
  100270:	e129f002 	msr	CPSR_fc, r2
	ldr	r13,=Undef_stack		/* Undefine stack pointer */
  100274:	e59fd210 	ldr	sp, [pc, #528]	; 10048c <finished+0x48>
	bic r2, r2, #(0x1 << 9)     		/* Set EE bit to little-endian */
  100278:	e3c22c02 	bic	r2, r2, #512	; 0x200
	msr spsr_fsxc,r2
  10027c:	e16ff002 	msr	SPSR_fsxc, r2

	mrs	r0, cpsr			/* get the current PSR */
  100280:	e10f0000 	mrs	r0, CPSR
	mvn	r1, #0x1f			/* set up the system stack pointer */
  100284:	e3e0101f 	mvn	r1, #31
	and	r2, r1, r0
  100288:	e0012000 	and	r2, r1, r0
	orr	r2, r2, #0x1F			/* SYS mode */
  10028c:	e382201f 	orr	r2, r2, #31
	msr	cpsr, r2
  100290:	e129f002 	msr	CPSR_fc, r2
	ldr	r13,=SYS_stack			/* SYS stack pointer */
  100294:	e59fd1f4 	ldr	sp, [pc, #500]	; 100490 <finished+0x4c>

	/*set scu enable bit in scu*/
	ldr	r7, =0xf8f00000
  100298:	e59f71f4 	ldr	r7, [pc, #500]	; 100494 <finished+0x50>
	ldr	r0, [r7]
  10029c:	e5970000 	ldr	r0, [r7]
	orr	r0, r0, #0x1
  1002a0:	e3800001 	orr	r0, r0, #1
	str	r0, [r7]
  1002a4:	e5870000 	str	r0, [r7]

	/* enable MMU and cache */

	ldr	r0,=TblBase			/* Load MMU translation table base */
  1002a8:	e59f01e8 	ldr	r0, [pc, #488]	; 100498 <finished+0x54>
	orr	r0, r0, #0x5B			/* Outer-cacheable, WB */
  1002ac:	e380005b 	orr	r0, r0, #91	; 0x5b
	mcr	15, 0, r0, c2, c0, 0		/* TTB0 */
  1002b0:	ee020f10 	mcr	15, 0, r0, cr2, cr0, {0}

	mvn	r0,#0				/* Load MMU domains -- all ones=manager */
  1002b4:	e3e00000 	mvn	r0, #0
	mcr	p15,0,r0,c3,c0,0
  1002b8:	ee030f10 	mcr	15, 0, r0, cr3, cr0, {0}

	/* Enable mmu, icahce and dcache */
	ldr	r0,=CRValMmuCac
  1002bc:	e59f01d8 	ldr	r0, [pc, #472]	; 10049c <finished+0x58>
	mcr	p15,0,r0,c1,c0,0		/* Enable cache and MMU */
  1002c0:	ee010f10 	mcr	15, 0, r0, cr1, cr0, {0}
	dsb					/* dsb	allow the MMU to start up */
  1002c4:	f57ff04f 	dsb	sy
	isb					/* isb	flush prefetch buffer */
  1002c8:	f57ff06f 	isb	sy

	/* Write to ACTLR */
	mrc	p15, 0, r0, c1, c0, 1		/* Read ACTLR*/
  1002cc:	ee110f30 	mrc	15, 0, r0, cr1, cr0, {1}
	orr	r0, r0, #(0x01 << 6)		/* set SMP bit */
  1002d0:	e3800040 	orr	r0, r0, #64	; 0x40
	orr	r0, r0, #(0x01 )		/* Cache/TLB maintenance broadcast */
  1002d4:	e3800001 	orr	r0, r0, #1
	mcr	p15, 0, r0, c1, c0, 1		/* Write ACTLR*/
  1002d8:	ee010f30 	mcr	15, 0, r0, cr1, cr0, {1}

/* Invalidate L2 Cache and enable L2 Cache*/
/* For AMP, assume running on CPU1. Don't initialize L2 Cache (up to Linux) */
#if USE_AMP!=1
	ldr	r0,=L2CCCrtl			/* Load L2CC base address base + control register */
  1002dc:	e59f01bc 	ldr	r0, [pc, #444]	; 1004a0 <finished+0x5c>
	mov	r1, #0				/* force the disable bit */
  1002e0:	e3a01000 	mov	r1, #0
	str	r1, [r0]			/* disable the L2 Caches */
  1002e4:	e5801000 	str	r1, [r0]

	ldr	r0,=L2CCAuxCrtl			/* Load L2CC base address base + Aux control register */
  1002e8:	e59f01b4 	ldr	r0, [pc, #436]	; 1004a4 <finished+0x60>
	ldr	r1,[r0]				/* read the register */
  1002ec:	e5901000 	ldr	r1, [r0]
	ldr	r2,=L2CCAuxControl		/* set the default bits */
  1002f0:	e59f21b0 	ldr	r2, [pc, #432]	; 1004a8 <finished+0x64>
	orr	r1,r1,r2
  1002f4:	e1811002 	orr	r1, r1, r2
	str	r1, [r0]			/* store the Aux Control Register */
  1002f8:	e5801000 	str	r1, [r0]

	ldr	r0,=L2CCTAGLatReg		/* Load L2CC base address base + TAG Latency address */
  1002fc:	e59f01a8 	ldr	r0, [pc, #424]	; 1004ac <finished+0x68>
	ldr	r1,=L2CCTAGLatency		/* set the latencies for the TAG*/
  100300:	e59f11a8 	ldr	r1, [pc, #424]	; 1004b0 <finished+0x6c>
	str	r1, [r0]			/* store the TAG Latency register Register */
  100304:	e5801000 	str	r1, [r0]

	ldr	r0,=L2CCDataLatReg		/* Load L2CC base address base + Data Latency address */
  100308:	e59f01a4 	ldr	r0, [pc, #420]	; 1004b4 <finished+0x70>
	ldr	r1,=L2CCDataLatency		/* set the latencies for the Data*/
  10030c:	e59f11a4 	ldr	r1, [pc, #420]	; 1004b8 <finished+0x74>
	str	r1, [r0]			/* store the Data Latency register Register */
  100310:	e5801000 	str	r1, [r0]

	ldr	r0,=L2CCWay			/* Load L2CC base address base + way register*/
  100314:	e59f01a0 	ldr	r0, [pc, #416]	; 1004bc <finished+0x78>
	ldr	r2, =0xFFFF
  100318:	e59f2158 	ldr	r2, [pc, #344]	; 100478 <finished+0x34>
	str	r2, [r0]			/* force invalidate */
  10031c:	e5802000 	str	r2, [r0]

	ldr	r0,=L2CCSync			/* need to poll 0x730, PSS_L2CC_CACHE_SYNC_OFFSET */
  100320:	e59f0198 	ldr	r0, [pc, #408]	; 1004c0 <finished+0x7c>

00100324 <Sync>:
						/* Load L2CC base address base + sync register*/
	/* poll for completion */
Sync:	ldr	r1, [r0]
  100324:	e5901000 	ldr	r1, [r0]
	cmp	r1, #0
  100328:	e3510000 	cmp	r1, #0
	bne	Sync
  10032c:	1afffffc 	bne	100324 <Sync>

	ldr	r0,=L2CCIntRaw			/* clear pending interrupts */
  100330:	e59f018c 	ldr	r0, [pc, #396]	; 1004c4 <finished+0x80>
	ldr	r1,[r0]
  100334:	e5901000 	ldr	r1, [r0]
	ldr	r0,=L2CCIntClear
  100338:	e59f0188 	ldr	r0, [pc, #392]	; 1004c8 <finished+0x84>
	str	r1,[r0]
  10033c:	e5801000 	str	r1, [r0]

	ldr	r0,=SLCRUnlockReg		/* Load SLCR base address base + unlock register */
  100340:	e59f0114 	ldr	r0, [pc, #276]	; 10045c <finished+0x18>
	ldr	r1,=SLCRUnlockKey	    	/* set unlock key */
  100344:	e59f1114 	ldr	r1, [pc, #276]	; 100460 <finished+0x1c>
	str	r1, [r0]		    	/* Unlock SLCR */
  100348:	e5801000 	str	r1, [r0]

	ldr	r0,=SLCRL2cRamReg		/* Load SLCR base address base + l2c Ram Control register */
  10034c:	e59f0178 	ldr	r0, [pc, #376]	; 1004cc <finished+0x88>
	ldr	r1,=SLCRL2cRamConfig        	/* set the configuration value */
  100350:	e59f1178 	ldr	r1, [pc, #376]	; 1004d0 <finished+0x8c>
	str	r1, [r0]	        	/* store the L2c Ram Control Register */
  100354:	e5801000 	str	r1, [r0]

	ldr	r0,=SLCRlockReg         	/* Load SLCR base address base + lock register */
  100358:	e59f0108 	ldr	r0, [pc, #264]	; 100468 <finished+0x24>
	ldr	r1,=SLCRlockKey	        	/* set lock key */
  10035c:	e59f1108 	ldr	r1, [pc, #264]	; 10046c <finished+0x28>
	str	r1, [r0]	        	/* lock SLCR */
  100360:	e5801000 	str	r1, [r0]

	ldr	r0,=L2CCCrtl			/* Load L2CC base address base + control register */
  100364:	e59f0134 	ldr	r0, [pc, #308]	; 1004a0 <finished+0x5c>
	ldr	r1,[r0]				/* read the register */
  100368:	e5901000 	ldr	r1, [r0]
	mov	r2, #L2CCControl		/* set the enable bit */
  10036c:	e3a02001 	mov	r2, #1
	orr	r1,r1,r2
  100370:	e1811002 	orr	r1, r1, r2
	str	r1, [r0]			/* enable the L2 Caches */
  100374:	e5801000 	str	r1, [r0]
#endif

	mov	r0, r0
  100378:	e1a00000 	nop			; (mov r0, r0)
	mrc	p15, 0, r1, c1, c0, 2		/* read cp access control register (CACR) into r1 */
  10037c:	ee111f50 	mrc	15, 0, r1, cr1, cr0, {2}
	orr	r1, r1, #(0xf << 20)		/* enable full access for p10 & p11 */
  100380:	e381160f 	orr	r1, r1, #15728640	; 0xf00000
	mcr	p15, 0, r1, c1, c0, 2		/* write back into CACR */
  100384:	ee011f50 	mcr	15, 0, r1, cr1, cr0, {2}

	/* enable vfp */
	fmrx	r1, FPEXC			/* read the exception register */
  100388:	eef81a10 	vmrs	r1, fpexc
	orr	r1,r1, #FPEXC_EN		/* set VFP enable bit, leave the others in orig state */
  10038c:	e3811101 	orr	r1, r1, #1073741824	; 0x40000000
	fmxr	FPEXC, r1			/* write back the exception register */
  100390:	eee81a10 	vmsr	fpexc, r1

	mrc	p15,0,r0,c1,c0,0		/* flow prediction enable */
  100394:	ee110f10 	mrc	15, 0, r0, cr1, cr0, {0}
	orr	r0, r0, #(0x01 << 11)		/* #0x8000 */
  100398:	e3800b02 	orr	r0, r0, #2048	; 0x800
	mcr	p15,0,r0,c1,c0,0
  10039c:	ee010f10 	mcr	15, 0, r0, cr1, cr0, {0}

	mrc	p15,0,r0,c1,c0,1		/* read Auxiliary Control Register */
  1003a0:	ee110f30 	mrc	15, 0, r0, cr1, cr0, {1}
	orr	r0, r0, #(0x1 << 2)		/* enable Dside prefetch */
  1003a4:	e3800004 	orr	r0, r0, #4
	orr	r0, r0, #(0x1 << 1)		/* enable L2 Prefetch hint */
  1003a8:	e3800002 	orr	r0, r0, #2
	mcr	p15,0,r0,c1,c0,1		/* write Auxiliary Control Register */
  1003ac:	ee010f30 	mcr	15, 0, r0, cr1, cr0, {1}

	mrs	r0, cpsr			/* get the current PSR */
  1003b0:	e10f0000 	mrs	r0, CPSR
	bic	r0, r0, #0x100			/* enable asynchronous abort exception */
  1003b4:	e3c00c01 	bic	r0, r0, #256	; 0x100
	msr	cpsr_xsf, r0
  1003b8:	e12ef000 	msr	CPSR_fsx, r0


	b	_start				/* jump to C startup code */
  1003bc:	ea0001ee 	b	100b7c <_start>
	and	r0, r0, r0			/* no op */
  1003c0:	e0000000 	and	r0, r0, r0

.Ldone:	b	.Ldone				/* Paranoia: we should never get here */
  1003c4:	eafffffe 	b	1003c4 <Sync+0xa0>

001003c8 <invalidate_dcache>:
 * the whole D-cache. Need to invalidate each line.
 *
 *************************************************************************
 */
invalidate_dcache:
	mrc	p15, 1, r0, c0, c0, 1		/* read CLIDR */
  1003c8:	ee300f30 	mrc	15, 1, r0, cr0, cr0, {1}
	ands	r3, r0, #0x7000000
  1003cc:	e2103407 	ands	r3, r0, #117440512	; 0x7000000
	mov	r3, r3, lsr #23			/* cache level value (naturally aligned) */
  1003d0:	e1a03ba3 	lsr	r3, r3, #23
	beq	finished
  1003d4:	0a00001a 	beq	100444 <finished>
	mov	r10, #0				/* start with level 0 */
  1003d8:	e3a0a000 	mov	sl, #0

001003dc <loop1>:
loop1:
	add	r2, r10, r10, lsr #1		/* work out 3xcachelevel */
  1003dc:	e08a20aa 	add	r2, sl, sl, lsr #1
	mov	r1, r0, lsr r2			/* bottom 3 bits are the Cache type for this level */
  1003e0:	e1a01230 	lsr	r1, r0, r2
	and	r1, r1, #7			/* get those 3 bits alone */
  1003e4:	e2011007 	and	r1, r1, #7
	cmp	r1, #2
  1003e8:	e3510002 	cmp	r1, #2
	blt	skip				/* no cache or only instruction cache at this level */
  1003ec:	ba000011 	blt	100438 <skip>
	mcr	p15, 2, r10, c0, c0, 0		/* write the Cache Size selection register */
  1003f0:	ee40af10 	mcr	15, 2, sl, cr0, cr0, {0}
	isb					/* isb to sync the change to the CacheSizeID reg */
  1003f4:	f57ff06f 	isb	sy
	mrc	p15, 1, r1, c0, c0, 0		/* reads current Cache Size ID register */
  1003f8:	ee301f10 	mrc	15, 1, r1, cr0, cr0, {0}
	and	r2, r1, #7			/* extract the line length field */
  1003fc:	e2012007 	and	r2, r1, #7
	add	r2, r2, #4			/* add 4 for the line length offset (log2 16 bytes) */
  100400:	e2822004 	add	r2, r2, #4
	ldr	r4, =0x3ff
  100404:	e59f40c8 	ldr	r4, [pc, #200]	; 1004d4 <finished+0x90>
	ands	r4, r4, r1, lsr #3		/* r4 is the max number on the way size (right aligned) */
  100408:	e01441a1 	ands	r4, r4, r1, lsr #3
	clz	r5, r4				/* r5 is the bit position of the way size increment */
  10040c:	e16f5f14 	clz	r5, r4
	ldr	r7, =0x7fff
  100410:	e59f70c0 	ldr	r7, [pc, #192]	; 1004d8 <finished+0x94>
	ands	r7, r7, r1, lsr #13		/* r7 is the max number of the index size (right aligned) */
  100414:	e01776a1 	ands	r7, r7, r1, lsr #13

00100418 <loop2>:
loop2:
	mov	r9, r4				/* r9 working copy of the max way size (right aligned) */
  100418:	e1a09004 	mov	r9, r4

0010041c <loop3>:
loop3:
	orr	r11, r10, r9, lsl r5		/* factor in the way number and cache number into r11 */
  10041c:	e18ab519 	orr	fp, sl, r9, lsl r5
	orr	r11, r11, r7, lsl r2		/* factor in the index number */
  100420:	e18bb217 	orr	fp, fp, r7, lsl r2
	mcr	p15, 0, r11, c7, c6, 2		/* invalidate by set/way */
  100424:	ee07bf56 	mcr	15, 0, fp, cr7, cr6, {2}
	subs	r9, r9, #1			/* decrement the way number */
  100428:	e2599001 	subs	r9, r9, #1
	bge	loop3
  10042c:	aafffffa 	bge	10041c <loop3>
	subs	r7, r7, #1			/* decrement the index */
  100430:	e2577001 	subs	r7, r7, #1
	bge	loop2
  100434:	aafffff7 	bge	100418 <loop2>

00100438 <skip>:
skip:
	add	r10, r10, #2			/* increment the cache number */
  100438:	e28aa002 	add	sl, sl, #2
	cmp	r3, r10
  10043c:	e153000a 	cmp	r3, sl
	bgt	loop1
  100440:	caffffe5 	bgt	1003dc <loop1>

00100444 <finished>:

finished:
	mov	r10, #0				/* swith back to cache level 0 */
  100444:	e3a0a000 	mov	sl, #0
	mcr	p15, 2, r10, c0, c0, 0		/* select current cache level in cssr */
  100448:	ee40af10 	mcr	15, 2, sl, cr0, cr0, {0}
	dsb
  10044c:	f57ff04f 	dsb	sy
	isb
  100450:	f57ff06f 	isb	sy

	bx	lr
  100454:	e12fff1e 	bx	lr
        ldr r0,=EFUSEStaus
  100458:	f800d010 	.word	0xf800d010
        ldr     r0,=SLCRUnlockReg               /* Load SLCR base address base + unlock register */
  10045c:	f8000008 	.word	0xf8000008
        ldr     r1,=SLCRUnlockKey               /* set unlock key */
  100460:	0000df0d 	.word	0x0000df0d
	ldr r0,=SLCRCPURSTReg
  100464:	f8000244 	.word	0xf8000244
        ldr	r0,=SLCRlockReg         	/* Load SLCR base address base + lock register */
  100468:	f8000004 	.word	0xf8000004
	ldr	r1,=SLCRlockKey	        	/* set lock key */
  10046c:	0000767b 	.word	0x0000767b
	ldr	r0, =vector_base
  100470:	00100000 	.word	0x00100000
	ldr	r7, =0xf8f0000c
  100474:	f8f0000c 	.word	0xf8f0000c
	ldr	r6, =0xffff
  100478:	0000ffff 	.word	0x0000ffff
	ldr	r13,=IRQ_stack			/* IRQ stack pointer */
  10047c:	00168820 	.word	0x00168820
	ldr	r13,=SPV_stack			/* Supervisor stack pointer */
  100480:	00169020 	.word	0x00169020
	ldr	r13,=Abort_stack		/* Abort stack pointer */
  100484:	00169420 	.word	0x00169420
	ldr	r13,=FIQ_stack			/* FIQ stack pointer */
  100488:	00169820 	.word	0x00169820
	ldr	r13,=Undef_stack		/* Undefine stack pointer */
  10048c:	00169c20 	.word	0x00169c20
	ldr	r13,=SYS_stack			/* SYS stack pointer */
  100490:	00168420 	.word	0x00168420
	ldr	r7, =0xf8f00000
  100494:	f8f00000 	.word	0xf8f00000
	ldr	r0,=TblBase			/* Load MMU translation table base */
  100498:	00114000 	.word	0x00114000
	ldr	r0,=CRValMmuCac
  10049c:	00001005 	.word	0x00001005
	ldr	r0,=L2CCCrtl			/* Load L2CC base address base + control register */
  1004a0:	f8f02100 	.word	0xf8f02100
	ldr	r0,=L2CCAuxCrtl			/* Load L2CC base address base + Aux control register */
  1004a4:	f8f02104 	.word	0xf8f02104
	ldr	r2,=L2CCAuxControl		/* set the default bits */
  1004a8:	72360000 	.word	0x72360000
	ldr	r0,=L2CCTAGLatReg		/* Load L2CC base address base + TAG Latency address */
  1004ac:	f8f02108 	.word	0xf8f02108
	ldr	r1,=L2CCTAGLatency		/* set the latencies for the TAG*/
  1004b0:	00000111 	.word	0x00000111
	ldr	r0,=L2CCDataLatReg		/* Load L2CC base address base + Data Latency address */
  1004b4:	f8f0210c 	.word	0xf8f0210c
	ldr	r1,=L2CCDataLatency		/* set the latencies for the Data*/
  1004b8:	00000121 	.word	0x00000121
	ldr	r0,=L2CCWay			/* Load L2CC base address base + way register*/
  1004bc:	f8f0277c 	.word	0xf8f0277c
	ldr	r0,=L2CCSync			/* need to poll 0x730, PSS_L2CC_CACHE_SYNC_OFFSET */
  1004c0:	f8f02730 	.word	0xf8f02730
	ldr	r0,=L2CCIntRaw			/* clear pending interrupts */
  1004c4:	f8f0221c 	.word	0xf8f0221c
	ldr	r0,=L2CCIntClear
  1004c8:	f8f02220 	.word	0xf8f02220
	ldr	r0,=SLCRL2cRamReg		/* Load SLCR base address base + l2c Ram Control register */
  1004cc:	f8000a1c 	.word	0xf8000a1c
	ldr	r1,=SLCRL2cRamConfig        	/* set the configuration value */
  1004d0:	00020202 	.word	0x00020202
	ldr	r4, =0x3ff
  1004d4:	000003ff 	.word	0x000003ff
	ldr	r7, =0x7fff
  1004d8:	00007fff 	.word	0x00007fff

001004dc <deregister_tm_clones>:
  1004dc:	e300010c 	movw	r0, #268	; 0x10c
  1004e0:	e3400011 	movt	r0, #17
  1004e4:	e300310c 	movw	r3, #268	; 0x10c
  1004e8:	e3403011 	movt	r3, #17
  1004ec:	e1530000 	cmp	r3, r0
  1004f0:	012fff1e 	bxeq	lr
  1004f4:	e3003000 	movw	r3, #0
  1004f8:	e3403000 	movt	r3, #0
  1004fc:	e3530000 	cmp	r3, #0
  100500:	012fff1e 	bxeq	lr
  100504:	e12fff13 	bx	r3

00100508 <register_tm_clones>:
  100508:	e300010c 	movw	r0, #268	; 0x10c
  10050c:	e3400011 	movt	r0, #17
  100510:	e300110c 	movw	r1, #268	; 0x10c
  100514:	e3401011 	movt	r1, #17
  100518:	e0411000 	sub	r1, r1, r0
  10051c:	e1a01141 	asr	r1, r1, #2
  100520:	e0811fa1 	add	r1, r1, r1, lsr #31
  100524:	e1b010c1 	asrs	r1, r1, #1
  100528:	012fff1e 	bxeq	lr
  10052c:	e3003000 	movw	r3, #0
  100530:	e3403000 	movt	r3, #0
  100534:	e3530000 	cmp	r3, #0
  100538:	012fff1e 	bxeq	lr
  10053c:	e12fff13 	bx	r3

00100540 <__do_global_dtors_aux>:
  100540:	e92d4010 	push	{r4, lr}
  100544:	e30840e8 	movw	r4, #33000	; 0x80e8
  100548:	e3404011 	movt	r4, #17
  10054c:	e5d43000 	ldrb	r3, [r4]
  100550:	e3530000 	cmp	r3, #0
  100554:	18bd8010 	popne	{r4, pc}
  100558:	ebffffdf 	bl	1004dc <deregister_tm_clones>
  10055c:	e3003000 	movw	r3, #0
  100560:	e3403000 	movt	r3, #0
  100564:	e3530000 	cmp	r3, #0
  100568:	0a000002 	beq	100578 <__do_global_dtors_aux+0x38>
  10056c:	e300010c 	movw	r0, #268	; 0x10c
  100570:	e3400011 	movt	r0, #17
  100574:	e320f000 	nop	{0}
  100578:	e3a03001 	mov	r3, #1
  10057c:	e5c43000 	strb	r3, [r4]
  100580:	e8bd8010 	pop	{r4, pc}

00100584 <frame_dummy>:
  100584:	e3003000 	movw	r3, #0
  100588:	e3403000 	movt	r3, #0
  10058c:	e3530000 	cmp	r3, #0
  100590:	0a000007 	beq	1005b4 <frame_dummy+0x30>
  100594:	e92d4010 	push	{r4, lr}
  100598:	e30810ec 	movw	r1, #33004	; 0x80ec
  10059c:	e300010c 	movw	r0, #268	; 0x10c
  1005a0:	e3401011 	movt	r1, #17
  1005a4:	e3400011 	movt	r0, #17
  1005a8:	e320f000 	nop	{0}
  1005ac:	e8bd4010 	pop	{r4, lr}
  1005b0:	eaffffd4 	b	100508 <register_tm_clones>
  1005b4:	eaffffd3 	b	100508 <register_tm_clones>

001005b8 <check_results(unsigned int*)>:
	printf("All DONE\n");
	return 0;
}

void check_results(unsigned int * output)
{
  1005b8:	e92d40f0 	push	{r4, r5, r6, r7, lr}
  1005bc:	e2401004 	sub	r1, r0, #4
  1005c0:	e24dd801 	sub	sp, sp, #65536	; 0x10000
  1005c4:	e2800cff 	add	r0, r0, #65280	; 0xff00
    char frame_buffer_print[256][256];

    // read result from the 32-bit output buffer
    for (int i = 0, j = 0, n = 0; n < 16384; n ++ )
  1005c8:	e3a03000 	mov	r3, #0
{
  1005cc:	e24dd004 	sub	sp, sp, #4
  1005d0:	e28000fc 	add	r0, r0, #252	; 0xfc
    for (int i = 0, j = 0, n = 0; n < 16384; n ++ )
  1005d4:	e1a0c003 	mov	ip, r3
    {
    	unsigned int temp = output[n];
  1005d8:	e5b12004 	ldr	r2, [r1, #4]!

      frame_buffer_print[i][j++] = (char) (temp & 0x000000ff);
  1005dc:	e08de40c 	add	lr, sp, ip, lsl #8
  1005e0:	e08e4003 	add	r4, lr, r3
  1005e4:	e7ce2003 	strb	r2, [lr, r3]
      frame_buffer_print[i][j++] = (char) ((temp & 0x0000ff00) >> 8);
  1005e8:	e1a05422 	lsr	r5, r2, #8
      frame_buffer_print[i][j++] = (char) ((temp & 0x00ff0000) >> 16);
  1005ec:	e1a06822 	lsr	r6, r2, #16
      frame_buffer_print[i][j++] = (char) ((temp & 0xff000000) >> 24);
  1005f0:	e1a02c22 	lsr	r2, r2, #24
      frame_buffer_print[i][j++] = (char) ((temp & 0x0000ff00) >> 8);
  1005f4:	e5c45001 	strb	r5, [r4, #1]
      frame_buffer_print[i][j++] = (char) ((temp & 0x00ff0000) >> 16);
  1005f8:	e2835003 	add	r5, r3, #3
      frame_buffer_print[i][j++] = (char) ((temp & 0xff000000) >> 24);
  1005fc:	e2833004 	add	r3, r3, #4
      frame_buffer_print[i][j++] = (char) ((temp & 0x00ff0000) >> 16);
  100600:	e5c46002 	strb	r6, [r4, #2]
      if(j == 256)
  100604:	e3530c01 	cmp	r3, #256	; 0x100
      frame_buffer_print[i][j++] = (char) ((temp & 0xff000000) >> 24);
  100608:	e7ce2005 	strb	r2, [lr, r5]
      {
        i++;
  10060c:	028cc001 	addeq	ip, ip, #1
        j = 0;
  100610:	03a03000 	moveq	r3, #0
    for (int i = 0, j = 0, n = 0; n < 16384; n ++ )
  100614:	e1510000 	cmp	r1, r0
  100618:	1affffee 	bne	1005d8 <check_results(unsigned int*)+0x20>
      if (pix!=0)
        printf("1");
      else
        printf("0");
    }
    printf("\n\r");
  10061c:	e59f7050 	ldr	r7, [pc, #80]	; 100674 <check_results(unsigned int*)+0xbc>
  100620:	e28d50ff 	add	r5, sp, #255	; 0xff
  100624:	e24d4001 	sub	r4, sp, #1
  printf("Image After Rendering: \n\r");
  100628:	e59f0048 	ldr	r0, [pc, #72]	; 100678 <check_results(unsigned int*)+0xc0>
  10062c:	eb000928 	bl	102ad4 <printf>
    for (int i = 0; i < 256; i ++ )
  100630:	e3a06000 	mov	r6, #0
      if (pix!=0)
  100634:	e7d53406 	ldrb	r3, [r5, r6, lsl #8]
    for (int i = 0; i < 256; i ++ )
  100638:	e2866001 	add	r6, r6, #1
      if (pix!=0)
  10063c:	e3530000 	cmp	r3, #0
        printf("1");
  100640:	13a00031 	movne	r0, #49	; 0x31
        printf("0");
  100644:	03a00030 	moveq	r0, #48	; 0x30
  100648:	eb000933 	bl	102b1c <putchar>
    for (int i = 0; i < 256; i ++ )
  10064c:	e3560c01 	cmp	r6, #256	; 0x100
  100650:	1afffff7 	bne	100634 <check_results(unsigned int*)+0x7c>
    printf("\n\r");
  100654:	e1a00007 	mov	r0, r7
  100658:	e2455001 	sub	r5, r5, #1
  10065c:	eb00091c 	bl	102ad4 <printf>
  for (int j = 256 - 1; j >= 0; j -- )
  100660:	e1550004 	cmp	r5, r4
  100664:	1afffff1 	bne	100630 <check_results(unsigned int*)+0x78>
  }

}
  100668:	e28dd801 	add	sp, sp, #65536	; 0x10000
  10066c:	e28dd004 	add	sp, sp, #4
  100670:	e8bd80f0 	pop	{r4, r5, r6, r7, pc}
  100674:	0010f538 	.word	0x0010f538
  100678:	0010f521 	.word	0x0010f521

0010067c <stream_inst::print_status() [clone .constprop.0]>:
	Xil_Out32(AXI_REG7, ctrl_reg);
	data = Xil_In32(AXI_REG14);
	return data;
}

void stream_inst::print_status()
  10067c:	e92d4010 	push	{r4, lr}
* @return	The 32 bit Value read from the specified input address.
*
******************************************************************************/
static INLINE u32 Xil_In32(UINTPTR Addr)
{
	return *(volatile u32 *) Addr;
  100680:	e59f4018 	ldr	r4, [pc, #24]	; 1006a0 <stream_inst::print_status() [clone .constprop.0]+0x24>
{
	unsigned data = 0;
	data = Xil_In32(AXI_REG7);
	printf("AXI_REG7=%08x\n", data);
  100684:	e59f0018 	ldr	r0, [pc, #24]	; 1006a4 <stream_inst::print_status() [clone .constprop.0]+0x28>
  100688:	e594101c 	ldr	r1, [r4, #28]
  10068c:	eb000910 	bl	102ad4 <printf>
  100690:	e594103c 	ldr	r1, [r4, #60]	; 0x3c
	data = Xil_In32(AXI_REG15);
	printf("AXI_REG15=%08x\n", data);
  100694:	e59f000c 	ldr	r0, [pc, #12]	; 1006a8 <stream_inst::print_status() [clone .constprop.0]+0x2c>

}
  100698:	e8bd4010 	pop	{r4, lr}
	printf("AXI_REG15=%08x\n", data);
  10069c:	ea00090c 	b	102ad4 <printf>
  1006a0:	43c00000 	.word	0x43c00000
  1006a4:	0010f55c 	.word	0x0010f55c
  1006a8:	0010f56b 	.word	0x0010f56b

001006ac <stream_inst::stream_inst(int, unsigned int)>:
	this->ctrl_reg = CTRL_REG;
  1006ac:	e8800006 	stm	r0, {r1, r2}
}
  1006b0:	e12fff1e 	bx	lr

001006b4 <stream_inst::ap_start()>:
	this->ctrl_reg |= (0x00000001 << 14);
  1006b4:	e5903004 	ldr	r3, [r0, #4]
******************************************************************************/
static INLINE void Xil_Out32(UINTPTR Addr, u32 Value)
{
#ifndef ENABLE_SAFETY
	volatile u32 *LocalAddr = (volatile u32 *)Addr;
	*LocalAddr = Value;
  1006b8:	e59f200c 	ldr	r2, [pc, #12]	; 1006cc <stream_inst::ap_start()+0x18>
  1006bc:	e3833901 	orr	r3, r3, #16384	; 0x4000
  1006c0:	e5803004 	str	r3, [r0, #4]
  1006c4:	e582301c 	str	r3, [r2, #28]
}
  1006c8:	e12fff1e 	bx	lr
  1006cc:	43c00000 	.word	0x43c00000

001006d0 <stream_inst::stream1_write(unsigned int)>:
  1006d0:	e59f303c 	ldr	r3, [pc, #60]	; 100714 <stream_inst::stream1_write(unsigned int)+0x44>
{
  1006d4:	e92d4010 	push	{r4, lr}
  1006d8:	e1a04000 	mov	r4, r0
  1006dc:	e5831000 	str	r1, [r3]
	return *(volatile u32 *) Addr;
  1006e0:	e593303c 	ldr	r3, [r3, #60]	; 0x3c
	this->status_reg = Xil_In32(AXI_REG15);
  1006e4:	e5803000 	str	r3, [r0]
	while(this->status_reg & (0x00000001 << 1)) this->print_status();
  1006e8:	e5943000 	ldr	r3, [r4]
  1006ec:	e3130002 	tst	r3, #2
  1006f0:	0a000001 	beq	1006fc <stream_inst::stream1_write(unsigned int)+0x2c>
  1006f4:	ebffffe0 	bl	10067c <stream_inst::print_status() [clone .constprop.0]>
  1006f8:	eafffffa 	b	1006e8 <stream_inst::stream1_write(unsigned int)+0x18>
	this->ctrl_reg ^= (0x00000001 << 0);
  1006fc:	e5943004 	ldr	r3, [r4, #4]
	*LocalAddr = Value;
  100700:	e59f200c 	ldr	r2, [pc, #12]	; 100714 <stream_inst::stream1_write(unsigned int)+0x44>
  100704:	e2233001 	eor	r3, r3, #1
  100708:	e5843004 	str	r3, [r4, #4]
  10070c:	e582301c 	str	r3, [r2, #28]
}
  100710:	e8bd8010 	pop	{r4, pc}
  100714:	43c00000 	.word	0x43c00000

00100718 <stream_inst::stream2_write(unsigned int)>:
  100718:	e59f303c 	ldr	r3, [pc, #60]	; 10075c <stream_inst::stream2_write(unsigned int)+0x44>
{
  10071c:	e92d4010 	push	{r4, lr}
  100720:	e1a04000 	mov	r4, r0
  100724:	e5831004 	str	r1, [r3, #4]
	return *(volatile u32 *) Addr;
  100728:	e593303c 	ldr	r3, [r3, #60]	; 0x3c
	this->status_reg = Xil_In32(AXI_REG15);
  10072c:	e5803000 	str	r3, [r0]
	while(this->status_reg & (0x00000001 << 3)) this->print_status();
  100730:	e5943000 	ldr	r3, [r4]
  100734:	e3130008 	tst	r3, #8
  100738:	0a000001 	beq	100744 <stream_inst::stream2_write(unsigned int)+0x2c>
  10073c:	ebffffce 	bl	10067c <stream_inst::print_status() [clone .constprop.0]>
  100740:	eafffffa 	b	100730 <stream_inst::stream2_write(unsigned int)+0x18>
	this->ctrl_reg ^= (0x00000001 << 2);
  100744:	e5943004 	ldr	r3, [r4, #4]
	*LocalAddr = Value;
  100748:	e59f200c 	ldr	r2, [pc, #12]	; 10075c <stream_inst::stream2_write(unsigned int)+0x44>
  10074c:	e2233004 	eor	r3, r3, #4
  100750:	e5843004 	str	r3, [r4, #4]
  100754:	e582301c 	str	r3, [r2, #28]
}
  100758:	e8bd8010 	pop	{r4, pc}
  10075c:	43c00000 	.word	0x43c00000

00100760 <stream_inst::stream3_write(unsigned int)>:
  100760:	e59f303c 	ldr	r3, [pc, #60]	; 1007a4 <stream_inst::stream3_write(unsigned int)+0x44>
{
  100764:	e92d4010 	push	{r4, lr}
  100768:	e1a04000 	mov	r4, r0
  10076c:	e5831008 	str	r1, [r3, #8]
	return *(volatile u32 *) Addr;
  100770:	e593303c 	ldr	r3, [r3, #60]	; 0x3c
	this->status_reg = Xil_In32(AXI_REG15);
  100774:	e5803000 	str	r3, [r0]
	while(this->status_reg & (0x00000001 << 5)) this->print_status();
  100778:	e5943000 	ldr	r3, [r4]
  10077c:	e3130020 	tst	r3, #32
  100780:	0a000001 	beq	10078c <stream_inst::stream3_write(unsigned int)+0x2c>
  100784:	ebffffbc 	bl	10067c <stream_inst::print_status() [clone .constprop.0]>
  100788:	eafffffa 	b	100778 <stream_inst::stream3_write(unsigned int)+0x18>
	this->ctrl_reg ^= (0x00000001 << 4);
  10078c:	e5943004 	ldr	r3, [r4, #4]
	*LocalAddr = Value;
  100790:	e59f200c 	ldr	r2, [pc, #12]	; 1007a4 <stream_inst::stream3_write(unsigned int)+0x44>
  100794:	e2233010 	eor	r3, r3, #16
  100798:	e5843004 	str	r3, [r4, #4]
  10079c:	e582301c 	str	r3, [r2, #28]
}
  1007a0:	e8bd8010 	pop	{r4, pc}
  1007a4:	43c00000 	.word	0x43c00000

001007a8 <stream_inst::stream4_write(unsigned int)>:
  1007a8:	e59f303c 	ldr	r3, [pc, #60]	; 1007ec <stream_inst::stream4_write(unsigned int)+0x44>
{
  1007ac:	e92d4010 	push	{r4, lr}
  1007b0:	e1a04000 	mov	r4, r0
  1007b4:	e583100c 	str	r1, [r3, #12]
	return *(volatile u32 *) Addr;
  1007b8:	e593303c 	ldr	r3, [r3, #60]	; 0x3c
	this->status_reg = Xil_In32(AXI_REG15);
  1007bc:	e5803000 	str	r3, [r0]
	while(this->status_reg & (0x00000001 << 7)) this->print_status();
  1007c0:	e5943000 	ldr	r3, [r4]
  1007c4:	e3130080 	tst	r3, #128	; 0x80
  1007c8:	0a000001 	beq	1007d4 <stream_inst::stream4_write(unsigned int)+0x2c>
  1007cc:	ebffffaa 	bl	10067c <stream_inst::print_status() [clone .constprop.0]>
  1007d0:	eafffffa 	b	1007c0 <stream_inst::stream4_write(unsigned int)+0x18>
	this->ctrl_reg ^= (0x00000001 << 6);
  1007d4:	e5943004 	ldr	r3, [r4, #4]
	*LocalAddr = Value;
  1007d8:	e59f200c 	ldr	r2, [pc, #12]	; 1007ec <stream_inst::stream4_write(unsigned int)+0x44>
  1007dc:	e2233040 	eor	r3, r3, #64	; 0x40
  1007e0:	e5843004 	str	r3, [r4, #4]
  1007e4:	e582301c 	str	r3, [r2, #28]
}
  1007e8:	e8bd8010 	pop	{r4, pc}
  1007ec:	43c00000 	.word	0x43c00000

001007f0 <stream_inst::stream5_write(unsigned int)>:
  1007f0:	e59f303c 	ldr	r3, [pc, #60]	; 100834 <stream_inst::stream5_write(unsigned int)+0x44>
{
  1007f4:	e92d4010 	push	{r4, lr}
  1007f8:	e1a04000 	mov	r4, r0
  1007fc:	e5831010 	str	r1, [r3, #16]
	return *(volatile u32 *) Addr;
  100800:	e593303c 	ldr	r3, [r3, #60]	; 0x3c
	this->status_reg = Xil_In32(AXI_REG15);
  100804:	e5803000 	str	r3, [r0]
	while(this->status_reg & (0x00000001 << 9)) this->print_status();
  100808:	e5943000 	ldr	r3, [r4]
  10080c:	e3130c02 	tst	r3, #512	; 0x200
  100810:	0a000001 	beq	10081c <stream_inst::stream5_write(unsigned int)+0x2c>
  100814:	ebffff98 	bl	10067c <stream_inst::print_status() [clone .constprop.0]>
  100818:	eafffffa 	b	100808 <stream_inst::stream5_write(unsigned int)+0x18>
	this->ctrl_reg ^= (0x00000001 << 8);
  10081c:	e5943004 	ldr	r3, [r4, #4]
	*LocalAddr = Value;
  100820:	e59f200c 	ldr	r2, [pc, #12]	; 100834 <stream_inst::stream5_write(unsigned int)+0x44>
  100824:	e2233c01 	eor	r3, r3, #256	; 0x100
  100828:	e5843004 	str	r3, [r4, #4]
  10082c:	e582301c 	str	r3, [r2, #28]
}
  100830:	e8bd8010 	pop	{r4, pc}
  100834:	43c00000 	.word	0x43c00000

00100838 <stream_inst::stream6_write(unsigned int)>:
  100838:	e59f303c 	ldr	r3, [pc, #60]	; 10087c <stream_inst::stream6_write(unsigned int)+0x44>
{
  10083c:	e92d4010 	push	{r4, lr}
  100840:	e1a04000 	mov	r4, r0
  100844:	e5831014 	str	r1, [r3, #20]
	return *(volatile u32 *) Addr;
  100848:	e593303c 	ldr	r3, [r3, #60]	; 0x3c
	this->status_reg = Xil_In32(AXI_REG15);
  10084c:	e5803000 	str	r3, [r0]
	while(this->status_reg & (0x00000001 << 11)) this->print_status();
  100850:	e5943000 	ldr	r3, [r4]
  100854:	e3130b02 	tst	r3, #2048	; 0x800
  100858:	0a000001 	beq	100864 <stream_inst::stream6_write(unsigned int)+0x2c>
  10085c:	ebffff86 	bl	10067c <stream_inst::print_status() [clone .constprop.0]>
  100860:	eafffffa 	b	100850 <stream_inst::stream6_write(unsigned int)+0x18>
	this->ctrl_reg ^= (0x00000001 << 10);
  100864:	e5943004 	ldr	r3, [r4, #4]
	*LocalAddr = Value;
  100868:	e59f200c 	ldr	r2, [pc, #12]	; 10087c <stream_inst::stream6_write(unsigned int)+0x44>
  10086c:	e2233b01 	eor	r3, r3, #1024	; 0x400
  100870:	e5843004 	str	r3, [r4, #4]
  100874:	e582301c 	str	r3, [r2, #28]
}
  100878:	e8bd8010 	pop	{r4, pc}
  10087c:	43c00000 	.word	0x43c00000

00100880 <stream_inst::stream7_write(unsigned int)>:
  100880:	e59f303c 	ldr	r3, [pc, #60]	; 1008c4 <stream_inst::stream7_write(unsigned int)+0x44>
{
  100884:	e92d4010 	push	{r4, lr}
  100888:	e1a04000 	mov	r4, r0
  10088c:	e5831018 	str	r1, [r3, #24]
	return *(volatile u32 *) Addr;
  100890:	e593303c 	ldr	r3, [r3, #60]	; 0x3c
	this->status_reg = Xil_In32(AXI_REG15);
  100894:	e5803000 	str	r3, [r0]
	while(this->status_reg & (0x00000001 << 13)) this->print_status();
  100898:	e5943000 	ldr	r3, [r4]
  10089c:	e3130a02 	tst	r3, #8192	; 0x2000
  1008a0:	0a000001 	beq	1008ac <stream_inst::stream7_write(unsigned int)+0x2c>
  1008a4:	ebffff74 	bl	10067c <stream_inst::print_status() [clone .constprop.0]>
  1008a8:	eafffffa 	b	100898 <stream_inst::stream7_write(unsigned int)+0x18>
	this->ctrl_reg ^= (0x00000001 << 12);
  1008ac:	e5943004 	ldr	r3, [r4, #4]
	*LocalAddr = Value;
  1008b0:	e59f200c 	ldr	r2, [pc, #12]	; 1008c4 <stream_inst::stream7_write(unsigned int)+0x44>
  1008b4:	e2233a01 	eor	r3, r3, #4096	; 0x1000
  1008b8:	e5843004 	str	r3, [r4, #4]
  1008bc:	e582301c 	str	r3, [r2, #28]
}
  1008c0:	e8bd8010 	pop	{r4, pc}
  1008c4:	43c00000 	.word	0x43c00000

001008c8 <stream_inst::stream1_read()>:
	return *(volatile u32 *) Addr;
  1008c8:	e59f303c 	ldr	r3, [pc, #60]	; 10090c <stream_inst::stream1_read()+0x44>
{
  1008cc:	e92d4010 	push	{r4, lr}
  1008d0:	e1a04000 	mov	r4, r0
  1008d4:	e593303c 	ldr	r3, [r3, #60]	; 0x3c
	this->status_reg = Xil_In32(AXI_REG15);
  1008d8:	e5803000 	str	r3, [r0]
	while(this->status_reg & (0x00000001 << 0)) this->print_status();
  1008dc:	e5943000 	ldr	r3, [r4]
  1008e0:	e3130001 	tst	r3, #1
  1008e4:	0a000001 	beq	1008f0 <stream_inst::stream1_read()+0x28>
  1008e8:	ebffff63 	bl	10067c <stream_inst::print_status() [clone .constprop.0]>
  1008ec:	eafffffa 	b	1008dc <stream_inst::stream1_read()+0x14>
	this->ctrl_reg ^= (0x00000001 << 1);
  1008f0:	e5943004 	ldr	r3, [r4, #4]
	*LocalAddr = Value;
  1008f4:	e59f2010 	ldr	r2, [pc, #16]	; 10090c <stream_inst::stream1_read()+0x44>
  1008f8:	e2233002 	eor	r3, r3, #2
  1008fc:	e5843004 	str	r3, [r4, #4]
  100900:	e582301c 	str	r3, [r2, #28]
	return *(volatile u32 *) Addr;
  100904:	e5920020 	ldr	r0, [r2, #32]
}
  100908:	e8bd8010 	pop	{r4, pc}
  10090c:	43c00000 	.word	0x43c00000

00100910 <stream_inst::stream2_read()>:
  100910:	e59f303c 	ldr	r3, [pc, #60]	; 100954 <stream_inst::stream2_read()+0x44>
{
  100914:	e92d4010 	push	{r4, lr}
  100918:	e1a04000 	mov	r4, r0
  10091c:	e593303c 	ldr	r3, [r3, #60]	; 0x3c
	this->status_reg = Xil_In32(AXI_REG15);
  100920:	e5803000 	str	r3, [r0]
	while(this->status_reg & (0x00000001 << 2)) this->print_status();
  100924:	e5943000 	ldr	r3, [r4]
  100928:	e3130004 	tst	r3, #4
  10092c:	0a000001 	beq	100938 <stream_inst::stream2_read()+0x28>
  100930:	ebffff51 	bl	10067c <stream_inst::print_status() [clone .constprop.0]>
  100934:	eafffffa 	b	100924 <stream_inst::stream2_read()+0x14>
	this->ctrl_reg ^= (0x00000001 << 3);
  100938:	e5943004 	ldr	r3, [r4, #4]
	*LocalAddr = Value;
  10093c:	e59f2010 	ldr	r2, [pc, #16]	; 100954 <stream_inst::stream2_read()+0x44>
  100940:	e2233008 	eor	r3, r3, #8
  100944:	e5843004 	str	r3, [r4, #4]
  100948:	e582301c 	str	r3, [r2, #28]
	return *(volatile u32 *) Addr;
  10094c:	e5920024 	ldr	r0, [r2, #36]	; 0x24
}
  100950:	e8bd8010 	pop	{r4, pc}
  100954:	43c00000 	.word	0x43c00000

00100958 <stream_inst::stream3_read()>:
  100958:	e59f303c 	ldr	r3, [pc, #60]	; 10099c <stream_inst::stream3_read()+0x44>
{
  10095c:	e92d4010 	push	{r4, lr}
  100960:	e1a04000 	mov	r4, r0
  100964:	e593303c 	ldr	r3, [r3, #60]	; 0x3c
	this->status_reg = Xil_In32(AXI_REG15);
  100968:	e5803000 	str	r3, [r0]
	while(this->status_reg & (0x00000001 << 4)) this->print_status();
  10096c:	e5943000 	ldr	r3, [r4]
  100970:	e3130010 	tst	r3, #16
  100974:	0a000001 	beq	100980 <stream_inst::stream3_read()+0x28>
  100978:	ebffff3f 	bl	10067c <stream_inst::print_status() [clone .constprop.0]>
  10097c:	eafffffa 	b	10096c <stream_inst::stream3_read()+0x14>
	this->ctrl_reg ^= (0x00000001 << 5);
  100980:	e5943004 	ldr	r3, [r4, #4]
	*LocalAddr = Value;
  100984:	e59f2010 	ldr	r2, [pc, #16]	; 10099c <stream_inst::stream3_read()+0x44>
  100988:	e2233020 	eor	r3, r3, #32
  10098c:	e5843004 	str	r3, [r4, #4]
  100990:	e582301c 	str	r3, [r2, #28]
	return *(volatile u32 *) Addr;
  100994:	e5920028 	ldr	r0, [r2, #40]	; 0x28
}
  100998:	e8bd8010 	pop	{r4, pc}
  10099c:	43c00000 	.word	0x43c00000

001009a0 <stream_inst::stream4_read()>:
  1009a0:	e59f303c 	ldr	r3, [pc, #60]	; 1009e4 <stream_inst::stream4_read()+0x44>
{
  1009a4:	e92d4010 	push	{r4, lr}
  1009a8:	e1a04000 	mov	r4, r0
  1009ac:	e593303c 	ldr	r3, [r3, #60]	; 0x3c
	this->status_reg = Xil_In32(AXI_REG15);
  1009b0:	e5803000 	str	r3, [r0]
	while(this->status_reg & (0x00000001 << 6)) this->print_status();
  1009b4:	e5943000 	ldr	r3, [r4]
  1009b8:	e3130040 	tst	r3, #64	; 0x40
  1009bc:	0a000001 	beq	1009c8 <stream_inst::stream4_read()+0x28>
  1009c0:	ebffff2d 	bl	10067c <stream_inst::print_status() [clone .constprop.0]>
  1009c4:	eafffffa 	b	1009b4 <stream_inst::stream4_read()+0x14>
	this->ctrl_reg ^= (0x00000001 << 7);
  1009c8:	e5943004 	ldr	r3, [r4, #4]
	*LocalAddr = Value;
  1009cc:	e59f2010 	ldr	r2, [pc, #16]	; 1009e4 <stream_inst::stream4_read()+0x44>
  1009d0:	e2233080 	eor	r3, r3, #128	; 0x80
  1009d4:	e5843004 	str	r3, [r4, #4]
  1009d8:	e582301c 	str	r3, [r2, #28]
	return *(volatile u32 *) Addr;
  1009dc:	e592002c 	ldr	r0, [r2, #44]	; 0x2c
}
  1009e0:	e8bd8010 	pop	{r4, pc}
  1009e4:	43c00000 	.word	0x43c00000

001009e8 <stream_inst::stream5_read()>:
  1009e8:	e59f303c 	ldr	r3, [pc, #60]	; 100a2c <stream_inst::stream5_read()+0x44>
{
  1009ec:	e92d4010 	push	{r4, lr}
  1009f0:	e1a04000 	mov	r4, r0
  1009f4:	e593303c 	ldr	r3, [r3, #60]	; 0x3c
	this->status_reg = Xil_In32(AXI_REG15);
  1009f8:	e5803000 	str	r3, [r0]
	while(this->status_reg & (0x00000001 << 8)) this->print_status();
  1009fc:	e5943000 	ldr	r3, [r4]
  100a00:	e3130c01 	tst	r3, #256	; 0x100
  100a04:	0a000001 	beq	100a10 <stream_inst::stream5_read()+0x28>
  100a08:	ebffff1b 	bl	10067c <stream_inst::print_status() [clone .constprop.0]>
  100a0c:	eafffffa 	b	1009fc <stream_inst::stream5_read()+0x14>
	this->ctrl_reg ^= (0x00000001 << 9);
  100a10:	e5943004 	ldr	r3, [r4, #4]
	*LocalAddr = Value;
  100a14:	e59f2010 	ldr	r2, [pc, #16]	; 100a2c <stream_inst::stream5_read()+0x44>
  100a18:	e2233c02 	eor	r3, r3, #512	; 0x200
  100a1c:	e5843004 	str	r3, [r4, #4]
  100a20:	e582301c 	str	r3, [r2, #28]
	return *(volatile u32 *) Addr;
  100a24:	e5920030 	ldr	r0, [r2, #48]	; 0x30
}
  100a28:	e8bd8010 	pop	{r4, pc}
  100a2c:	43c00000 	.word	0x43c00000

00100a30 <stream_inst::stream6_read()>:
  100a30:	e59f303c 	ldr	r3, [pc, #60]	; 100a74 <stream_inst::stream6_read()+0x44>
{
  100a34:	e92d4010 	push	{r4, lr}
  100a38:	e1a04000 	mov	r4, r0
  100a3c:	e593303c 	ldr	r3, [r3, #60]	; 0x3c
	this->status_reg = Xil_In32(AXI_REG15);
  100a40:	e5803000 	str	r3, [r0]
	while(this->status_reg & (0x00000001 << 10)) this->print_status();
  100a44:	e5943000 	ldr	r3, [r4]
  100a48:	e3130b01 	tst	r3, #1024	; 0x400
  100a4c:	0a000001 	beq	100a58 <stream_inst::stream6_read()+0x28>
  100a50:	ebffff09 	bl	10067c <stream_inst::print_status() [clone .constprop.0]>
  100a54:	eafffffa 	b	100a44 <stream_inst::stream6_read()+0x14>
	this->ctrl_reg ^= (0x00000001 << 11);
  100a58:	e5943004 	ldr	r3, [r4, #4]
	*LocalAddr = Value;
  100a5c:	e59f2010 	ldr	r2, [pc, #16]	; 100a74 <stream_inst::stream6_read()+0x44>
  100a60:	e2233b02 	eor	r3, r3, #2048	; 0x800
  100a64:	e5843004 	str	r3, [r4, #4]
  100a68:	e582301c 	str	r3, [r2, #28]
	return *(volatile u32 *) Addr;
  100a6c:	e5920034 	ldr	r0, [r2, #52]	; 0x34
}
  100a70:	e8bd8010 	pop	{r4, pc}
  100a74:	43c00000 	.word	0x43c00000

00100a78 <stream_inst::stream7_read()>:
  100a78:	e59f303c 	ldr	r3, [pc, #60]	; 100abc <stream_inst::stream7_read()+0x44>
{
  100a7c:	e92d4010 	push	{r4, lr}
  100a80:	e1a04000 	mov	r4, r0
  100a84:	e593303c 	ldr	r3, [r3, #60]	; 0x3c
	this->status_reg = Xil_In32(AXI_REG15);
  100a88:	e5803000 	str	r3, [r0]
	while(this->status_reg & (0x00000001 << 12)) this->print_status();
  100a8c:	e5943000 	ldr	r3, [r4]
  100a90:	e3130a01 	tst	r3, #4096	; 0x1000
  100a94:	0a000001 	beq	100aa0 <stream_inst::stream7_read()+0x28>
  100a98:	ebfffef7 	bl	10067c <stream_inst::print_status() [clone .constprop.0]>
  100a9c:	eafffffa 	b	100a8c <stream_inst::stream7_read()+0x14>
	this->ctrl_reg ^= (0x00000001 << 13);
  100aa0:	e5943004 	ldr	r3, [r4, #4]
	*LocalAddr = Value;
  100aa4:	e59f2010 	ldr	r2, [pc, #16]	; 100abc <stream_inst::stream7_read()+0x44>
  100aa8:	e2233a02 	eor	r3, r3, #8192	; 0x2000
  100aac:	e5843004 	str	r3, [r4, #4]
  100ab0:	e582301c 	str	r3, [r2, #28]
	return *(volatile u32 *) Addr;
  100ab4:	e5920038 	ldr	r0, [r2, #56]	; 0x38
}
  100ab8:	e8bd8010 	pop	{r4, pc}
  100abc:	43c00000 	.word	0x43c00000

00100ac0 <stream_inst::print_status()>:
{
  100ac0:	e92d4010 	push	{r4, lr}
  100ac4:	e59f4018 	ldr	r4, [pc, #24]	; 100ae4 <stream_inst::print_status()+0x24>
	printf("AXI_REG7=%08x\n", data);
  100ac8:	e59f0018 	ldr	r0, [pc, #24]	; 100ae8 <stream_inst::print_status()+0x28>
  100acc:	e594101c 	ldr	r1, [r4, #28]
  100ad0:	eb0007ff 	bl	102ad4 <printf>
  100ad4:	e594103c 	ldr	r1, [r4, #60]	; 0x3c
	printf("AXI_REG15=%08x\n", data);
  100ad8:	e59f000c 	ldr	r0, [pc, #12]	; 100aec <stream_inst::print_status()+0x2c>
}
  100adc:	e8bd4010 	pop	{r4, lr}
	printf("AXI_REG15=%08x\n", data);
  100ae0:	ea0007fb 	b	102ad4 <printf>
  100ae4:	43c00000 	.word	0x43c00000
  100ae8:	0010f55c 	.word	0x0010f55c
  100aec:	0010f56b 	.word	0x0010f56b

00100af0 <FIQInterrupt>:
* @note		None.
*
******************************************************************************/
void FIQInterrupt(void)
{
	XExc_VectorTable[XIL_EXCEPTION_ID_FIQ_INT].Handler(XExc_VectorTable[
  100af0:	e30f3704 	movw	r3, #63236	; 0xf704
  100af4:	e3403010 	movt	r3, #16
  100af8:	e5932030 	ldr	r2, [r3, #48]	; 0x30
  100afc:	e5930034 	ldr	r0, [r3, #52]	; 0x34
  100b00:	e12fff12 	bx	r2

00100b04 <IRQInterrupt>:
* @note		None.
*
******************************************************************************/
void IRQInterrupt(void)
{
	XExc_VectorTable[XIL_EXCEPTION_ID_IRQ_INT].Handler(XExc_VectorTable[
  100b04:	e30f3704 	movw	r3, #63236	; 0xf704
  100b08:	e3403010 	movt	r3, #16
  100b0c:	e5932028 	ldr	r2, [r3, #40]	; 0x28
  100b10:	e593002c 	ldr	r0, [r3, #44]	; 0x2c
  100b14:	e12fff12 	bx	r2

00100b18 <UndefinedException>:
* @note		None.
*
******************************************************************************/
void UndefinedException(void)
{
	XExc_VectorTable[XIL_EXCEPTION_ID_UNDEFINED_INT].Handler(XExc_VectorTable[
  100b18:	e30f3704 	movw	r3, #63236	; 0xf704
  100b1c:	e3403010 	movt	r3, #16
  100b20:	e5932008 	ldr	r2, [r3, #8]
  100b24:	e593000c 	ldr	r0, [r3, #12]
  100b28:	e12fff12 	bx	r2

00100b2c <SWInterrupt>:
* @note		None.
*
******************************************************************************/
void SWInterrupt(void)
{
	XExc_VectorTable[XIL_EXCEPTION_ID_SWI_INT].Handler(XExc_VectorTable[
  100b2c:	e30f3704 	movw	r3, #63236	; 0xf704
  100b30:	e3403010 	movt	r3, #16
  100b34:	e5932010 	ldr	r2, [r3, #16]
  100b38:	e5930014 	ldr	r0, [r3, #20]
  100b3c:	e12fff12 	bx	r2

00100b40 <DataAbortInterrupt>:
* @note		None.
*
******************************************************************************/
void DataAbortInterrupt(void)
{
	XExc_VectorTable[XIL_EXCEPTION_ID_DATA_ABORT_INT].Handler(
  100b40:	e30f3704 	movw	r3, #63236	; 0xf704
  100b44:	e3403010 	movt	r3, #16
  100b48:	e5932020 	ldr	r2, [r3, #32]
  100b4c:	e5930024 	ldr	r0, [r3, #36]	; 0x24
  100b50:	e12fff12 	bx	r2

00100b54 <PrefetchAbortInterrupt>:
* @note		None.
*
******************************************************************************/
void PrefetchAbortInterrupt(void)
{
	XExc_VectorTable[XIL_EXCEPTION_ID_PREFETCH_ABORT_INT].Handler(
  100b54:	e30f3704 	movw	r3, #63236	; 0xf704
  100b58:	e3403010 	movt	r3, #16
  100b5c:	e5932018 	ldr	r2, [r3, #24]
  100b60:	e593001c 	ldr	r0, [r3, #28]
  100b64:	e12fff12 	bx	r2
  100b68:	001180e8 	.word	0x001180e8
  100b6c:	001180e8 	.word	0x001180e8
  100b70:	001180e8 	.word	0x001180e8
  100b74:	00128418 	.word	0x00128418
  100b78:	00168420 	.word	0x00168420

00100b7c <_start>:
	.long	__stack


	.globl	_start
_start:
	bl      __cpu_init		/* Initialize the CPU first (BSP provides this) */
  100b7c:	eb000046 	bl	100c9c <__cpu_init>

	mov	r0, #0
  100b80:	e3a00000 	mov	r0, #0

	/* clear sbss */
	ldr 	r1,.Lsbss_start		/* calculate beginning of the SBSS */
  100b84:	e51f1024 	ldr	r1, [pc, #-36]	; 100b68 <PrefetchAbortInterrupt+0x14>
	ldr	r2,.Lsbss_end		/* calculate end of the SBSS */
  100b88:	e51f2024 	ldr	r2, [pc, #-36]	; 100b6c <PrefetchAbortInterrupt+0x18>

.Lloop_sbss:
	cmp	r1,r2
  100b8c:	e1510002 	cmp	r1, r2
	bge	.Lenclsbss		/* If no SBSS, no clearing required */
  100b90:	aa000001 	bge	100b9c <_start+0x20>
	str	r0, [r1], #4
  100b94:	e4810004 	str	r0, [r1], #4
	b	.Lloop_sbss
  100b98:	eafffffb 	b	100b8c <_start+0x10>

.Lenclsbss:
	/* clear bss */
	ldr	r1,.Lbss_start		/* calculate beginning of the BSS */
  100b9c:	e51f1034 	ldr	r1, [pc, #-52]	; 100b70 <PrefetchAbortInterrupt+0x1c>
	ldr	r2,.Lbss_end		/* calculate end of the BSS */
  100ba0:	e51f2034 	ldr	r2, [pc, #-52]	; 100b74 <PrefetchAbortInterrupt+0x20>

.Lloop_bss:
	cmp	r1,r2
  100ba4:	e1510002 	cmp	r1, r2
	bge	.Lenclbss		/* If no BSS, no clearing required */
  100ba8:	aa000001 	bge	100bb4 <_start+0x38>
	str	r0, [r1], #4
  100bac:	e4810004 	str	r0, [r1], #4
	b	.Lloop_bss
  100bb0:	eafffffb 	b	100ba4 <_start+0x28>

.Lenclbss:

	/* set stack pointer */
	ldr	r13,.Lstack		/* stack address */
  100bb4:	e51fd044 	ldr	sp, [pc, #-68]	; 100b78 <PrefetchAbortInterrupt+0x24>

    /* Reset and start Global Timer */
	mov	r0, #0x0
  100bb8:	e3a00000 	mov	r0, #0
	mov	r1, #0x0
  100bbc:	e3a01000 	mov	r1, #0
	#if defined SLEEP_TIMER_BASEADDR
	bl XTime_StartTTCTimer
	#endif

#if USE_AMP != 1
	bl XTime_SetTime
  100bc0:	eb000022 	bl	100c50 <XTime_SetTime>
	/* Setup profiling stuff */
	bl	_profile_init
#endif /* PROFILING */

   /* run global constructors */
   bl __libc_init_array
  100bc4:	eb000620 	bl	10244c <__libc_init_array>

	/* make sure argc and argv are valid */
	mov	r0, #0
  100bc8:	e3a00000 	mov	r0, #0
	mov	r1, #0
  100bcc:	e3a01000 	mov	r1, #0

	/* Let her rip */
	bl	main
  100bd0:	eb003897 	bl	10ee34 <main>

   /* Cleanup global constructors */
   bl __libc_fini_array
  100bd4:	eb00060c 	bl	10240c <__libc_fini_array>
	/* Cleanup profiling stuff */
	bl	_profile_clean
#endif /* PROFILING */

        /* All done */
	bl	exit
  100bd8:	eb0005fe 	bl	1023d8 <exit>

.Lexit:	/* should never get here */
	b .Lexit
  100bdc:	eafffffe 	b	100bdc <_start+0x60>

00100be0 <Xil_ExceptionNullHandler>:
*
* @note		None.
*
*****************************************************************************/
static void Xil_ExceptionNullHandler(void *Data)
{
  100be0:	eafffffe 	b	100be0 <Xil_ExceptionNullHandler>

00100be4 <Xil_DataAbortHandler>:
*
* @note		None.
*
****************************************************************************/

void Xil_DataAbortHandler(void *CallBackRef){
  100be4:	eafffffe 	b	100be4 <Xil_DataAbortHandler>

00100be8 <Xil_PrefetchAbortHandler>:
* @return	None.
*
* @note		None.
*
****************************************************************************/
void Xil_PrefetchAbortHandler(void *CallBackRef){
  100be8:	eafffffe 	b	100be8 <Xil_PrefetchAbortHandler>

00100bec <Xil_UndefinedExceptionHandler>:
* @return	None.
*
* @note		None.
*
****************************************************************************/
void Xil_UndefinedExceptionHandler(void *CallBackRef){
  100bec:	eafffffe 	b	100bec <Xil_UndefinedExceptionHandler>

00100bf0 <Xil_ExceptionInit>:
}
  100bf0:	e12fff1e 	bx	lr

00100bf4 <Xil_ExceptionRegisterHandler>:
	XExc_VectorTable[Exception_id].Handler = Handler;
  100bf4:	e30f3704 	movw	r3, #63236	; 0xf704
  100bf8:	e3403010 	movt	r3, #16
	XExc_VectorTable[Exception_id].Data = Data;
  100bfc:	e083c180 	add	ip, r3, r0, lsl #3
	XExc_VectorTable[Exception_id].Handler = Handler;
  100c00:	e7831180 	str	r1, [r3, r0, lsl #3]
	XExc_VectorTable[Exception_id].Data = Data;
  100c04:	e58c2004 	str	r2, [ip, #4]
}
  100c08:	e12fff1e 	bx	lr

00100c0c <Xil_GetExceptionRegisterHandler>:
	*Handler = XExc_VectorTable[Exception_id].Handler;
  100c0c:	e30f3704 	movw	r3, #63236	; 0xf704
  100c10:	e3403010 	movt	r3, #16
  100c14:	e793c180 	ldr	ip, [r3, r0, lsl #3]
	*Data = XExc_VectorTable[Exception_id].Data;
  100c18:	e0833180 	add	r3, r3, r0, lsl #3
	*Handler = XExc_VectorTable[Exception_id].Handler;
  100c1c:	e581c000 	str	ip, [r1]
	*Data = XExc_VectorTable[Exception_id].Data;
  100c20:	e5933004 	ldr	r3, [r3, #4]
  100c24:	e5823000 	str	r3, [r2]
}
  100c28:	e12fff1e 	bx	lr

00100c2c <Xil_ExceptionRemoveHandler>:
	XExc_VectorTable[Exception_id].Handler = Handler;
  100c2c:	e30f3704 	movw	r3, #63236	; 0xf704
  100c30:	e3002be0 	movw	r2, #3040	; 0xbe0
  100c34:	e3403010 	movt	r3, #16
  100c38:	e3402010 	movt	r2, #16
	XExc_VectorTable[Exception_id].Data = Data;
  100c3c:	e0831180 	add	r1, r3, r0, lsl #3
  100c40:	e3a0c000 	mov	ip, #0
	XExc_VectorTable[Exception_id].Handler = Handler;
  100c44:	e7832180 	str	r2, [r3, r0, lsl #3]
	XExc_VectorTable[Exception_id].Data = Data;
  100c48:	e581c004 	str	ip, [r1, #4]
}
  100c4c:	e12fff1e 	bx	lr

00100c50 <XTime_SetTime>:
******************************************************************************/
static INLINE void Xil_Out32(UINTPTR Addr, u32 Value)
{
#ifndef ENABLE_SAFETY
	volatile u32 *LocalAddr = (volatile u32 *)Addr;
	*LocalAddr = Value;
  100c50:	e3a03000 	mov	r3, #0
  100c54:	e3a0c000 	mov	ip, #0
  100c58:	e34f38f0 	movt	r3, #63728	; 0xf8f0
  100c5c:	e3a02001 	mov	r2, #1
  100c60:	e583c208 	str	ip, [r3, #520]	; 0x208
  100c64:	e5830200 	str	r0, [r3, #512]	; 0x200
  100c68:	e5831204 	str	r1, [r3, #516]	; 0x204
  100c6c:	e5832208 	str	r2, [r3, #520]	; 0x208
	Xil_Out32((u32)GLOBAL_TMR_BASEADDR + (u32)GTIMER_COUNTER_UPPER_OFFSET,
		(u32)((u32)(Xtime_Global>>32U)));

	/* Enable Global Timer */
	Xil_Out32((u32)GLOBAL_TMR_BASEADDR + (u32)GTIMER_CONTROL_OFFSET, (u32)0x1);
}
  100c70:	e12fff1e 	bx	lr

00100c74 <XTime_GetTime>:
	return *(volatile u32 *) Addr;
  100c74:	e3a03000 	mov	r3, #0
  100c78:	e34f38f0 	movt	r3, #63728	; 0xf8f0
  100c7c:	e5931204 	ldr	r1, [r3, #516]	; 0x204
  100c80:	e593c200 	ldr	ip, [r3, #512]	; 0x200
  100c84:	e5932204 	ldr	r2, [r3, #516]	; 0x204
	/* Reading Global Timer Counter Register */
	do
	{
		high = Xil_In32(GLOBAL_TMR_BASEADDR + GTIMER_COUNTER_UPPER_OFFSET);
		low = Xil_In32(GLOBAL_TMR_BASEADDR + GTIMER_COUNTER_LOWER_OFFSET);
	} while(Xil_In32(GLOBAL_TMR_BASEADDR + GTIMER_COUNTER_UPPER_OFFSET) != high);
  100c88:	e1520001 	cmp	r2, r1
  100c8c:	1afffffa 	bne	100c7c <XTime_GetTime+0x8>

	*Xtime_Global = (((XTime) high) << 32U) | (XTime) low;
  100c90:	e580c000 	str	ip, [r0]
  100c94:	e5802004 	str	r2, [r0, #4]
}
  100c98:	e12fff1e 	bx	lr

00100c9c <__cpu_init>:
	.global __cpu_init
	.align 2
__cpu_init:

/* Clear cp15 regs with unknown reset values */
	mov	r0, #0x0
  100c9c:	e3a00000 	mov	r0, #0
	mcr	p15, 0, r0, c5, c0, 0	/* DFSR */
  100ca0:	ee050f10 	mcr	15, 0, r0, cr5, cr0, {0}
	mcr	p15, 0, r0, c5, c0, 1	/* IFSR */
  100ca4:	ee050f30 	mcr	15, 0, r0, cr5, cr0, {1}
	mcr	p15, 0, r0, c6, c0, 0	/* DFAR */
  100ca8:	ee060f10 	mcr	15, 0, r0, cr6, cr0, {0}
	mcr	p15, 0, r0, c6, c0, 2	/* IFAR */
  100cac:	ee060f50 	mcr	15, 0, r0, cr6, cr0, {2}
	mcr	p15, 0, r0, c9, c13, 2	/* PMXEVCNTR */
  100cb0:	ee090f5d 	mcr	15, 0, r0, cr9, cr13, {2}
	mcr	p15, 0, r0, c13, c0, 2	/* TPIDRURW */
  100cb4:	ee0d0f50 	mcr	15, 0, r0, cr13, cr0, {2}
	mcr	p15, 0, r0, c13, c0, 3	/* TPIDRURO */
  100cb8:	ee0d0f70 	mcr	15, 0, r0, cr13, cr0, {3}

/* Reset and start Cycle Counter */
	mov	r2, #0x80000000		/* clear overflow */
  100cbc:	e3a02102 	mov	r2, #-2147483648	; 0x80000000
	mcr	p15, 0, r2, c9, c12, 3
  100cc0:	ee092f7c 	mcr	15, 0, r2, cr9, cr12, {3}
	mov	r2, #0xd		/* D, C, E */
  100cc4:	e3a0200d 	mov	r2, #13
	mcr	p15, 0, r2, c9, c12, 0
  100cc8:	ee092f1c 	mcr	15, 0, r2, cr9, cr12, {0}
	mov	r2, #0x80000000		/* enable cycle counter */
  100ccc:	e3a02102 	mov	r2, #-2147483648	; 0x80000000
	mcr	p15, 0, r2, c9, c12, 1
  100cd0:	ee092f3c 	mcr	15, 0, r2, cr9, cr12, {1}

	bx	lr
  100cd4:	e12fff1e 	bx	lr

00100cd8 <selfrel_offset31>:
  100cd8:	e5903000 	ldr	r3, [r0]
  100cdc:	e3130101 	tst	r3, #1073741824	; 0x40000000
  100ce0:	13833102 	orrne	r3, r3, #-2147483648	; 0x80000000
  100ce4:	03c33102 	biceq	r3, r3, #-2147483648	; 0x80000000
  100ce8:	e0800003 	add	r0, r0, r3
  100cec:	e12fff1e 	bx	lr

00100cf0 <search_EIT_table>:
  100cf0:	e92d47f0 	push	{r4, r5, r6, r7, r8, r9, sl, lr}
  100cf4:	e2518000 	subs	r8, r1, #0
  100cf8:	0a00001c 	beq	100d70 <search_EIT_table+0x80>
  100cfc:	e2488001 	sub	r8, r8, #1
  100d00:	e1a05000 	mov	r5, r0
  100d04:	e3a06000 	mov	r6, #0
  100d08:	e1a07008 	mov	r7, r8
  100d0c:	e0861007 	add	r1, r6, r7
  100d10:	e0811fa1 	add	r1, r1, r1, lsr #31
  100d14:	e1a010c1 	asr	r1, r1, #1
  100d18:	e1a04181 	lsl	r4, r1, #3
  100d1c:	e0859004 	add	r9, r5, r4
  100d20:	e1a00009 	mov	r0, r9
  100d24:	ebffffeb 	bl	100cd8 <selfrel_offset31>
  100d28:	e1580001 	cmp	r8, r1
  100d2c:	e1a0a000 	mov	sl, r0
  100d30:	e2840008 	add	r0, r4, #8
  100d34:	e0850000 	add	r0, r5, r0
  100d38:	0a000007 	beq	100d5c <search_EIT_table+0x6c>
  100d3c:	ebffffe5 	bl	100cd8 <selfrel_offset31>
  100d40:	e15a0002 	cmp	sl, r2
  100d44:	e2400001 	sub	r0, r0, #1
  100d48:	8a000005 	bhi	100d64 <search_EIT_table+0x74>
  100d4c:	e1500002 	cmp	r0, r2
  100d50:	e2816001 	add	r6, r1, #1
  100d54:	3affffec 	bcc	100d0c <search_EIT_table+0x1c>
  100d58:	ea000005 	b	100d74 <search_EIT_table+0x84>
  100d5c:	e15a0002 	cmp	sl, r2
  100d60:	9a000003 	bls	100d74 <search_EIT_table+0x84>
  100d64:	e1560001 	cmp	r6, r1
  100d68:	e2417001 	sub	r7, r1, #1
  100d6c:	1affffe6 	bne	100d0c <search_EIT_table+0x1c>
  100d70:	e3a09000 	mov	r9, #0
  100d74:	e1a00009 	mov	r0, r9
  100d78:	e8bd87f0 	pop	{r4, r5, r6, r7, r8, r9, sl, pc}

00100d7c <__gnu_unwind_get_pr_addr>:
  100d7c:	e3500001 	cmp	r0, #1
  100d80:	0a000006 	beq	100da0 <__gnu_unwind_get_pr_addr+0x24>
  100d84:	e3500002 	cmp	r0, #2
  100d88:	0a000007 	beq	100dac <__gnu_unwind_get_pr_addr+0x30>
  100d8c:	e3500000 	cmp	r0, #0
  100d90:	e30108e0 	movw	r0, #6368	; 0x18e0
  100d94:	e3400010 	movt	r0, #16
  100d98:	13a00000 	movne	r0, #0
  100d9c:	e12fff1e 	bx	lr
  100da0:	e30108e8 	movw	r0, #6376	; 0x18e8
  100da4:	e3400010 	movt	r0, #16
  100da8:	e12fff1e 	bx	lr
  100dac:	e30108f0 	movw	r0, #6384	; 0x18f0
  100db0:	e3400010 	movt	r0, #16
  100db4:	e12fff1e 	bx	lr

00100db8 <get_eit_entry>:
  100db8:	e3003000 	movw	r3, #0
  100dbc:	e3403000 	movt	r3, #0
  100dc0:	e3530000 	cmp	r3, #0
  100dc4:	e92d4030 	push	{r4, r5, lr}
  100dc8:	e1a04000 	mov	r4, r0
  100dcc:	e24dd00c 	sub	sp, sp, #12
  100dd0:	e2415002 	sub	r5, r1, #2
  100dd4:	0a00002a 	beq	100e84 <get_eit_entry+0xcc>
  100dd8:	e28d1004 	add	r1, sp, #4
  100ddc:	e1a00005 	mov	r0, r5
  100de0:	e320f000 	nop	{0}
  100de4:	e3500000 	cmp	r0, #0
  100de8:	0a00001f 	beq	100e6c <get_eit_entry+0xb4>
  100dec:	e59d1004 	ldr	r1, [sp, #4]
  100df0:	e1a02005 	mov	r2, r5
  100df4:	ebffffbd 	bl	100cf0 <search_EIT_table>
  100df8:	e2502000 	subs	r2, r0, #0
  100dfc:	0a00001a 	beq	100e6c <get_eit_entry+0xb4>
  100e00:	ebffffb4 	bl	100cd8 <selfrel_offset31>
  100e04:	e5923004 	ldr	r3, [r2, #4]
  100e08:	e5840048 	str	r0, [r4, #72]	; 0x48
  100e0c:	e3530001 	cmp	r3, #1
  100e10:	03a02000 	moveq	r2, #0
  100e14:	03a03005 	moveq	r3, #5
  100e18:	05842010 	streq	r2, [r4, #16]
  100e1c:	0a00000f 	beq	100e60 <get_eit_entry+0xa8>
  100e20:	e3530000 	cmp	r3, #0
  100e24:	e2820004 	add	r0, r2, #4
  100e28:	b584004c 	strlt	r0, [r4, #76]	; 0x4c
  100e2c:	b3a03001 	movlt	r3, #1
  100e30:	b5843050 	strlt	r3, [r4, #80]	; 0x50
  100e34:	ba000003 	blt	100e48 <get_eit_entry+0x90>
  100e38:	ebffffa6 	bl	100cd8 <selfrel_offset31>
  100e3c:	e3a03000 	mov	r3, #0
  100e40:	e5843050 	str	r3, [r4, #80]	; 0x50
  100e44:	e584004c 	str	r0, [r4, #76]	; 0x4c
  100e48:	e5903000 	ldr	r3, [r0]
  100e4c:	e3530000 	cmp	r3, #0
  100e50:	ba000013 	blt	100ea4 <get_eit_entry+0xec>
  100e54:	ebffff9f 	bl	100cd8 <selfrel_offset31>
  100e58:	e3a03000 	mov	r3, #0
  100e5c:	e5840010 	str	r0, [r4, #16]
  100e60:	e1a00003 	mov	r0, r3
  100e64:	e28dd00c 	add	sp, sp, #12
  100e68:	e8bd8030 	pop	{r4, r5, pc}
  100e6c:	e3a03009 	mov	r3, #9
  100e70:	e3a02000 	mov	r2, #0
  100e74:	e1a00003 	mov	r0, r3
  100e78:	e5842010 	str	r2, [r4, #16]
  100e7c:	e28dd00c 	add	sp, sp, #12
  100e80:	e8bd8030 	pop	{r4, r5, pc}
  100e84:	e30810e0 	movw	r1, #32992	; 0x80e0
  100e88:	e3080000 	movw	r0, #32768	; 0x8000
  100e8c:	e3401011 	movt	r1, #17
  100e90:	e3400011 	movt	r0, #17
  100e94:	e0411000 	sub	r1, r1, r0
  100e98:	e1a011c1 	asr	r1, r1, #3
  100e9c:	e58d1004 	str	r1, [sp, #4]
  100ea0:	eaffffd2 	b	100df0 <get_eit_entry+0x38>
  100ea4:	e7e30c53 	ubfx	r0, r3, #24, #4
  100ea8:	ebffffb3 	bl	100d7c <__gnu_unwind_get_pr_addr>
  100eac:	e3500000 	cmp	r0, #0
  100eb0:	e5840010 	str	r0, [r4, #16]
  100eb4:	13a03000 	movne	r3, #0
  100eb8:	03a03009 	moveq	r3, #9
  100ebc:	e1a00003 	mov	r0, r3
  100ec0:	e28dd00c 	add	sp, sp, #12
  100ec4:	e8bd8030 	pop	{r4, r5, pc}

00100ec8 <restore_non_core_regs>:
  100ec8:	e5903000 	ldr	r3, [r0]
  100ecc:	e92d4010 	push	{r4, lr}
  100ed0:	e3130001 	tst	r3, #1
  100ed4:	e1a04000 	mov	r4, r0
  100ed8:	1a000004 	bne	100ef0 <restore_non_core_regs+0x28>
  100edc:	e3130002 	tst	r3, #2
  100ee0:	e2800048 	add	r0, r0, #72	; 0x48
  100ee4:	0a00000a 	beq	100f14 <restore_non_core_regs+0x4c>
  100ee8:	eb00038f 	bl	101d2c <__gnu_Unwind_Restore_VFP_D>
  100eec:	e5943000 	ldr	r3, [r4]
  100ef0:	e3130004 	tst	r3, #4
  100ef4:	0a00000a 	beq	100f24 <restore_non_core_regs+0x5c>
  100ef8:	e3130008 	tst	r3, #8
  100efc:	0a00000d 	beq	100f38 <restore_non_core_regs+0x70>
  100f00:	e3130010 	tst	r3, #16
  100f04:	18bd8010 	popne	{r4, pc}
  100f08:	e2840e1d 	add	r0, r4, #464	; 0x1d0
  100f0c:	e8bd4010 	pop	{r4, lr}
  100f10:	ea0003af 	b	101dd4 <__gnu_Unwind_Restore_WMMXC>
  100f14:	eb000380 	bl	101d1c <__gnu_Unwind_Restore_VFP>
  100f18:	e5943000 	ldr	r3, [r4]
  100f1c:	e3130004 	tst	r3, #4
  100f20:	1afffff4 	bne	100ef8 <restore_non_core_regs+0x30>
  100f24:	e28400d0 	add	r0, r4, #208	; 0xd0
  100f28:	eb000383 	bl	101d3c <__gnu_Unwind_Restore_VFP_D_16_to_31>
  100f2c:	e5943000 	ldr	r3, [r4]
  100f30:	e3130008 	tst	r3, #8
  100f34:	1afffff1 	bne	100f00 <restore_non_core_regs+0x38>
  100f38:	e2840e15 	add	r0, r4, #336	; 0x150
  100f3c:	eb000382 	bl	101d4c <__gnu_Unwind_Restore_WMMXD>
  100f40:	e5943000 	ldr	r3, [r4]
  100f44:	e3130010 	tst	r3, #16
  100f48:	18bd8010 	popne	{r4, pc}
  100f4c:	eaffffed 	b	100f08 <restore_non_core_regs+0x40>

00100f50 <_Unwind_decode_typeinfo_ptr.isra.0>:
  100f50:	e5903000 	ldr	r3, [r0]
  100f54:	e3530000 	cmp	r3, #0
  100f58:	10833000 	addne	r3, r3, r0
  100f5c:	e1a00003 	mov	r0, r3
  100f60:	e12fff1e 	bx	lr

00100f64 <__gnu_unwind_24bit.isra.1>:
  100f64:	e3a00009 	mov	r0, #9
  100f68:	e12fff1e 	bx	lr

00100f6c <_Unwind_DebugHook>:
  100f6c:	e12fff1e 	bx	lr

00100f70 <unwind_phase2>:
  100f70:	e92d4070 	push	{r4, r5, r6, lr}
  100f74:	e1a04000 	mov	r4, r0
  100f78:	e1a05001 	mov	r5, r1
  100f7c:	ea000008 	b	100fa4 <unwind_phase2+0x34>
  100f80:	e595c040 	ldr	ip, [r5, #64]	; 0x40
  100f84:	e1a02005 	mov	r2, r5
  100f88:	e5943010 	ldr	r3, [r4, #16]
  100f8c:	e1a01004 	mov	r1, r4
  100f90:	e3a00001 	mov	r0, #1
  100f94:	e584c014 	str	ip, [r4, #20]
  100f98:	e12fff33 	blx	r3
  100f9c:	e3500008 	cmp	r0, #8
  100fa0:	1a000005 	bne	100fbc <unwind_phase2+0x4c>
  100fa4:	e5951040 	ldr	r1, [r5, #64]	; 0x40
  100fa8:	e1a00004 	mov	r0, r4
  100fac:	ebffff81 	bl	100db8 <get_eit_entry>
  100fb0:	e2506000 	subs	r6, r0, #0
  100fb4:	0afffff1 	beq	100f80 <unwind_phase2+0x10>
  100fb8:	eb000501 	bl	1023c4 <abort>
  100fbc:	e3500007 	cmp	r0, #7
  100fc0:	1afffffc 	bne	100fb8 <unwind_phase2+0x48>
  100fc4:	e1a00006 	mov	r0, r6
  100fc8:	e5951040 	ldr	r1, [r5, #64]	; 0x40
  100fcc:	ebffffe6 	bl	100f6c <_Unwind_DebugHook>
  100fd0:	e2850004 	add	r0, r5, #4
  100fd4:	eb00034b 	bl	101d08 <__restore_core_regs>

00100fd8 <unwind_phase2_forced>:
  100fd8:	e92d43f0 	push	{r4, r5, r6, r7, r8, r9, lr}
  100fdc:	e281e004 	add	lr, r1, #4
  100fe0:	e1a04000 	mov	r4, r0
  100fe4:	e1a05002 	mov	r5, r2
  100fe8:	e8be000f 	ldm	lr!, {r0, r1, r2, r3}
  100fec:	e24ddff3 	sub	sp, sp, #972	; 0x3cc
  100ff0:	e28dc00c 	add	ip, sp, #12
  100ff4:	e28d6ff2 	add	r6, sp, #968	; 0x3c8
  100ff8:	e594700c 	ldr	r7, [r4, #12]
  100ffc:	e3a09000 	mov	r9, #0
  101000:	e5948018 	ldr	r8, [r4, #24]
  101004:	e8ac000f 	stmia	ip!, {r0, r1, r2, r3}
  101008:	e8be000f 	ldm	lr!, {r0, r1, r2, r3}
  10100c:	e8ac000f 	stmia	ip!, {r0, r1, r2, r3}
  101010:	e8be000f 	ldm	lr!, {r0, r1, r2, r3}
  101014:	e8ac000f 	stmia	ip!, {r0, r1, r2, r3}
  101018:	e89e000f 	ldm	lr, {r0, r1, r2, r3}
  10101c:	e88c000f 	stm	ip, {r0, r1, r2, r3}
  101020:	e52693c0 	str	r9, [r6, #-960]!	; 0xfffffc40
  101024:	ea00001c 	b	10109c <unwind_phase2_forced+0xc4>
  101028:	e59d3048 	ldr	r3, [sp, #72]	; 0x48
  10102c:	e3a02e1e 	mov	r2, #480	; 0x1e0
  101030:	e1a01006 	mov	r1, r6
  101034:	e28d0f7a 	add	r0, sp, #488	; 0x1e8
  101038:	e5843014 	str	r3, [r4, #20]
  10103c:	eb00051f 	bl	1024c0 <memcpy>
  101040:	e5943010 	ldr	r3, [r4, #16]
  101044:	e28d2f7a 	add	r2, sp, #488	; 0x1e8
  101048:	e1a01004 	mov	r1, r4
  10104c:	e1a00005 	mov	r0, r5
  101050:	e12fff33 	blx	r3
  101054:	e1a01005 	mov	r1, r5
  101058:	e58d8004 	str	r8, [sp, #4]
  10105c:	e1a03004 	mov	r3, r4
  101060:	e58d6000 	str	r6, [sp]
  101064:	e1a02004 	mov	r2, r4
  101068:	e1a09000 	mov	r9, r0
  10106c:	e59d0220 	ldr	r0, [sp, #544]	; 0x220
  101070:	e58d004c 	str	r0, [sp, #76]	; 0x4c
  101074:	e3a00001 	mov	r0, #1
  101078:	e12fff37 	blx	r7
  10107c:	e2505000 	subs	r5, r0, #0
  101080:	1a000018 	bne	1010e8 <unwind_phase2_forced+0x110>
  101084:	e3a02e1e 	mov	r2, #480	; 0x1e0
  101088:	e28d1f7a 	add	r1, sp, #488	; 0x1e8
  10108c:	e1a00006 	mov	r0, r6
  101090:	eb00050a 	bl	1024c0 <memcpy>
  101094:	e3590008 	cmp	r9, #8
  101098:	1a000016 	bne	1010f8 <unwind_phase2_forced+0x120>
  10109c:	e59d1048 	ldr	r1, [sp, #72]	; 0x48
  1010a0:	e1a00004 	mov	r0, r4
  1010a4:	ebffff43 	bl	100db8 <get_eit_entry>
  1010a8:	e3550000 	cmp	r5, #0
  1010ac:	03a05009 	moveq	r5, #9
  1010b0:	13a0500a 	movne	r5, #10
  1010b4:	e2509000 	subs	r9, r0, #0
  1010b8:	0affffda 	beq	101028 <unwind_phase2_forced+0x50>
  1010bc:	e59d0040 	ldr	r0, [sp, #64]	; 0x40
  1010c0:	e3851010 	orr	r1, r5, #16
  1010c4:	e58d8004 	str	r8, [sp, #4]
  1010c8:	e1a03004 	mov	r3, r4
  1010cc:	e58d6000 	str	r6, [sp]
  1010d0:	e1a02004 	mov	r2, r4
  1010d4:	e58d004c 	str	r0, [sp, #76]	; 0x4c
  1010d8:	e3a00001 	mov	r0, #1
  1010dc:	e12fff37 	blx	r7
  1010e0:	e3500000 	cmp	r0, #0
  1010e4:	0a000000 	beq	1010ec <unwind_phase2_forced+0x114>
  1010e8:	e3a09009 	mov	r9, #9
  1010ec:	e1a00009 	mov	r0, r9
  1010f0:	e28ddff3 	add	sp, sp, #972	; 0x3cc
  1010f4:	e8bd83f0 	pop	{r4, r5, r6, r7, r8, r9, pc}
  1010f8:	e3590007 	cmp	r9, #7
  1010fc:	1afffff9 	bne	1010e8 <unwind_phase2_forced+0x110>
  101100:	e1a00005 	mov	r0, r5
  101104:	e59d1048 	ldr	r1, [sp, #72]	; 0x48
  101108:	ebffff97 	bl	100f6c <_Unwind_DebugHook>
  10110c:	e28d000c 	add	r0, sp, #12
  101110:	eb0002fc 	bl	101d08 <__restore_core_regs>

00101114 <_Unwind_GetCFA>:
  101114:	e5900044 	ldr	r0, [r0, #68]	; 0x44
  101118:	e12fff1e 	bx	lr

0010111c <__gnu_Unwind_RaiseException>:
  10111c:	e591303c 	ldr	r3, [r1, #60]	; 0x3c
  101120:	e92d40f0 	push	{r4, r5, r6, r7, lr}
  101124:	e281e004 	add	lr, r1, #4
  101128:	e5813040 	str	r3, [r1, #64]	; 0x40
  10112c:	e1a07001 	mov	r7, r1
  101130:	e1a04000 	mov	r4, r0
  101134:	e24ddf79 	sub	sp, sp, #484	; 0x1e4
  101138:	e8be000f 	ldm	lr!, {r0, r1, r2, r3}
  10113c:	e28dc004 	add	ip, sp, #4
  101140:	e28d6e1e 	add	r6, sp, #480	; 0x1e0
  101144:	e3e05000 	mvn	r5, #0
  101148:	e8ac000f 	stmia	ip!, {r0, r1, r2, r3}
  10114c:	e8be000f 	ldm	lr!, {r0, r1, r2, r3}
  101150:	e8ac000f 	stmia	ip!, {r0, r1, r2, r3}
  101154:	e8be000f 	ldm	lr!, {r0, r1, r2, r3}
  101158:	e8ac000f 	stmia	ip!, {r0, r1, r2, r3}
  10115c:	e89e000f 	ldm	lr, {r0, r1, r2, r3}
  101160:	e88c000f 	stm	ip, {r0, r1, r2, r3}
  101164:	e52651e0 	str	r5, [r6, #-480]!	; 0xfffffe20
  101168:	ea000006 	b	101188 <__gnu_Unwind_RaiseException+0x6c>
  10116c:	e5943010 	ldr	r3, [r4, #16]
  101170:	e1a02006 	mov	r2, r6
  101174:	e1a01004 	mov	r1, r4
  101178:	e12fff33 	blx	r3
  10117c:	e3500008 	cmp	r0, #8
  101180:	e1a05000 	mov	r5, r0
  101184:	1a000007 	bne	1011a8 <__gnu_Unwind_RaiseException+0x8c>
  101188:	e59d1040 	ldr	r1, [sp, #64]	; 0x40
  10118c:	e1a00004 	mov	r0, r4
  101190:	ebffff08 	bl	100db8 <get_eit_entry>
  101194:	e3500000 	cmp	r0, #0
  101198:	0afffff3 	beq	10116c <__gnu_Unwind_RaiseException+0x50>
  10119c:	e3a00009 	mov	r0, #9
  1011a0:	e28ddf79 	add	sp, sp, #484	; 0x1e4
  1011a4:	e8bd80f0 	pop	{r4, r5, r6, r7, pc}
  1011a8:	e1a00006 	mov	r0, r6
  1011ac:	ebffff45 	bl	100ec8 <restore_non_core_regs>
  1011b0:	e3550006 	cmp	r5, #6
  1011b4:	1afffff8 	bne	10119c <__gnu_Unwind_RaiseException+0x80>
  1011b8:	e1a01007 	mov	r1, r7
  1011bc:	e1a00004 	mov	r0, r4
  1011c0:	ebffff6a 	bl	100f70 <unwind_phase2>

001011c4 <__gnu_Unwind_ForcedUnwind>:
  1011c4:	e52de004 	push	{lr}		; (str lr, [sp, #-4]!)
  1011c8:	e593e03c 	ldr	lr, [r3, #60]	; 0x3c
  1011cc:	e580100c 	str	r1, [r0, #12]
  1011d0:	e1a01003 	mov	r1, r3
  1011d4:	e5802018 	str	r2, [r0, #24]
  1011d8:	e3a02000 	mov	r2, #0
  1011dc:	e583e040 	str	lr, [r3, #64]	; 0x40
  1011e0:	e49de004 	pop	{lr}		; (ldr lr, [sp], #4)
  1011e4:	eaffff7b 	b	100fd8 <unwind_phase2_forced>

001011e8 <__gnu_Unwind_Resume>:
  1011e8:	e92d4070 	push	{r4, r5, r6, lr}
  1011ec:	e590600c 	ldr	r6, [r0, #12]
  1011f0:	e5903014 	ldr	r3, [r0, #20]
  1011f4:	e3560000 	cmp	r6, #0
  1011f8:	e5813040 	str	r3, [r1, #64]	; 0x40
  1011fc:	1a000013 	bne	101250 <__gnu_Unwind_Resume+0x68>
  101200:	e5903010 	ldr	r3, [r0, #16]
  101204:	e1a02001 	mov	r2, r1
  101208:	e1a04000 	mov	r4, r0
  10120c:	e1a05001 	mov	r5, r1
  101210:	e1a01000 	mov	r1, r0
  101214:	e3a00002 	mov	r0, #2
  101218:	e12fff33 	blx	r3
  10121c:	e3500007 	cmp	r0, #7
  101220:	0a000005 	beq	10123c <__gnu_Unwind_Resume+0x54>
  101224:	e3500008 	cmp	r0, #8
  101228:	1a000002 	bne	101238 <__gnu_Unwind_Resume+0x50>
  10122c:	e1a01005 	mov	r1, r5
  101230:	e1a00004 	mov	r0, r4
  101234:	ebffff4d 	bl	100f70 <unwind_phase2>
  101238:	eb000461 	bl	1023c4 <abort>
  10123c:	e1a00006 	mov	r0, r6
  101240:	e5951040 	ldr	r1, [r5, #64]	; 0x40
  101244:	ebffff48 	bl	100f6c <_Unwind_DebugHook>
  101248:	e2850004 	add	r0, r5, #4
  10124c:	eb0002ad 	bl	101d08 <__restore_core_regs>
  101250:	e3a02001 	mov	r2, #1
  101254:	ebffff5f 	bl	100fd8 <unwind_phase2_forced>
  101258:	eb000459 	bl	1023c4 <abort>

0010125c <__gnu_Unwind_Resume_or_Rethrow>:
  10125c:	e590200c 	ldr	r2, [r0, #12]
  101260:	e3520000 	cmp	r2, #0
  101264:	0a000003 	beq	101278 <__gnu_Unwind_Resume_or_Rethrow+0x1c>
  101268:	e591c03c 	ldr	ip, [r1, #60]	; 0x3c
  10126c:	e3a02000 	mov	r2, #0
  101270:	e581c040 	str	ip, [r1, #64]	; 0x40
  101274:	eaffff57 	b	100fd8 <unwind_phase2_forced>
  101278:	eaffffa7 	b	10111c <__gnu_Unwind_RaiseException>

0010127c <_Unwind_Complete>:
  10127c:	e12fff1e 	bx	lr

00101280 <_Unwind_DeleteException>:
  101280:	e5903008 	ldr	r3, [r0, #8]
  101284:	e3530000 	cmp	r3, #0
  101288:	012fff1e 	bxeq	lr
  10128c:	e1a01000 	mov	r1, r0
  101290:	e3a00001 	mov	r0, #1
  101294:	e12fff13 	bx	r3

00101298 <_Unwind_VRS_Get>:
  101298:	e3510004 	cmp	r1, #4
  10129c:	979ff101 	ldrls	pc, [pc, r1, lsl #2]
  1012a0:	ea000014 	b	1012f8 <_Unwind_VRS_Get+0x60>
  1012a4:	001012c0 	.word	0x001012c0
  1012a8:	001012b8 	.word	0x001012b8
  1012ac:	001012f8 	.word	0x001012f8
  1012b0:	001012b8 	.word	0x001012b8
  1012b4:	001012b8 	.word	0x001012b8
  1012b8:	e3a00001 	mov	r0, #1
  1012bc:	e12fff1e 	bx	lr
  1012c0:	e352000f 	cmp	r2, #15
  1012c4:	93a01000 	movls	r1, #0
  1012c8:	83a01001 	movhi	r1, #1
  1012cc:	e3530000 	cmp	r3, #0
  1012d0:	01a03001 	moveq	r3, r1
  1012d4:	13a03001 	movne	r3, #1
  1012d8:	e3530000 	cmp	r3, #0
  1012dc:	1a000005 	bne	1012f8 <_Unwind_VRS_Get+0x60>
  1012e0:	e0802102 	add	r2, r0, r2, lsl #2
  1012e4:	e1a00003 	mov	r0, r3
  1012e8:	e5923004 	ldr	r3, [r2, #4]
  1012ec:	e59d2000 	ldr	r2, [sp]
  1012f0:	e5823000 	str	r3, [r2]
  1012f4:	e12fff1e 	bx	lr
  1012f8:	e3a00002 	mov	r0, #2
  1012fc:	e12fff1e 	bx	lr

00101300 <_Unwind_GetGR>:
  101300:	e52de004 	push	{lr}		; (str lr, [sp, #-4]!)
  101304:	e24dd014 	sub	sp, sp, #20
  101308:	e3a03000 	mov	r3, #0
  10130c:	e1a02001 	mov	r2, r1
  101310:	e28dc00c 	add	ip, sp, #12
  101314:	e1a01003 	mov	r1, r3
  101318:	e58dc000 	str	ip, [sp]
  10131c:	ebffffdd 	bl	101298 <_Unwind_VRS_Get>
  101320:	e59d000c 	ldr	r0, [sp, #12]
  101324:	e28dd014 	add	sp, sp, #20
  101328:	e49df004 	pop	{pc}		; (ldr pc, [sp], #4)

0010132c <_Unwind_VRS_Set>:
  10132c:	e3510004 	cmp	r1, #4
  101330:	979ff101 	ldrls	pc, [pc, r1, lsl #2]
  101334:	ea000014 	b	10138c <_Unwind_VRS_Set+0x60>
  101338:	00101354 	.word	0x00101354
  10133c:	0010134c 	.word	0x0010134c
  101340:	0010138c 	.word	0x0010138c
  101344:	0010134c 	.word	0x0010134c
  101348:	0010134c 	.word	0x0010134c
  10134c:	e3a00001 	mov	r0, #1
  101350:	e12fff1e 	bx	lr
  101354:	e352000f 	cmp	r2, #15
  101358:	93a01000 	movls	r1, #0
  10135c:	83a01001 	movhi	r1, #1
  101360:	e3530000 	cmp	r3, #0
  101364:	01a03001 	moveq	r3, r1
  101368:	13a03001 	movne	r3, #1
  10136c:	e3530000 	cmp	r3, #0
  101370:	1a000005 	bne	10138c <_Unwind_VRS_Set+0x60>
  101374:	e59d1000 	ldr	r1, [sp]
  101378:	e0802102 	add	r2, r0, r2, lsl #2
  10137c:	e1a00003 	mov	r0, r3
  101380:	e5911000 	ldr	r1, [r1]
  101384:	e5821004 	str	r1, [r2, #4]
  101388:	e12fff1e 	bx	lr
  10138c:	e3a00002 	mov	r0, #2
  101390:	e12fff1e 	bx	lr

00101394 <_Unwind_SetGR>:
  101394:	e52de004 	push	{lr}		; (str lr, [sp, #-4]!)
  101398:	e24dd014 	sub	sp, sp, #20
  10139c:	e28dc010 	add	ip, sp, #16
  1013a0:	e3a03000 	mov	r3, #0
  1013a4:	e52c2004 	str	r2, [ip, #-4]!
  1013a8:	e1a02001 	mov	r2, r1
  1013ac:	e58dc000 	str	ip, [sp]
  1013b0:	e1a01003 	mov	r1, r3
  1013b4:	ebffffdc 	bl	10132c <_Unwind_VRS_Set>
  1013b8:	e28dd014 	add	sp, sp, #20
  1013bc:	e49df004 	pop	{pc}		; (ldr pc, [sp], #4)

001013c0 <__gnu_Unwind_Backtrace>:
  1013c0:	e592303c 	ldr	r3, [r2, #60]	; 0x3c
  1013c4:	e92d4070 	push	{r4, r5, r6, lr}
  1013c8:	e282e004 	add	lr, r2, #4
  1013cc:	e5823040 	str	r3, [r2, #64]	; 0x40
  1013d0:	e1a06000 	mov	r6, r0
  1013d4:	e1a05001 	mov	r5, r1
  1013d8:	e24ddf8e 	sub	sp, sp, #568	; 0x238
  1013dc:	e8be000f 	ldm	lr!, {r0, r1, r2, r3}
  1013e0:	e28dc05c 	add	ip, sp, #92	; 0x5c
  1013e4:	e3e04000 	mvn	r4, #0
  1013e8:	e8ac000f 	stmia	ip!, {r0, r1, r2, r3}
  1013ec:	e8be000f 	ldm	lr!, {r0, r1, r2, r3}
  1013f0:	e8ac000f 	stmia	ip!, {r0, r1, r2, r3}
  1013f4:	e8be000f 	ldm	lr!, {r0, r1, r2, r3}
  1013f8:	e8ac000f 	stmia	ip!, {r0, r1, r2, r3}
  1013fc:	e89e000f 	ldm	lr, {r0, r1, r2, r3}
  101400:	e88c000f 	stm	ip, {r0, r1, r2, r3}
  101404:	e58d4058 	str	r4, [sp, #88]	; 0x58
  101408:	ea00000e 	b	101448 <__gnu_Unwind_Backtrace+0x88>
  10140c:	ebffffe0 	bl	101394 <_Unwind_SetGR>
  101410:	e1a01005 	mov	r1, r5
  101414:	e28d0058 	add	r0, sp, #88	; 0x58
  101418:	e12fff36 	blx	r6
  10141c:	e28d2058 	add	r2, sp, #88	; 0x58
  101420:	e1a0100d 	mov	r1, sp
  101424:	e3500000 	cmp	r0, #0
  101428:	e3a00008 	mov	r0, #8
  10142c:	1a00000d 	bne	101468 <__gnu_Unwind_Backtrace+0xa8>
  101430:	e59d3010 	ldr	r3, [sp, #16]
  101434:	e12fff33 	blx	r3
  101438:	e2403005 	sub	r3, r0, #5
  10143c:	e1a04000 	mov	r4, r0
  101440:	e31300fb 	tst	r3, #251	; 0xfb
  101444:	0a000008 	beq	10146c <__gnu_Unwind_Backtrace+0xac>
  101448:	e59d1098 	ldr	r1, [sp, #152]	; 0x98
  10144c:	e1a0000d 	mov	r0, sp
  101450:	ebfffe58 	bl	100db8 <get_eit_entry>
  101454:	e1a0200d 	mov	r2, sp
  101458:	e3a0100c 	mov	r1, #12
  10145c:	e3500000 	cmp	r0, #0
  101460:	e28d0058 	add	r0, sp, #88	; 0x58
  101464:	0affffe8 	beq	10140c <__gnu_Unwind_Backtrace+0x4c>
  101468:	e3a04009 	mov	r4, #9
  10146c:	e28d0058 	add	r0, sp, #88	; 0x58
  101470:	ebfffe94 	bl	100ec8 <restore_non_core_regs>
  101474:	e1a00004 	mov	r0, r4
  101478:	e28ddf8e 	add	sp, sp, #568	; 0x238
  10147c:	e8bd8070 	pop	{r4, r5, r6, pc}

00101480 <__gnu_unwind_pr_common>:
  101480:	e92d4ff0 	push	{r4, r5, r6, r7, r8, r9, sl, fp, lr}
  101484:	e1a04001 	mov	r4, r1
  101488:	e591104c 	ldr	r1, [r1, #76]	; 0x4c
  10148c:	e24dd024 	sub	sp, sp, #36	; 0x24
  101490:	e253b000 	subs	fp, r3, #0
  101494:	e1a06002 	mov	r6, r2
  101498:	e2813004 	add	r3, r1, #4
  10149c:	e2007003 	and	r7, r0, #3
  1014a0:	e5912000 	ldr	r2, [r1]
  1014a4:	e58d3018 	str	r3, [sp, #24]
  1014a8:	0a00006e 	beq	101668 <__gnu_unwind_pr_common+0x1e8>
  1014ac:	e1a01822 	lsr	r1, r2, #16
  1014b0:	e5cd101d 	strb	r1, [sp, #29]
  1014b4:	e3a0c002 	mov	ip, #2
  1014b8:	e1a02802 	lsl	r2, r2, #16
  1014bc:	e6ef1071 	uxtb	r1, r1
  1014c0:	e58d2014 	str	r2, [sp, #20]
  1014c4:	e5cdc01c 	strb	ip, [sp, #28]
  1014c8:	e0833c11 	add	r3, r3, r1, lsl ip
  1014cc:	e3570002 	cmp	r7, #2
  1014d0:	e5942050 	ldr	r2, [r4, #80]	; 0x50
  1014d4:	05943038 	ldreq	r3, [r4, #56]	; 0x38
  1014d8:	e2122001 	ands	r2, r2, #1
  1014dc:	1a000066 	bne	10167c <__gnu_unwind_pr_common+0x1fc>
  1014e0:	e2200008 	eor	r0, r0, #8
  1014e4:	e58d2004 	str	r2, [sp, #4]
  1014e8:	e7e021d0 	ubfx	r2, r0, #3, #1
  1014ec:	e58d2000 	str	r2, [sp]
  1014f0:	e5939000 	ldr	r9, [r3]
  1014f4:	e3590000 	cmp	r9, #0
  1014f8:	0a0000cc 	beq	101830 <__gnu_unwind_pr_common+0x3b0>
  1014fc:	e35b0002 	cmp	fp, #2
  101500:	e3a0100f 	mov	r1, #15
  101504:	02835008 	addeq	r5, r3, #8
  101508:	12835004 	addne	r5, r3, #4
  10150c:	05938004 	ldreq	r8, [r3, #4]
  101510:	e1a00006 	mov	r0, r6
  101514:	11d380b2 	ldrhne	r8, [r3, #2]
  101518:	11d390b0 	ldrhne	r9, [r3]
  10151c:	e5943048 	ldr	r3, [r4, #72]	; 0x48
  101520:	e3c8a001 	bic	sl, r8, #1
  101524:	e08aa003 	add	sl, sl, r3
  101528:	ebffff74 	bl	101300 <_Unwind_GetGR>
  10152c:	e1a03088 	lsl	r3, r8, #1
  101530:	e2098001 	and	r8, r9, #1
  101534:	e2033002 	and	r3, r3, #2
  101538:	e1838008 	orr	r8, r3, r8
  10153c:	e15a0000 	cmp	sl, r0
  101540:	8a000036 	bhi	101620 <__gnu_unwind_pr_common+0x1a0>
  101544:	e3c99001 	bic	r9, r9, #1
  101548:	e089a00a 	add	sl, r9, sl
  10154c:	e15a0000 	cmp	sl, r0
  101550:	9a000032 	bls	101620 <__gnu_unwind_pr_common+0x1a0>
  101554:	e3580001 	cmp	r8, #1
  101558:	0a000075 	beq	101734 <__gnu_unwind_pr_common+0x2b4>
  10155c:	3a00004f 	bcc	1016a0 <__gnu_unwind_pr_common+0x220>
  101560:	e3580002 	cmp	r8, #2
  101564:	1a00003b 	bne	101658 <__gnu_unwind_pr_common+0x1d8>
  101568:	e5953000 	ldr	r3, [r5]
  10156c:	e3570000 	cmp	r7, #0
  101570:	e3c3a102 	bic	sl, r3, #-2147483648	; 0x80000000
  101574:	1a000066 	bne	101714 <__gnu_unwind_pr_common+0x294>
  101578:	e59d2000 	ldr	r2, [sp]
  10157c:	e35a0000 	cmp	sl, #0
  101580:	03a02001 	moveq	r2, #1
  101584:	e3520000 	cmp	r2, #0
  101588:	0a00002d 	beq	101644 <__gnu_unwind_pr_common+0x1c4>
  10158c:	e35a0000 	cmp	sl, #0
  101590:	0a000019 	beq	1015fc <__gnu_unwind_pr_common+0x17c>
  101594:	e2843058 	add	r3, r4, #88	; 0x58
  101598:	e58db00c 	str	fp, [sp, #12]
  10159c:	e2859004 	add	r9, r5, #4
  1015a0:	e1a08007 	mov	r8, r7
  1015a4:	e58d7008 	str	r7, [sp, #8]
  1015a8:	e1a0b003 	mov	fp, r3
  1015ac:	ea000002 	b	1015bc <__gnu_unwind_pr_common+0x13c>
  1015b0:	e157000a 	cmp	r7, sl
  1015b4:	e1a08007 	mov	r8, r7
  1015b8:	0a00000f 	beq	1015fc <__gnu_unwind_pr_common+0x17c>
  1015bc:	e1a00009 	mov	r0, r9
  1015c0:	e58db010 	str	fp, [sp, #16]
  1015c4:	ebfffe61 	bl	100f50 <_Unwind_decode_typeinfo_ptr.isra.0>
  1015c8:	e28d3010 	add	r3, sp, #16
  1015cc:	e3a02000 	mov	r2, #0
  1015d0:	e2899004 	add	r9, r9, #4
  1015d4:	e2887001 	add	r7, r8, #1
  1015d8:	e1a01000 	mov	r1, r0
  1015dc:	e1a00004 	mov	r0, r4
  1015e0:	e320f000 	nop	{0}
  1015e4:	e3500000 	cmp	r0, #0
  1015e8:	0afffff0 	beq	1015b0 <__gnu_unwind_pr_common+0x130>
  1015ec:	e15a0008 	cmp	sl, r8
  1015f0:	e59d7008 	ldr	r7, [sp, #8]
  1015f4:	e59db00c 	ldr	fp, [sp, #12]
  1015f8:	1a00004b 	bne	10172c <__gnu_unwind_pr_common+0x2ac>
  1015fc:	e1a00006 	mov	r0, r6
  101600:	e3a0100d 	mov	r1, #13
  101604:	ebffff3d 	bl	101300 <_Unwind_GetGR>
  101608:	e59d2010 	ldr	r2, [sp, #16]
  10160c:	e5845028 	str	r5, [r4, #40]	; 0x28
  101610:	e3a03006 	mov	r3, #6
  101614:	e5842024 	str	r2, [r4, #36]	; 0x24
  101618:	e5840020 	str	r0, [r4, #32]
  10161c:	ea00000e 	b	10165c <__gnu_unwind_pr_common+0x1dc>
  101620:	e3580001 	cmp	r8, #1
  101624:	0a000021 	beq	1016b0 <__gnu_unwind_pr_common+0x230>
  101628:	3a00001e 	bcc	1016a8 <__gnu_unwind_pr_common+0x228>
  10162c:	e3580002 	cmp	r8, #2
  101630:	1a000008 	bne	101658 <__gnu_unwind_pr_common+0x1d8>
  101634:	e5953000 	ldr	r3, [r5]
  101638:	e3570000 	cmp	r7, #0
  10163c:	e3c3a102 	bic	sl, r3, #-2147483648	; 0x80000000
  101640:	1a000033 	bne	101714 <__gnu_unwind_pr_common+0x294>
  101644:	e3530000 	cmp	r3, #0
  101648:	b2855004 	addlt	r5, r5, #4
  10164c:	e28aa001 	add	sl, sl, #1
  101650:	e085310a 	add	r3, r5, sl, lsl #2
  101654:	eaffffa5 	b	1014f0 <__gnu_unwind_pr_common+0x70>
  101658:	e3a03009 	mov	r3, #9
  10165c:	e1a00003 	mov	r0, r3
  101660:	e28dd024 	add	sp, sp, #36	; 0x24
  101664:	e8bd8ff0 	pop	{r4, r5, r6, r7, r8, r9, sl, fp, pc}
  101668:	e1a02402 	lsl	r2, r2, #8
  10166c:	e58d2014 	str	r2, [sp, #20]
  101670:	e3a02003 	mov	r2, #3
  101674:	e1cd21bc 	strh	r2, [sp, #28]
  101678:	eaffff93 	b	1014cc <__gnu_unwind_pr_common+0x4c>
  10167c:	e1a00006 	mov	r0, r6
  101680:	e28d1014 	add	r1, sp, #20
  101684:	eb00022e 	bl	101f44 <__gnu_unwind_execute>
  101688:	e3500000 	cmp	r0, #0
  10168c:	1afffff1 	bne	101658 <__gnu_unwind_pr_common+0x1d8>
  101690:	e3a03008 	mov	r3, #8
  101694:	e1a00003 	mov	r0, r3
  101698:	e28dd024 	add	sp, sp, #36	; 0x24
  10169c:	e8bd8ff0 	pop	{r4, r5, r6, r7, r8, r9, sl, fp, pc}
  1016a0:	e3570000 	cmp	r7, #0
  1016a4:	1a000042 	bne	1017b4 <__gnu_unwind_pr_common+0x334>
  1016a8:	e2853004 	add	r3, r5, #4
  1016ac:	eaffff8f 	b	1014f0 <__gnu_unwind_pr_common+0x70>
  1016b0:	e3570000 	cmp	r7, #0
  1016b4:	1a000001 	bne	1016c0 <__gnu_unwind_pr_common+0x240>
  1016b8:	e2853008 	add	r3, r5, #8
  1016bc:	eaffff8b 	b	1014f0 <__gnu_unwind_pr_common+0x70>
  1016c0:	e3a0100d 	mov	r1, #13
  1016c4:	e1a00006 	mov	r0, r6
  1016c8:	e5948020 	ldr	r8, [r4, #32]
  1016cc:	ebffff0b 	bl	101300 <_Unwind_GetGR>
  1016d0:	e1580000 	cmp	r8, r0
  1016d4:	1afffff7 	bne	1016b8 <__gnu_unwind_pr_common+0x238>
  1016d8:	e5943028 	ldr	r3, [r4, #40]	; 0x28
  1016dc:	e1550003 	cmp	r5, r3
  1016e0:	1afffff4 	bne	1016b8 <__gnu_unwind_pr_common+0x238>
  1016e4:	e1a00005 	mov	r0, r5
  1016e8:	ebfffd7a 	bl	100cd8 <selfrel_offset31>
  1016ec:	e3a0100f 	mov	r1, #15
  1016f0:	e1a02000 	mov	r2, r0
  1016f4:	e1a00006 	mov	r0, r6
  1016f8:	ebffff25 	bl	101394 <_Unwind_SetGR>
  1016fc:	e1a02004 	mov	r2, r4
  101700:	e1a00006 	mov	r0, r6
  101704:	e3a01000 	mov	r1, #0
  101708:	ebffff21 	bl	101394 <_Unwind_SetGR>
  10170c:	e3a03007 	mov	r3, #7
  101710:	eaffffd1 	b	10165c <__gnu_unwind_pr_common+0x1dc>
  101714:	e3a0100d 	mov	r1, #13
  101718:	e1a00006 	mov	r0, r6
  10171c:	e5948020 	ldr	r8, [r4, #32]
  101720:	ebfffef6 	bl	101300 <_Unwind_GetGR>
  101724:	e1580000 	cmp	r8, r0
  101728:	0a000030 	beq	1017f0 <__gnu_unwind_pr_common+0x370>
  10172c:	e5953000 	ldr	r3, [r5]
  101730:	eaffffc3 	b	101644 <__gnu_unwind_pr_common+0x1c4>
  101734:	e3570000 	cmp	r7, #0
  101738:	1affffe0 	bne	1016c0 <__gnu_unwind_pr_common+0x240>
  10173c:	e1c520d0 	ldrd	r2, [r5]
  101740:	e3730002 	cmn	r3, #2
  101744:	e1a02fa2 	lsr	r2, r2, #31
  101748:	0affffc2 	beq	101658 <__gnu_unwind_pr_common+0x1d8>
  10174c:	e3730001 	cmn	r3, #1
  101750:	e2843058 	add	r3, r4, #88	; 0x58
  101754:	e58d3010 	str	r3, [sp, #16]
  101758:	0a00004c 	beq	101890 <__gnu_unwind_pr_common+0x410>
  10175c:	e2850004 	add	r0, r5, #4
  101760:	ebfffdfa 	bl	100f50 <_Unwind_decode_typeinfo_ptr.isra.0>
  101764:	e28d3010 	add	r3, sp, #16
  101768:	e1a01000 	mov	r1, r0
  10176c:	e1a00004 	mov	r0, r4
  101770:	e320f000 	nop	{0}
  101774:	e3500000 	cmp	r0, #0
  101778:	0affffce 	beq	1016b8 <__gnu_unwind_pr_common+0x238>
  10177c:	e1a08000 	mov	r8, r0
  101780:	e3a0100d 	mov	r1, #13
  101784:	e1a00006 	mov	r0, r6
  101788:	ebfffedc 	bl	101300 <_Unwind_GetGR>
  10178c:	e3580002 	cmp	r8, #2
  101790:	e5840020 	str	r0, [r4, #32]
  101794:	1a000041 	bne	1018a0 <__gnu_unwind_pr_common+0x420>
  101798:	e59d2010 	ldr	r2, [sp, #16]
  10179c:	e1a03004 	mov	r3, r4
  1017a0:	e5a3202c 	str	r2, [r3, #44]!	; 0x2c
  1017a4:	e5843024 	str	r3, [r4, #36]	; 0x24
  1017a8:	e5845028 	str	r5, [r4, #40]	; 0x28
  1017ac:	e3a03006 	mov	r3, #6
  1017b0:	eaffffa9 	b	10165c <__gnu_unwind_pr_common+0x1dc>
  1017b4:	e1a00005 	mov	r0, r5
  1017b8:	e2855004 	add	r5, r5, #4
  1017bc:	ebfffd45 	bl	100cd8 <selfrel_offset31>
  1017c0:	e5845038 	str	r5, [r4, #56]	; 0x38
  1017c4:	e1a07000 	mov	r7, r0
  1017c8:	e1a00004 	mov	r0, r4
  1017cc:	e320f000 	nop	{0}
  1017d0:	e3500000 	cmp	r0, #0
  1017d4:	0affff9f 	beq	101658 <__gnu_unwind_pr_common+0x1d8>
  1017d8:	e1a02007 	mov	r2, r7
  1017dc:	e1a00006 	mov	r0, r6
  1017e0:	e3a0100f 	mov	r1, #15
  1017e4:	ebfffeea 	bl	101394 <_Unwind_SetGR>
  1017e8:	e3a03007 	mov	r3, #7
  1017ec:	eaffff9a 	b	10165c <__gnu_unwind_pr_common+0x1dc>
  1017f0:	e5943028 	ldr	r3, [r4, #40]	; 0x28
  1017f4:	e1550003 	cmp	r5, r3
  1017f8:	1affffcb 	bne	10172c <__gnu_unwind_pr_common+0x2ac>
  1017fc:	e3a08000 	mov	r8, #0
  101800:	e3a03004 	mov	r3, #4
  101804:	e584a028 	str	sl, [r4, #40]	; 0x28
  101808:	e5843030 	str	r3, [r4, #48]	; 0x30
  10180c:	e0853003 	add	r3, r5, r3
  101810:	e584802c 	str	r8, [r4, #44]	; 0x2c
  101814:	e5843034 	str	r3, [r4, #52]	; 0x34
  101818:	e5953000 	ldr	r3, [r5]
  10181c:	e1530008 	cmp	r3, r8
  101820:	ba000021 	blt	1018ac <__gnu_unwind_pr_common+0x42c>
  101824:	e3a03001 	mov	r3, #1
  101828:	e58d3004 	str	r3, [sp, #4]
  10182c:	eaffff86 	b	10164c <__gnu_unwind_pr_common+0x1cc>
  101830:	e28d1014 	add	r1, sp, #20
  101834:	e1a00006 	mov	r0, r6
  101838:	eb0001c1 	bl	101f44 <__gnu_unwind_execute>
  10183c:	e3500000 	cmp	r0, #0
  101840:	1affff84 	bne	101658 <__gnu_unwind_pr_common+0x1d8>
  101844:	e59d3004 	ldr	r3, [sp, #4]
  101848:	e3530000 	cmp	r3, #0
  10184c:	0affff8f 	beq	101690 <__gnu_unwind_pr_common+0x210>
  101850:	e3a0100f 	mov	r1, #15
  101854:	e1a00006 	mov	r0, r6
  101858:	ebfffea8 	bl	101300 <_Unwind_GetGR>
  10185c:	e3a0100e 	mov	r1, #14
  101860:	e1a02000 	mov	r2, r0
  101864:	e1a00006 	mov	r0, r6
  101868:	ebfffec9 	bl	101394 <_Unwind_SetGR>
  10186c:	e1a00006 	mov	r0, r6
  101870:	e3a0100f 	mov	r1, #15
  101874:	e3002000 	movw	r2, #0
  101878:	e3402000 	movt	r2, #0
  10187c:	ebfffec4 	bl	101394 <_Unwind_SetGR>
  101880:	e3a03007 	mov	r3, #7
  101884:	e1a00003 	mov	r0, r3
  101888:	e28dd024 	add	sp, sp, #36	; 0x24
  10188c:	e8bd8ff0 	pop	{r4, r5, r6, r7, r8, r9, sl, fp, pc}
  101890:	e1a00006 	mov	r0, r6
  101894:	e3a0100d 	mov	r1, #13
  101898:	ebfffe98 	bl	101300 <_Unwind_GetGR>
  10189c:	e5840020 	str	r0, [r4, #32]
  1018a0:	e59d3010 	ldr	r3, [sp, #16]
  1018a4:	e5843024 	str	r3, [r4, #36]	; 0x24
  1018a8:	eaffffbe 	b	1017a8 <__gnu_unwind_pr_common+0x328>
  1018ac:	e28a0001 	add	r0, sl, #1
  1018b0:	e0850100 	add	r0, r5, r0, lsl #2
  1018b4:	ebfffd07 	bl	100cd8 <selfrel_offset31>
  1018b8:	e3a0100f 	mov	r1, #15
  1018bc:	e1a02000 	mov	r2, r0
  1018c0:	e1a00006 	mov	r0, r6
  1018c4:	ebfffeb2 	bl	101394 <_Unwind_SetGR>
  1018c8:	e1a02004 	mov	r2, r4
  1018cc:	e1a01008 	mov	r1, r8
  1018d0:	e1a00006 	mov	r0, r6
  1018d4:	ebfffeae 	bl	101394 <_Unwind_SetGR>
  1018d8:	e3a03007 	mov	r3, #7
  1018dc:	eaffff5e 	b	10165c <__gnu_unwind_pr_common+0x1dc>

001018e0 <__aeabi_unwind_cpp_pr0>:
  1018e0:	e3a03000 	mov	r3, #0
  1018e4:	eafffee5 	b	101480 <__gnu_unwind_pr_common>

001018e8 <__aeabi_unwind_cpp_pr1>:
  1018e8:	e3a03001 	mov	r3, #1
  1018ec:	eafffee3 	b	101480 <__gnu_unwind_pr_common>

001018f0 <__aeabi_unwind_cpp_pr2>:
  1018f0:	e3a03002 	mov	r3, #2
  1018f4:	eafffee1 	b	101480 <__gnu_unwind_pr_common>

001018f8 <_Unwind_VRS_Pop>:
  1018f8:	e92d41f0 	push	{r4, r5, r6, r7, r8, lr}
  1018fc:	e1a04000 	mov	r4, r0
  101900:	e24dde11 	sub	sp, sp, #272	; 0x110
  101904:	e3510004 	cmp	r1, #4
  101908:	979ff101 	ldrls	pc, [pc, r1, lsl #2]
  10190c:	ea000006 	b	10192c <_Unwind_VRS_Pop+0x34>
  101910:	00101ac4 	.word	0x00101ac4
  101914:	001019a4 	.word	0x001019a4
  101918:	0010192c 	.word	0x0010192c
  10191c:	00101924 	.word	0x00101924
  101920:	00101938 	.word	0x00101938
  101924:	e3530003 	cmp	r3, #3
  101928:	0a000079 	beq	101b14 <_Unwind_VRS_Pop+0x21c>
  10192c:	e3a00002 	mov	r0, #2
  101930:	e28dde11 	add	sp, sp, #272	; 0x110
  101934:	e8bd81f0 	pop	{r4, r5, r6, r7, r8, pc}
  101938:	e3520010 	cmp	r2, #16
  10193c:	93530000 	cmpls	r3, #0
  101940:	1afffff9 	bne	10192c <_Unwind_VRS_Pop+0x34>
  101944:	e5903000 	ldr	r3, [r0]
  101948:	e3130010 	tst	r3, #16
  10194c:	1a0000bc 	bne	101c44 <_Unwind_VRS_Pop+0x34c>
  101950:	e28d5088 	add	r5, sp, #136	; 0x88
  101954:	e58d2004 	str	r2, [sp, #4]
  101958:	e1a00005 	mov	r0, r5
  10195c:	eb000121 	bl	101de8 <__gnu_Unwind_Save_WMMXC>
  101960:	e5941038 	ldr	r1, [r4, #56]	; 0x38
  101964:	e59d2004 	ldr	r2, [sp, #4]
  101968:	e3a03000 	mov	r3, #0
  10196c:	e3a00001 	mov	r0, #1
  101970:	e012c310 	ands	ip, r2, r0, lsl r3
  101974:	1591c000 	ldrne	ip, [r1]
  101978:	12811004 	addne	r1, r1, #4
  10197c:	1785c103 	strne	ip, [r5, r3, lsl #2]
  101980:	e2833001 	add	r3, r3, #1
  101984:	e3530004 	cmp	r3, #4
  101988:	1afffff8 	bne	101970 <_Unwind_VRS_Pop+0x78>
  10198c:	e1a00005 	mov	r0, r5
  101990:	e5841038 	str	r1, [r4, #56]	; 0x38
  101994:	eb00010e 	bl	101dd4 <__gnu_Unwind_Restore_WMMXC>
  101998:	e3a00000 	mov	r0, #0
  10199c:	e28dde11 	add	sp, sp, #272	; 0x110
  1019a0:	e8bd81f0 	pop	{r4, r5, r6, r7, r8, pc}
  1019a4:	e20310fb 	and	r1, r3, #251	; 0xfb
  1019a8:	e3510001 	cmp	r1, #1
  1019ac:	1affffde 	bne	10192c <_Unwind_VRS_Pop+0x34>
  1019b0:	e3530001 	cmp	r3, #1
  1019b4:	e1a06822 	lsr	r6, r2, #16
  1019b8:	e6ff8072 	uxth	r8, r2
  1019bc:	e0867008 	add	r7, r6, r8
  1019c0:	0a000085 	beq	101bdc <_Unwind_VRS_Pop+0x2e4>
  1019c4:	e3570020 	cmp	r7, #32
  1019c8:	8affffd7 	bhi	10192c <_Unwind_VRS_Pop+0x34>
  1019cc:	e2532005 	subs	r2, r3, #5
  1019d0:	13a02001 	movne	r2, #1
  1019d4:	e356000f 	cmp	r6, #15
  1019d8:	9a000067 	bls	101b7c <_Unwind_VRS_Pop+0x284>
  1019dc:	e3580000 	cmp	r8, #0
  1019e0:	e1a07008 	mov	r7, r8
  1019e4:	03a02000 	moveq	r2, #0
  1019e8:	e3520000 	cmp	r2, #0
  1019ec:	1affffce 	bne	10192c <_Unwind_VRS_Pop+0x34>
  1019f0:	e3570000 	cmp	r7, #0
  1019f4:	0a0000a5 	beq	101c90 <_Unwind_VRS_Pop+0x398>
  1019f8:	e5942000 	ldr	r2, [r4]
  1019fc:	e3120004 	tst	r2, #4
  101a00:	1a0000af 	bne	101cc4 <_Unwind_VRS_Pop+0x3cc>
  101a04:	e356000f 	cmp	r6, #15
  101a08:	8a000003 	bhi	101a1c <_Unwind_VRS_Pop+0x124>
  101a0c:	e28d0088 	add	r0, sp, #136	; 0x88
  101a10:	e58d3004 	str	r3, [sp, #4]
  101a14:	eb0000c6 	bl	101d34 <__gnu_Unwind_Save_VFP_D>
  101a18:	e59d3004 	ldr	r3, [sp, #4]
  101a1c:	e28d5008 	add	r5, sp, #8
  101a20:	e58d3004 	str	r3, [sp, #4]
  101a24:	e1a00005 	mov	r0, r5
  101a28:	eb0000c5 	bl	101d44 <__gnu_Unwind_Save_VFP_D_16_to_31>
  101a2c:	e2661010 	rsb	r1, r6, #16
  101a30:	e3510000 	cmp	r1, #0
  101a34:	e5942038 	ldr	r2, [r4, #56]	; 0x38
  101a38:	e59d3004 	ldr	r3, [sp, #4]
  101a3c:	da00000c 	ble	101a74 <_Unwind_VRS_Pop+0x17c>
  101a40:	e28d5088 	add	r5, sp, #136	; 0x88
  101a44:	e1a08081 	lsl	r8, r1, #1
  101a48:	e0855186 	add	r5, r5, r6, lsl #3
  101a4c:	e1a01002 	mov	r1, r2
  101a50:	e2450004 	sub	r0, r5, #4
  101a54:	e0812108 	add	r2, r1, r8, lsl #2
  101a58:	e491c004 	ldr	ip, [r1], #4
  101a5c:	e1510002 	cmp	r1, r2
  101a60:	e5a0c004 	str	ip, [r0, #4]!
  101a64:	1afffffb 	bne	101a58 <_Unwind_VRS_Pop+0x160>
  101a68:	e3570000 	cmp	r7, #0
  101a6c:	128d5008 	addne	r5, sp, #8
  101a70:	0a000009 	beq	101a9c <_Unwind_VRS_Pop+0x1a4>
  101a74:	e3560010 	cmp	r6, #16
  101a78:	e0821187 	add	r1, r2, r7, lsl #3
  101a7c:	21a00006 	movcs	r0, r6
  101a80:	33a00010 	movcc	r0, #16
  101a84:	e0850180 	add	r0, r5, r0, lsl #3
  101a88:	e2400084 	sub	r0, r0, #132	; 0x84
  101a8c:	e492c004 	ldr	ip, [r2], #4
  101a90:	e1520001 	cmp	r2, r1
  101a94:	e5a0c004 	str	ip, [r0, #4]!
  101a98:	1afffffb 	bne	101a8c <_Unwind_VRS_Pop+0x194>
  101a9c:	e3530001 	cmp	r3, #1
  101aa0:	0a000082 	beq	101cb0 <_Unwind_VRS_Pop+0x3b8>
  101aa4:	e356000f 	cmp	r6, #15
  101aa8:	e5841038 	str	r1, [r4, #56]	; 0x38
  101aac:	9a000081 	bls	101cb8 <_Unwind_VRS_Pop+0x3c0>
  101ab0:	e3570000 	cmp	r7, #0
  101ab4:	0a000013 	beq	101b08 <_Unwind_VRS_Pop+0x210>
  101ab8:	e28d0008 	add	r0, sp, #8
  101abc:	eb00009e 	bl	101d3c <__gnu_Unwind_Restore_VFP_D_16_to_31>
  101ac0:	ea000010 	b	101b08 <_Unwind_VRS_Pop+0x210>
  101ac4:	e3530000 	cmp	r3, #0
  101ac8:	1affff97 	bne	10192c <_Unwind_VRS_Pop+0x34>
  101acc:	e6ffe072 	uxth	lr, r2
  101ad0:	e590c038 	ldr	ip, [r0, #56]	; 0x38
  101ad4:	e2801004 	add	r1, r0, #4
  101ad8:	e3a00001 	mov	r0, #1
  101adc:	e01e5310 	ands	r5, lr, r0, lsl r3
  101ae0:	e2833001 	add	r3, r3, #1
  101ae4:	e2811004 	add	r1, r1, #4
  101ae8:	159c5000 	ldrne	r5, [ip]
  101aec:	128cc004 	addne	ip, ip, #4
  101af0:	15015004 	strne	r5, [r1, #-4]
  101af4:	e3530010 	cmp	r3, #16
  101af8:	1afffff7 	bne	101adc <_Unwind_VRS_Pop+0x1e4>
  101afc:	e2120a02 	ands	r0, r2, #8192	; 0x2000
  101b00:	0584c038 	streq	ip, [r4, #56]	; 0x38
  101b04:	0affff89 	beq	101930 <_Unwind_VRS_Pop+0x38>
  101b08:	e3a00000 	mov	r0, #0
  101b0c:	e28dde11 	add	sp, sp, #272	; 0x110
  101b10:	e8bd81f0 	pop	{r4, r5, r6, r7, r8, pc}
  101b14:	e1a06822 	lsr	r6, r2, #16
  101b18:	e6ff7072 	uxth	r7, r2
  101b1c:	e0863007 	add	r3, r6, r7
  101b20:	e3530010 	cmp	r3, #16
  101b24:	8affff80 	bhi	10192c <_Unwind_VRS_Pop+0x34>
  101b28:	e5903000 	ldr	r3, [r0]
  101b2c:	e3130008 	tst	r3, #8
  101b30:	1a000025 	bne	101bcc <_Unwind_VRS_Pop+0x2d4>
  101b34:	e28d5088 	add	r5, sp, #136	; 0x88
  101b38:	e1a00005 	mov	r0, r5
  101b3c:	eb000093 	bl	101d90 <__gnu_Unwind_Save_WMMXD>
  101b40:	e3570000 	cmp	r7, #0
  101b44:	e0851186 	add	r1, r5, r6, lsl #3
  101b48:	e5943038 	ldr	r3, [r4, #56]	; 0x38
  101b4c:	0a000005 	beq	101b68 <_Unwind_VRS_Pop+0x270>
  101b50:	e0832187 	add	r2, r3, r7, lsl #3
  101b54:	e5930000 	ldr	r0, [r3]
  101b58:	e2833004 	add	r3, r3, #4
  101b5c:	e1530002 	cmp	r3, r2
  101b60:	e4810004 	str	r0, [r1], #4
  101b64:	1afffffa 	bne	101b54 <_Unwind_VRS_Pop+0x25c>
  101b68:	e1a00005 	mov	r0, r5
  101b6c:	e5843038 	str	r3, [r4, #56]	; 0x38
  101b70:	eb000075 	bl	101d4c <__gnu_Unwind_Restore_WMMXD>
  101b74:	e3a00000 	mov	r0, #0
  101b78:	eaffff6c 	b	101930 <_Unwind_VRS_Pop+0x38>
  101b7c:	e3570010 	cmp	r7, #16
  101b80:	9a00005b 	bls	101cf4 <_Unwind_VRS_Pop+0x3fc>
  101b84:	e3530005 	cmp	r3, #5
  101b88:	e2477010 	sub	r7, r7, #16
  101b8c:	1affff66 	bne	10192c <_Unwind_VRS_Pop+0x34>
  101b90:	e5942000 	ldr	r2, [r4]
  101b94:	e3120001 	tst	r2, #1
  101b98:	e1a01002 	mov	r1, r2
  101b9c:	0affff96 	beq	1019fc <_Unwind_VRS_Pop+0x104>
  101ba0:	e3530005 	cmp	r3, #5
  101ba4:	e1a00004 	mov	r0, r4
  101ba8:	e3c12001 	bic	r2, r1, #1
  101bac:	e58d3004 	str	r3, [sp, #4]
  101bb0:	e4802048 	str	r2, [r0], #72	; 0x48
  101bb4:	0a000049 	beq	101ce0 <_Unwind_VRS_Pop+0x3e8>
  101bb8:	e3c11003 	bic	r1, r1, #3
  101bbc:	e5841000 	str	r1, [r4]
  101bc0:	eb000057 	bl	101d24 <__gnu_Unwind_Save_VFP>
  101bc4:	e59d3004 	ldr	r3, [sp, #4]
  101bc8:	eaffff88 	b	1019f0 <_Unwind_VRS_Pop+0xf8>
  101bcc:	e3c33008 	bic	r3, r3, #8
  101bd0:	e4803150 	str	r3, [r0], #336	; 0x150
  101bd4:	eb00006d 	bl	101d90 <__gnu_Unwind_Save_WMMXD>
  101bd8:	eaffffd5 	b	101b34 <_Unwind_VRS_Pop+0x23c>
  101bdc:	e3570010 	cmp	r7, #16
  101be0:	8affff51 	bhi	10192c <_Unwind_VRS_Pop+0x34>
  101be4:	e356000f 	cmp	r6, #15
  101be8:	8affff4f 	bhi	10192c <_Unwind_VRS_Pop+0x34>
  101bec:	e5902000 	ldr	r2, [r0]
  101bf0:	e3120001 	tst	r2, #1
  101bf4:	0a000005 	beq	101c10 <_Unwind_VRS_Pop+0x318>
  101bf8:	e1a00004 	mov	r0, r4
  101bfc:	e3c22003 	bic	r2, r2, #3
  101c00:	e4802048 	str	r2, [r0], #72	; 0x48
  101c04:	e58d3004 	str	r3, [sp, #4]
  101c08:	eb000045 	bl	101d24 <__gnu_Unwind_Save_VFP>
  101c0c:	e59d3004 	ldr	r3, [sp, #4]
  101c10:	e28d5088 	add	r5, sp, #136	; 0x88
  101c14:	e58d3004 	str	r3, [sp, #4]
  101c18:	e1a00005 	mov	r0, r5
  101c1c:	eb000040 	bl	101d24 <__gnu_Unwind_Save_VFP>
  101c20:	e3580000 	cmp	r8, #0
  101c24:	e5941038 	ldr	r1, [r4, #56]	; 0x38
  101c28:	e59d3004 	ldr	r3, [sp, #4]
  101c2c:	1a000013 	bne	101c80 <_Unwind_VRS_Pop+0x388>
  101c30:	e2811004 	add	r1, r1, #4
  101c34:	e1a00005 	mov	r0, r5
  101c38:	e5841038 	str	r1, [r4, #56]	; 0x38
  101c3c:	eb000036 	bl	101d1c <__gnu_Unwind_Restore_VFP>
  101c40:	eaffffb0 	b	101b08 <_Unwind_VRS_Pop+0x210>
  101c44:	e3c33010 	bic	r3, r3, #16
  101c48:	e48031d0 	str	r3, [r0], #464	; 0x1d0
  101c4c:	e58d2004 	str	r2, [sp, #4]
  101c50:	eb000064 	bl	101de8 <__gnu_Unwind_Save_WMMXC>
  101c54:	e59d2004 	ldr	r2, [sp, #4]
  101c58:	eaffff3c 	b	101950 <_Unwind_VRS_Pop+0x58>
  101c5c:	e28d5088 	add	r5, sp, #136	; 0x88
  101c60:	e58d3004 	str	r3, [sp, #4]
  101c64:	e1a07008 	mov	r7, r8
  101c68:	e1a00005 	mov	r0, r5
  101c6c:	eb000030 	bl	101d34 <__gnu_Unwind_Save_VFP_D>
  101c70:	e3580000 	cmp	r8, #0
  101c74:	e5941038 	ldr	r1, [r4, #56]	; 0x38
  101c78:	e59d3004 	ldr	r3, [sp, #4]
  101c7c:	0affff86 	beq	101a9c <_Unwind_VRS_Pop+0x1a4>
  101c80:	e1a08088 	lsl	r8, r8, #1
  101c84:	e0855186 	add	r5, r5, r6, lsl #3
  101c88:	e3a07000 	mov	r7, #0
  101c8c:	eaffff6f 	b	101a50 <_Unwind_VRS_Pop+0x158>
  101c90:	e356000f 	cmp	r6, #15
  101c94:	9afffff0 	bls	101c5c <_Unwind_VRS_Pop+0x364>
  101c98:	e3580000 	cmp	r8, #0
  101c9c:	e1a07008 	mov	r7, r8
  101ca0:	e5941038 	ldr	r1, [r4, #56]	; 0x38
  101ca4:	128d5088 	addne	r5, sp, #136	; 0x88
  101ca8:	1afffff4 	bne	101c80 <_Unwind_VRS_Pop+0x388>
  101cac:	eaffff7c 	b	101aa4 <_Unwind_VRS_Pop+0x1ac>
  101cb0:	e28d5088 	add	r5, sp, #136	; 0x88
  101cb4:	eaffffdd 	b	101c30 <_Unwind_VRS_Pop+0x338>
  101cb8:	e28d0088 	add	r0, sp, #136	; 0x88
  101cbc:	eb00001a 	bl	101d2c <__gnu_Unwind_Restore_VFP_D>
  101cc0:	eaffff7a 	b	101ab0 <_Unwind_VRS_Pop+0x1b8>
  101cc4:	e1a00004 	mov	r0, r4
  101cc8:	e3c22004 	bic	r2, r2, #4
  101ccc:	e48020d0 	str	r2, [r0], #208	; 0xd0
  101cd0:	e58d3004 	str	r3, [sp, #4]
  101cd4:	eb00001a 	bl	101d44 <__gnu_Unwind_Save_VFP_D_16_to_31>
  101cd8:	e59d3004 	ldr	r3, [sp, #4]
  101cdc:	eaffff48 	b	101a04 <_Unwind_VRS_Pop+0x10c>
  101ce0:	e3822002 	orr	r2, r2, #2
  101ce4:	e5842000 	str	r2, [r4]
  101ce8:	eb000011 	bl	101d34 <__gnu_Unwind_Save_VFP_D>
  101cec:	e59d3004 	ldr	r3, [sp, #4]
  101cf0:	eaffff3e 	b	1019f0 <_Unwind_VRS_Pop+0xf8>
  101cf4:	e5941000 	ldr	r1, [r4]
  101cf8:	e3110001 	tst	r1, #1
  101cfc:	0affffe3 	beq	101c90 <_Unwind_VRS_Pop+0x398>
  101d00:	e3a07000 	mov	r7, #0
  101d04:	eaffffa5 	b	101ba0 <_Unwind_VRS_Pop+0x2a8>

00101d08 <__restore_core_regs>:
  101d08:	e2801034 	add	r1, r0, #52	; 0x34
  101d0c:	e8910038 	ldm	r1, {r3, r4, r5}
  101d10:	e92d0038 	push	{r3, r4, r5}
  101d14:	e8900fff 	ldm	r0, {r0, r1, r2, r3, r4, r5, r6, r7, r8, r9, sl, fp}
  101d18:	e89de000 	ldm	sp, {sp, lr, pc}

00101d1c <__gnu_Unwind_Restore_VFP>:
  101d1c:	ec900b21 	fldmiax	r0, {d0-d15}	;@ Deprecated
  101d20:	e12fff1e 	bx	lr

00101d24 <__gnu_Unwind_Save_VFP>:
  101d24:	ec800b21 	fstmiax	r0, {d0-d15}	;@ Deprecated
  101d28:	e12fff1e 	bx	lr

00101d2c <__gnu_Unwind_Restore_VFP_D>:
  101d2c:	ec900b20 	vldmia	r0, {d0-d15}
  101d30:	e12fff1e 	bx	lr

00101d34 <__gnu_Unwind_Save_VFP_D>:
  101d34:	ec800b20 	vstmia	r0, {d0-d15}
  101d38:	e12fff1e 	bx	lr

00101d3c <__gnu_Unwind_Restore_VFP_D_16_to_31>:
  101d3c:	ecd00b20 	vldmia	r0, {d16-d31}
  101d40:	e12fff1e 	bx	lr

00101d44 <__gnu_Unwind_Save_VFP_D_16_to_31>:
  101d44:	ecc00b20 	vstmia	r0, {d16-d31}
  101d48:	e12fff1e 	bx	lr

00101d4c <__gnu_Unwind_Restore_WMMXD>:
  101d4c:	ecf00102 	ldfe	f0, [r0], #8
  101d50:	ecf01102 	ldfe	f1, [r0], #8
  101d54:	ecf02102 	ldfe	f2, [r0], #8
  101d58:	ecf03102 	ldfe	f3, [r0], #8
  101d5c:	ecf04102 	ldfe	f4, [r0], #8
  101d60:	ecf05102 	ldfe	f5, [r0], #8
  101d64:	ecf06102 	ldfe	f6, [r0], #8
  101d68:	ecf07102 	ldfe	f7, [r0], #8
  101d6c:	ecf08102 	ldfp	f0, [r0], #8
  101d70:	ecf09102 	ldfp	f1, [r0], #8
  101d74:	ecf0a102 	ldfp	f2, [r0], #8
  101d78:	ecf0b102 	ldfp	f3, [r0], #8
  101d7c:	ecf0c102 	ldfp	f4, [r0], #8
  101d80:	ecf0d102 	ldfp	f5, [r0], #8
  101d84:	ecf0e102 	ldfp	f6, [r0], #8
  101d88:	ecf0f102 	ldfp	f7, [r0], #8
  101d8c:	e12fff1e 	bx	lr

00101d90 <__gnu_Unwind_Save_WMMXD>:
  101d90:	ece00102 	stfe	f0, [r0], #8
  101d94:	ece01102 	stfe	f1, [r0], #8
  101d98:	ece02102 	stfe	f2, [r0], #8
  101d9c:	ece03102 	stfe	f3, [r0], #8
  101da0:	ece04102 	stfe	f4, [r0], #8
  101da4:	ece05102 	stfe	f5, [r0], #8
  101da8:	ece06102 	stfe	f6, [r0], #8
  101dac:	ece07102 	stfe	f7, [r0], #8
  101db0:	ece08102 	stfp	f0, [r0], #8
  101db4:	ece09102 	stfp	f1, [r0], #8
  101db8:	ece0a102 	stfp	f2, [r0], #8
  101dbc:	ece0b102 	stfp	f3, [r0], #8
  101dc0:	ece0c102 	stfp	f4, [r0], #8
  101dc4:	ece0d102 	stfp	f5, [r0], #8
  101dc8:	ece0e102 	stfp	f6, [r0], #8
  101dcc:	ece0f102 	stfp	f7, [r0], #8
  101dd0:	e12fff1e 	bx	lr

00101dd4 <__gnu_Unwind_Restore_WMMXC>:
  101dd4:	fcb08101 	ldc2	1, cr8, [r0], #4
  101dd8:	fcb09101 	ldc2	1, cr9, [r0], #4
  101ddc:	fcb0a101 	ldc2	1, cr10, [r0], #4
  101de0:	fcb0b101 	ldc2	1, cr11, [r0], #4
  101de4:	e12fff1e 	bx	lr

00101de8 <__gnu_Unwind_Save_WMMXC>:
  101de8:	fca08101 	stc2	1, cr8, [r0], #4
  101dec:	fca09101 	stc2	1, cr9, [r0], #4
  101df0:	fca0a101 	stc2	1, cr10, [r0], #4
  101df4:	fca0b101 	stc2	1, cr11, [r0], #4
  101df8:	e12fff1e 	bx	lr

00101dfc <_Unwind_RaiseException>:
  101dfc:	e92de000 	push	{sp, lr, pc}
  101e00:	e92d1fff 	push	{r0, r1, r2, r3, r4, r5, r6, r7, r8, r9, sl, fp, ip}
  101e04:	e3a03000 	mov	r3, #0
  101e08:	e92d000c 	push	{r2, r3}
  101e0c:	e28d1004 	add	r1, sp, #4
  101e10:	ebfffcc1 	bl	10111c <__gnu_Unwind_RaiseException>
  101e14:	e59de040 	ldr	lr, [sp, #64]	; 0x40
  101e18:	e28dd048 	add	sp, sp, #72	; 0x48
  101e1c:	e12fff1e 	bx	lr

00101e20 <_Unwind_Resume>:
  101e20:	e92de000 	push	{sp, lr, pc}
  101e24:	e92d1fff 	push	{r0, r1, r2, r3, r4, r5, r6, r7, r8, r9, sl, fp, ip}
  101e28:	e3a03000 	mov	r3, #0
  101e2c:	e92d000c 	push	{r2, r3}
  101e30:	e28d1004 	add	r1, sp, #4
  101e34:	ebfffceb 	bl	1011e8 <__gnu_Unwind_Resume>
  101e38:	e59de040 	ldr	lr, [sp, #64]	; 0x40
  101e3c:	e28dd048 	add	sp, sp, #72	; 0x48
  101e40:	e12fff1e 	bx	lr

00101e44 <_Unwind_Resume_or_Rethrow>:
  101e44:	e92de000 	push	{sp, lr, pc}
  101e48:	e92d1fff 	push	{r0, r1, r2, r3, r4, r5, r6, r7, r8, r9, sl, fp, ip}
  101e4c:	e3a03000 	mov	r3, #0
  101e50:	e92d000c 	push	{r2, r3}
  101e54:	e28d1004 	add	r1, sp, #4
  101e58:	ebfffcff 	bl	10125c <__gnu_Unwind_Resume_or_Rethrow>
  101e5c:	e59de040 	ldr	lr, [sp, #64]	; 0x40
  101e60:	e28dd048 	add	sp, sp, #72	; 0x48
  101e64:	e12fff1e 	bx	lr

00101e68 <_Unwind_ForcedUnwind>:
  101e68:	e92de000 	push	{sp, lr, pc}
  101e6c:	e92d1fff 	push	{r0, r1, r2, r3, r4, r5, r6, r7, r8, r9, sl, fp, ip}
  101e70:	e3a03000 	mov	r3, #0
  101e74:	e92d000c 	push	{r2, r3}
  101e78:	e28d3004 	add	r3, sp, #4
  101e7c:	ebfffcd0 	bl	1011c4 <__gnu_Unwind_ForcedUnwind>
  101e80:	e59de040 	ldr	lr, [sp, #64]	; 0x40
  101e84:	e28dd048 	add	sp, sp, #72	; 0x48
  101e88:	e12fff1e 	bx	lr

00101e8c <_Unwind_Backtrace>:
  101e8c:	e92de000 	push	{sp, lr, pc}
  101e90:	e92d1fff 	push	{r0, r1, r2, r3, r4, r5, r6, r7, r8, r9, sl, fp, ip}
  101e94:	e3a03000 	mov	r3, #0
  101e98:	e92d000c 	push	{r2, r3}
  101e9c:	e28d2004 	add	r2, sp, #4
  101ea0:	ebfffd46 	bl	1013c0 <__gnu_Unwind_Backtrace>
  101ea4:	e59de040 	ldr	lr, [sp, #64]	; 0x40
  101ea8:	e28dd048 	add	sp, sp, #72	; 0x48
  101eac:	e12fff1e 	bx	lr

00101eb0 <next_unwind_byte>:
  101eb0:	e5d02008 	ldrb	r2, [r0, #8]
  101eb4:	e1a03000 	mov	r3, r0
  101eb8:	e3520000 	cmp	r2, #0
  101ebc:	1a00000b 	bne	101ef0 <next_unwind_byte+0x40>
  101ec0:	e5d02009 	ldrb	r2, [r0, #9]
  101ec4:	e3520000 	cmp	r2, #0
  101ec8:	0a00000f 	beq	101f0c <next_unwind_byte+0x5c>
  101ecc:	e5901004 	ldr	r1, [r0, #4]
  101ed0:	e2422001 	sub	r2, r2, #1
  101ed4:	e3a0c003 	mov	ip, #3
  101ed8:	e5c02009 	strb	r2, [r0, #9]
  101edc:	e2812004 	add	r2, r1, #4
  101ee0:	e5802004 	str	r2, [r0, #4]
  101ee4:	e5910000 	ldr	r0, [r1]
  101ee8:	e5c3c008 	strb	ip, [r3, #8]
  101eec:	ea000002 	b	101efc <next_unwind_byte+0x4c>
  101ef0:	e5900000 	ldr	r0, [r0]
  101ef4:	e2422001 	sub	r2, r2, #1
  101ef8:	e5c32008 	strb	r2, [r3, #8]
  101efc:	e1a02400 	lsl	r2, r0, #8
  101f00:	e1a00c20 	lsr	r0, r0, #24
  101f04:	e5832000 	str	r2, [r3]
  101f08:	e12fff1e 	bx	lr
  101f0c:	e3a000b0 	mov	r0, #176	; 0xb0
  101f10:	e12fff1e 	bx	lr

00101f14 <_Unwind_GetGR.constprop.0>:
  101f14:	e52de004 	push	{lr}		; (str lr, [sp, #-4]!)
  101f18:	e24dd014 	sub	sp, sp, #20
  101f1c:	e3a03000 	mov	r3, #0
  101f20:	e28d200c 	add	r2, sp, #12
  101f24:	e1a01003 	mov	r1, r3
  101f28:	e58d2000 	str	r2, [sp]
  101f2c:	e3a0200c 	mov	r2, #12
  101f30:	ebfffcd8 	bl	101298 <_Unwind_VRS_Get>
  101f34:	e59d000c 	ldr	r0, [sp, #12]
  101f38:	e28dd014 	add	sp, sp, #20
  101f3c:	e49df004 	pop	{pc}		; (ldr pc, [sp], #4)

00101f40 <unwind_UCB_from_context>:
  101f40:	eafffff3 	b	101f14 <_Unwind_GetGR.constprop.0>

00101f44 <__gnu_unwind_execute>:
  101f44:	e92d43f0 	push	{r4, r5, r6, r7, r8, r9, lr}
  101f48:	e24dd014 	sub	sp, sp, #20
  101f4c:	e1a06000 	mov	r6, r0
  101f50:	e1a05001 	mov	r5, r1
  101f54:	e3a07000 	mov	r7, #0
  101f58:	e1a00005 	mov	r0, r5
  101f5c:	ebffffd3 	bl	101eb0 <next_unwind_byte>
  101f60:	e35000b0 	cmp	r0, #176	; 0xb0
  101f64:	e1a04000 	mov	r4, r0
  101f68:	0a000087 	beq	10218c <__gnu_unwind_execute+0x248>
  101f6c:	e3100080 	tst	r0, #128	; 0x80
  101f70:	0a000019 	beq	101fdc <__gnu_unwind_execute+0x98>
  101f74:	e20030f0 	and	r3, r0, #240	; 0xf0
  101f78:	e3530080 	cmp	r3, #128	; 0x80
  101f7c:	0a00004a 	beq	1020ac <__gnu_unwind_execute+0x168>
  101f80:	e3530090 	cmp	r3, #144	; 0x90
  101f84:	0a000037 	beq	102068 <__gnu_unwind_execute+0x124>
  101f88:	e35300a0 	cmp	r3, #160	; 0xa0
  101f8c:	0a000057 	beq	1020f0 <__gnu_unwind_execute+0x1ac>
  101f90:	e35300b0 	cmp	r3, #176	; 0xb0
  101f94:	0a000026 	beq	102034 <__gnu_unwind_execute+0xf0>
  101f98:	e35300c0 	cmp	r3, #192	; 0xc0
  101f9c:	0a000061 	beq	102128 <__gnu_unwind_execute+0x1e4>
  101fa0:	e20030f8 	and	r3, r0, #248	; 0xf8
  101fa4:	e35300d0 	cmp	r3, #208	; 0xd0
  101fa8:	1a000008 	bne	101fd0 <__gnu_unwind_execute+0x8c>
  101fac:	e2002007 	and	r2, r0, #7
  101fb0:	e3a03005 	mov	r3, #5
  101fb4:	e2822001 	add	r2, r2, #1
  101fb8:	e3a01001 	mov	r1, #1
  101fbc:	e3822702 	orr	r2, r2, #524288	; 0x80000
  101fc0:	e1a00006 	mov	r0, r6
  101fc4:	ebfffe4b 	bl	1018f8 <_Unwind_VRS_Pop>
  101fc8:	e3500000 	cmp	r0, #0
  101fcc:	0affffe1 	beq	101f58 <__gnu_unwind_execute+0x14>
  101fd0:	e3a00009 	mov	r0, #9
  101fd4:	e28dd014 	add	sp, sp, #20
  101fd8:	e8bd83f0 	pop	{r4, r5, r6, r7, r8, r9, pc}
  101fdc:	e1a0c100 	lsl	ip, r0, #2
  101fe0:	e3a03000 	mov	r3, #0
  101fe4:	e1a01003 	mov	r1, r3
  101fe8:	e28d900c 	add	r9, sp, #12
  101fec:	e6efc07c 	uxtb	ip, ip
  101ff0:	e58d9000 	str	r9, [sp]
  101ff4:	e3a0200d 	mov	r2, #13
  101ff8:	e1a00006 	mov	r0, r6
  101ffc:	e28c8004 	add	r8, ip, #4
  102000:	ebfffca4 	bl	101298 <_Unwind_VRS_Get>
  102004:	e59dc00c 	ldr	ip, [sp, #12]
  102008:	e3a03000 	mov	r3, #0
  10200c:	e3140040 	tst	r4, #64	; 0x40
  102010:	e58d9000 	str	r9, [sp]
  102014:	e1a01003 	mov	r1, r3
  102018:	e3a0200d 	mov	r2, #13
  10201c:	e1a00006 	mov	r0, r6
  102020:	104cc008 	subne	ip, ip, r8
  102024:	008cc008 	addeq	ip, ip, r8
  102028:	e58dc00c 	str	ip, [sp, #12]
  10202c:	ebfffcbe 	bl	10132c <_Unwind_VRS_Set>
  102030:	eaffffc8 	b	101f58 <__gnu_unwind_execute+0x14>
  102034:	e35000b1 	cmp	r0, #177	; 0xb1
  102038:	0a000065 	beq	1021d4 <__gnu_unwind_execute+0x290>
  10203c:	e35000b2 	cmp	r0, #178	; 0xb2
  102040:	0a00009f 	beq	1022c4 <__gnu_unwind_execute+0x380>
  102044:	e35000b3 	cmp	r0, #179	; 0xb3
  102048:	0a000068 	beq	1021f0 <__gnu_unwind_execute+0x2ac>
  10204c:	e20030fc 	and	r3, r0, #252	; 0xfc
  102050:	e35300b4 	cmp	r3, #180	; 0xb4
  102054:	0affffdd 	beq	101fd0 <__gnu_unwind_execute+0x8c>
  102058:	e2002007 	and	r2, r0, #7
  10205c:	e3a03001 	mov	r3, #1
  102060:	e0822003 	add	r2, r2, r3
  102064:	eaffffd3 	b	101fb8 <__gnu_unwind_execute+0x74>
  102068:	e200300d 	and	r3, r0, #13
  10206c:	e353000d 	cmp	r3, #13
  102070:	0affffd6 	beq	101fd0 <__gnu_unwind_execute+0x8c>
  102074:	e3a03000 	mov	r3, #0
  102078:	e200200f 	and	r2, r0, #15
  10207c:	e1a01003 	mov	r1, r3
  102080:	e28d400c 	add	r4, sp, #12
  102084:	e1a00006 	mov	r0, r6
  102088:	e58d4000 	str	r4, [sp]
  10208c:	ebfffc81 	bl	101298 <_Unwind_VRS_Get>
  102090:	e3a03000 	mov	r3, #0
  102094:	e58d4000 	str	r4, [sp]
  102098:	e1a01003 	mov	r1, r3
  10209c:	e3a0200d 	mov	r2, #13
  1020a0:	e1a00006 	mov	r0, r6
  1020a4:	ebfffca0 	bl	10132c <_Unwind_VRS_Set>
  1020a8:	eaffffaa 	b	101f58 <__gnu_unwind_execute+0x14>
  1020ac:	e1a00005 	mov	r0, r5
  1020b0:	e1a04404 	lsl	r4, r4, #8
  1020b4:	ebffff7d 	bl	101eb0 <next_unwind_byte>
  1020b8:	e1804004 	orr	r4, r0, r4
  1020bc:	e3540902 	cmp	r4, #32768	; 0x8000
  1020c0:	0affffc2 	beq	101fd0 <__gnu_unwind_execute+0x8c>
  1020c4:	e1a04204 	lsl	r4, r4, #4
  1020c8:	e3a03000 	mov	r3, #0
  1020cc:	e1a01003 	mov	r1, r3
  1020d0:	e1a00006 	mov	r0, r6
  1020d4:	e6ff2074 	uxth	r2, r4
  1020d8:	ebfffe06 	bl	1018f8 <_Unwind_VRS_Pop>
  1020dc:	e3500000 	cmp	r0, #0
  1020e0:	1affffba 	bne	101fd0 <__gnu_unwind_execute+0x8c>
  1020e4:	e3140902 	tst	r4, #32768	; 0x8000
  1020e8:	13a07001 	movne	r7, #1
  1020ec:	eaffff99 	b	101f58 <__gnu_unwind_execute+0x14>
  1020f0:	e1e04000 	mvn	r4, r0
  1020f4:	e3a02eff 	mov	r2, #4080	; 0xff0
  1020f8:	e2044007 	and	r4, r4, #7
  1020fc:	e3100008 	tst	r0, #8
  102100:	e1a02452 	asr	r2, r2, r4
  102104:	e3a03000 	mov	r3, #0
  102108:	e2022eff 	and	r2, r2, #4080	; 0xff0
  10210c:	13822901 	orrne	r2, r2, #16384	; 0x4000
  102110:	e1a01003 	mov	r1, r3
  102114:	e1a00006 	mov	r0, r6
  102118:	ebfffdf6 	bl	1018f8 <_Unwind_VRS_Pop>
  10211c:	e3500000 	cmp	r0, #0
  102120:	0affff8c 	beq	101f58 <__gnu_unwind_execute+0x14>
  102124:	eaffffa9 	b	101fd0 <__gnu_unwind_execute+0x8c>
  102128:	e35000c6 	cmp	r0, #198	; 0xc6
  10212c:	0a000038 	beq	102214 <__gnu_unwind_execute+0x2d0>
  102130:	e35000c7 	cmp	r0, #199	; 0xc7
  102134:	0a00003e 	beq	102234 <__gnu_unwind_execute+0x2f0>
  102138:	e20030f8 	and	r3, r0, #248	; 0xf8
  10213c:	e35300c0 	cmp	r3, #192	; 0xc0
  102140:	0a000047 	beq	102264 <__gnu_unwind_execute+0x320>
  102144:	e35000c8 	cmp	r0, #200	; 0xc8
  102148:	0a00004f 	beq	10228c <__gnu_unwind_execute+0x348>
  10214c:	e35000c9 	cmp	r0, #201	; 0xc9
  102150:	1affff9e 	bne	101fd0 <__gnu_unwind_execute+0x8c>
  102154:	e1a00005 	mov	r0, r5
  102158:	ebffff54 	bl	101eb0 <next_unwind_byte>
  10215c:	e3a03005 	mov	r3, #5
  102160:	e3a01001 	mov	r1, #1
  102164:	e1a02600 	lsl	r2, r0, #12
  102168:	e200000f 	and	r0, r0, #15
  10216c:	e2800001 	add	r0, r0, #1
  102170:	e202280f 	and	r2, r2, #983040	; 0xf0000
  102174:	e1802002 	orr	r2, r0, r2
  102178:	e1a00006 	mov	r0, r6
  10217c:	ebfffddd 	bl	1018f8 <_Unwind_VRS_Pop>
  102180:	e3500000 	cmp	r0, #0
  102184:	0affff73 	beq	101f58 <__gnu_unwind_execute+0x14>
  102188:	eaffff90 	b	101fd0 <__gnu_unwind_execute+0x8c>
  10218c:	e3570000 	cmp	r7, #0
  102190:	13a00000 	movne	r0, #0
  102194:	1affff8e 	bne	101fd4 <__gnu_unwind_execute+0x90>
  102198:	e28d400c 	add	r4, sp, #12
  10219c:	e1a03007 	mov	r3, r7
  1021a0:	e3a0200e 	mov	r2, #14
  1021a4:	e1a01007 	mov	r1, r7
  1021a8:	e58d4000 	str	r4, [sp]
  1021ac:	e1a00006 	mov	r0, r6
  1021b0:	ebfffc38 	bl	101298 <_Unwind_VRS_Get>
  1021b4:	e58d4000 	str	r4, [sp]
  1021b8:	e1a00006 	mov	r0, r6
  1021bc:	e1a03007 	mov	r3, r7
  1021c0:	e3a0200f 	mov	r2, #15
  1021c4:	e1a01007 	mov	r1, r7
  1021c8:	ebfffc57 	bl	10132c <_Unwind_VRS_Set>
  1021cc:	e1a00007 	mov	r0, r7
  1021d0:	eaffff7f 	b	101fd4 <__gnu_unwind_execute+0x90>
  1021d4:	e1a00005 	mov	r0, r5
  1021d8:	ebffff34 	bl	101eb0 <next_unwind_byte>
  1021dc:	e2502000 	subs	r2, r0, #0
  1021e0:	0affff7a 	beq	101fd0 <__gnu_unwind_execute+0x8c>
  1021e4:	e21230f0 	ands	r3, r2, #240	; 0xf0
  1021e8:	0affffc8 	beq	102110 <__gnu_unwind_execute+0x1cc>
  1021ec:	eaffff77 	b	101fd0 <__gnu_unwind_execute+0x8c>
  1021f0:	e1a00005 	mov	r0, r5
  1021f4:	ebffff2d 	bl	101eb0 <next_unwind_byte>
  1021f8:	e3a03001 	mov	r3, #1
  1021fc:	e1a01600 	lsl	r1, r0, #12
  102200:	e200000f 	and	r0, r0, #15
  102204:	e201180f 	and	r1, r1, #983040	; 0xf0000
  102208:	e2802001 	add	r2, r0, #1
  10220c:	e1822001 	orr	r2, r2, r1
  102210:	eaffffbe 	b	102110 <__gnu_unwind_execute+0x1cc>
  102214:	e1a00005 	mov	r0, r5
  102218:	ebffff24 	bl	101eb0 <next_unwind_byte>
  10221c:	e3a03003 	mov	r3, #3
  102220:	e1a01600 	lsl	r1, r0, #12
  102224:	e200000f 	and	r0, r0, #15
  102228:	e201180f 	and	r1, r1, #983040	; 0xf0000
  10222c:	e2802001 	add	r2, r0, #1
  102230:	eafffff5 	b	10220c <__gnu_unwind_execute+0x2c8>
  102234:	e1a00005 	mov	r0, r5
  102238:	ebffff1c 	bl	101eb0 <next_unwind_byte>
  10223c:	e2502000 	subs	r2, r0, #0
  102240:	0affff62 	beq	101fd0 <__gnu_unwind_execute+0x8c>
  102244:	e21230f0 	ands	r3, r2, #240	; 0xf0
  102248:	1affff60 	bne	101fd0 <__gnu_unwind_execute+0x8c>
  10224c:	e3a01004 	mov	r1, #4
  102250:	e1a00006 	mov	r0, r6
  102254:	ebfffda7 	bl	1018f8 <_Unwind_VRS_Pop>
  102258:	e3500000 	cmp	r0, #0
  10225c:	0affff3d 	beq	101f58 <__gnu_unwind_execute+0x14>
  102260:	eaffff5a 	b	101fd0 <__gnu_unwind_execute+0x8c>
  102264:	e200200f 	and	r2, r0, #15
  102268:	e3a03003 	mov	r3, #3
  10226c:	e2822001 	add	r2, r2, #1
  102270:	e1a01003 	mov	r1, r3
  102274:	e382280a 	orr	r2, r2, #655360	; 0xa0000
  102278:	e1a00006 	mov	r0, r6
  10227c:	ebfffd9d 	bl	1018f8 <_Unwind_VRS_Pop>
  102280:	e3500000 	cmp	r0, #0
  102284:	0affff33 	beq	101f58 <__gnu_unwind_execute+0x14>
  102288:	eaffff50 	b	101fd0 <__gnu_unwind_execute+0x8c>
  10228c:	e1a00005 	mov	r0, r5
  102290:	ebffff06 	bl	101eb0 <next_unwind_byte>
  102294:	e3a03005 	mov	r3, #5
  102298:	e3a01001 	mov	r1, #1
  10229c:	e200c0f0 	and	ip, r0, #240	; 0xf0
  1022a0:	e200000f 	and	r0, r0, #15
  1022a4:	e28cc010 	add	ip, ip, #16
  1022a8:	e2802001 	add	r2, r0, #1
  1022ac:	e1a00006 	mov	r0, r6
  1022b0:	e182260c 	orr	r2, r2, ip, lsl #12
  1022b4:	ebfffd8f 	bl	1018f8 <_Unwind_VRS_Pop>
  1022b8:	e3500000 	cmp	r0, #0
  1022bc:	0affff25 	beq	101f58 <__gnu_unwind_execute+0x14>
  1022c0:	eaffff42 	b	101fd0 <__gnu_unwind_execute+0x8c>
  1022c4:	e3a03000 	mov	r3, #0
  1022c8:	e3a0200d 	mov	r2, #13
  1022cc:	e1a01003 	mov	r1, r3
  1022d0:	e28d900c 	add	r9, sp, #12
  1022d4:	e1a00006 	mov	r0, r6
  1022d8:	e58d9000 	str	r9, [sp]
  1022dc:	ebfffbed 	bl	101298 <_Unwind_VRS_Get>
  1022e0:	e1a00005 	mov	r0, r5
  1022e4:	ebfffef1 	bl	101eb0 <next_unwind_byte>
  1022e8:	e3a04002 	mov	r4, #2
  1022ec:	e3100080 	tst	r0, #128	; 0x80
  1022f0:	0a000008 	beq	102318 <__gnu_unwind_execute+0x3d4>
  1022f4:	e59d200c 	ldr	r2, [sp, #12]
  1022f8:	e200307f 	and	r3, r0, #127	; 0x7f
  1022fc:	e1a00005 	mov	r0, r5
  102300:	e0823413 	add	r3, r2, r3, lsl r4
  102304:	e58d300c 	str	r3, [sp, #12]
  102308:	ebfffee8 	bl	101eb0 <next_unwind_byte>
  10230c:	e2844007 	add	r4, r4, #7
  102310:	e3100080 	tst	r0, #128	; 0x80
  102314:	1afffff6 	bne	1022f4 <__gnu_unwind_execute+0x3b0>
  102318:	e59d200c 	ldr	r2, [sp, #12]
  10231c:	e200007f 	and	r0, r0, #127	; 0x7f
  102320:	e3a03000 	mov	r3, #0
  102324:	e58d9000 	str	r9, [sp]
  102328:	e2822f81 	add	r2, r2, #516	; 0x204
  10232c:	e1a01003 	mov	r1, r3
  102330:	e0824410 	add	r4, r2, r0, lsl r4
  102334:	e3a0200d 	mov	r2, #13
  102338:	e1a00006 	mov	r0, r6
  10233c:	e58d400c 	str	r4, [sp, #12]
  102340:	ebfffbf9 	bl	10132c <_Unwind_VRS_Set>
  102344:	eaffff03 	b	101f58 <__gnu_unwind_execute+0x14>

00102348 <__gnu_unwind_frame>:
  102348:	e590204c 	ldr	r2, [r0, #76]	; 0x4c
  10234c:	e1a00001 	mov	r0, r1
  102350:	e52de004 	push	{lr}		; (str lr, [sp, #-4]!)
  102354:	e24dd014 	sub	sp, sp, #20
  102358:	e5923004 	ldr	r3, [r2, #4]
  10235c:	e282c008 	add	ip, r2, #8
  102360:	e3a0e003 	mov	lr, #3
  102364:	e5cde00c 	strb	lr, [sp, #12]
  102368:	e5d22007 	ldrb	r2, [r2, #7]
  10236c:	e28d1004 	add	r1, sp, #4
  102370:	e1a03403 	lsl	r3, r3, #8
  102374:	e98d1008 	stmib	sp, {r3, ip}
  102378:	e5cd200d 	strb	r2, [sp, #13]
  10237c:	ebfffef0 	bl	101f44 <__gnu_unwind_execute>
  102380:	e28dd014 	add	sp, sp, #20
  102384:	e49df004 	pop	{pc}		; (ldr pc, [sp], #4)

00102388 <_Unwind_GetRegionStart>:
  102388:	e92d4010 	push	{r4, lr}
  10238c:	ebfffeeb 	bl	101f40 <unwind_UCB_from_context>
  102390:	e5900048 	ldr	r0, [r0, #72]	; 0x48
  102394:	e8bd8010 	pop	{r4, pc}

00102398 <_Unwind_GetLanguageSpecificData>:
  102398:	e92d4010 	push	{r4, lr}
  10239c:	ebfffee7 	bl	101f40 <unwind_UCB_from_context>
  1023a0:	e590004c 	ldr	r0, [r0, #76]	; 0x4c
  1023a4:	e5d03007 	ldrb	r3, [r0, #7]
  1023a8:	e0800103 	add	r0, r0, r3, lsl #2
  1023ac:	e2800008 	add	r0, r0, #8
  1023b0:	e8bd8010 	pop	{r4, pc}

001023b4 <_Unwind_GetDataRelBase>:
  1023b4:	e92d4010 	push	{r4, lr}
  1023b8:	eb000001 	bl	1023c4 <abort>

001023bc <_Unwind_GetTextRelBase>:
  1023bc:	e92d4010 	push	{r4, lr}
  1023c0:	ebfffffb 	bl	1023b4 <_Unwind_GetDataRelBase>

001023c4 <abort>:
  1023c4:	e92d4010 	push	{r4, lr}
  1023c8:	e3a00006 	mov	r0, #6
  1023cc:	eb0002c2 	bl	102edc <raise>
  1023d0:	e3a00001 	mov	r0, #1
  1023d4:	eb003094 	bl	10e62c <_exit>

001023d8 <exit>:
  1023d8:	e92d4010 	push	{r4, lr}
  1023dc:	e3a01000 	mov	r1, #0
  1023e0:	e1a04000 	mov	r4, r0
  1023e4:	eb000f89 	bl	106210 <__call_exitprocs>
  1023e8:	e30f3208 	movw	r3, #61960	; 0xf208
  1023ec:	e3403010 	movt	r3, #16
  1023f0:	e5930000 	ldr	r0, [r3]
  1023f4:	e590303c 	ldr	r3, [r0, #60]	; 0x3c
  1023f8:	e3530000 	cmp	r3, #0
  1023fc:	0a000000 	beq	102404 <exit+0x2c>
  102400:	e12fff33 	blx	r3
  102404:	e1a00004 	mov	r0, r4
  102408:	eb003087 	bl	10e62c <_exit>

0010240c <__libc_fini_array>:
  10240c:	e92d4070 	push	{r4, r5, r6, lr}
  102410:	e30840e8 	movw	r4, #33000	; 0x80e8
  102414:	e30850e4 	movw	r5, #32996	; 0x80e4
  102418:	e3404011 	movt	r4, #17
  10241c:	e3405011 	movt	r5, #17
  102420:	e0444005 	sub	r4, r4, r5
  102424:	e1b04144 	asrs	r4, r4, #2
  102428:	0a000005 	beq	102444 <__libc_fini_array+0x38>
  10242c:	e0855104 	add	r5, r5, r4, lsl #2
  102430:	e2444001 	sub	r4, r4, #1
  102434:	e5353004 	ldr	r3, [r5, #-4]!
  102438:	e12fff33 	blx	r3
  10243c:	e3540000 	cmp	r4, #0
  102440:	1afffffa 	bne	102430 <__libc_fini_array+0x24>
  102444:	e8bd4070 	pop	{r4, r5, r6, lr}
  102448:	ea003367 	b	10f1ec <_fini>

0010244c <__libc_init_array>:
  10244c:	e92d4070 	push	{r4, r5, r6, lr}
  102450:	e30860e0 	movw	r6, #32992	; 0x80e0
  102454:	e30850e0 	movw	r5, #32992	; 0x80e0
  102458:	e3406011 	movt	r6, #17
  10245c:	e3405011 	movt	r5, #17
  102460:	e0466005 	sub	r6, r6, r5
  102464:	e1b06146 	asrs	r6, r6, #2
  102468:	0a000005 	beq	102484 <__libc_init_array+0x38>
  10246c:	e3a04000 	mov	r4, #0
  102470:	e2844001 	add	r4, r4, #1
  102474:	e4953004 	ldr	r3, [r5], #4
  102478:	e12fff33 	blx	r3
  10247c:	e1560004 	cmp	r6, r4
  102480:	1afffffa 	bne	102470 <__libc_init_array+0x24>
  102484:	e30860e4 	movw	r6, #32996	; 0x80e4
  102488:	e30850e0 	movw	r5, #32992	; 0x80e0
  10248c:	e3406011 	movt	r6, #17
  102490:	e3405011 	movt	r5, #17
  102494:	e0466005 	sub	r6, r6, r5
  102498:	eb00334d 	bl	10f1d4 <_init>
  10249c:	e1b06146 	asrs	r6, r6, #2
  1024a0:	08bd8070 	popeq	{r4, r5, r6, pc}
  1024a4:	e3a04000 	mov	r4, #0
  1024a8:	e2844001 	add	r4, r4, #1
  1024ac:	e4953004 	ldr	r3, [r5], #4
  1024b0:	e12fff33 	blx	r3
  1024b4:	e1560004 	cmp	r6, r4
  1024b8:	1afffffa 	bne	1024a8 <__libc_init_array+0x5c>
  1024bc:	e8bd8070 	pop	{r4, r5, r6, pc}

001024c0 <memcpy>:
  1024c0:	e1a0c000 	mov	ip, r0
  1024c4:	e3520040 	cmp	r2, #64	; 0x40
  1024c8:	aa000028 	bge	102570 <memcpy+0xb0>
  1024cc:	e202303c 	and	r3, r2, #60	; 0x3c
  1024d0:	e08cc003 	add	ip, ip, r3
  1024d4:	e0811003 	add	r1, r1, r3
  1024d8:	e263303a 	rsb	r3, r3, #58	; 0x3a
  1024dc:	e08ff083 	add	pc, pc, r3, lsl #1
  1024e0:	e511303c 	ldr	r3, [r1, #-60]	; 0xffffffc4
  1024e4:	e50c303c 	str	r3, [ip, #-60]	; 0xffffffc4
  1024e8:	e5113038 	ldr	r3, [r1, #-56]	; 0xffffffc8
  1024ec:	e50c3038 	str	r3, [ip, #-56]	; 0xffffffc8
  1024f0:	e5113034 	ldr	r3, [r1, #-52]	; 0xffffffcc
  1024f4:	e50c3034 	str	r3, [ip, #-52]	; 0xffffffcc
  1024f8:	e5113030 	ldr	r3, [r1, #-48]	; 0xffffffd0
  1024fc:	e50c3030 	str	r3, [ip, #-48]	; 0xffffffd0
  102500:	e511302c 	ldr	r3, [r1, #-44]	; 0xffffffd4
  102504:	e50c302c 	str	r3, [ip, #-44]	; 0xffffffd4
  102508:	e5113028 	ldr	r3, [r1, #-40]	; 0xffffffd8
  10250c:	e50c3028 	str	r3, [ip, #-40]	; 0xffffffd8
  102510:	e5113024 	ldr	r3, [r1, #-36]	; 0xffffffdc
  102514:	e50c3024 	str	r3, [ip, #-36]	; 0xffffffdc
  102518:	e5113020 	ldr	r3, [r1, #-32]	; 0xffffffe0
  10251c:	e50c3020 	str	r3, [ip, #-32]	; 0xffffffe0
  102520:	e511301c 	ldr	r3, [r1, #-28]	; 0xffffffe4
  102524:	e50c301c 	str	r3, [ip, #-28]	; 0xffffffe4
  102528:	e5113018 	ldr	r3, [r1, #-24]	; 0xffffffe8
  10252c:	e50c3018 	str	r3, [ip, #-24]	; 0xffffffe8
  102530:	e5113014 	ldr	r3, [r1, #-20]	; 0xffffffec
  102534:	e50c3014 	str	r3, [ip, #-20]	; 0xffffffec
  102538:	e5113010 	ldr	r3, [r1, #-16]
  10253c:	e50c3010 	str	r3, [ip, #-16]
  102540:	e511300c 	ldr	r3, [r1, #-12]
  102544:	e50c300c 	str	r3, [ip, #-12]
  102548:	e5113008 	ldr	r3, [r1, #-8]
  10254c:	e50c3008 	str	r3, [ip, #-8]
  102550:	e5113004 	ldr	r3, [r1, #-4]
  102554:	e50c3004 	str	r3, [ip, #-4]
  102558:	e1b02f82 	lsls	r2, r2, #31
  10255c:	20d130b2 	ldrhcs	r3, [r1], #2
  102560:	15d11000 	ldrbne	r1, [r1]
  102564:	20cc30b2 	strhcs	r3, [ip], #2
  102568:	15cc1000 	strbne	r1, [ip]
  10256c:	e12fff1e 	bx	lr
  102570:	e52da020 	str	sl, [sp, #-32]!	; 0xffffffe0
  102574:	e201a007 	and	sl, r1, #7
  102578:	e20c3007 	and	r3, ip, #7
  10257c:	e153000a 	cmp	r3, sl
  102580:	1a0000f1 	bne	10294c <memcpy+0x48c>
  102584:	eeb00a40 	vmov.f32	s0, s0
  102588:	e1b0ae8c 	lsls	sl, ip, #29
  10258c:	0a000008 	beq	1025b4 <memcpy+0xf4>
  102590:	e27aa000 	rsbs	sl, sl, #0
  102594:	e0422eaa 	sub	r2, r2, sl, lsr #29
  102598:	44913004 	ldrmi	r3, [r1], #4
  10259c:	448c3004 	strmi	r3, [ip], #4
  1025a0:	e1b0a10a 	lsls	sl, sl, #2
  1025a4:	20d130b2 	ldrhcs	r3, [r1], #2
  1025a8:	14d1a001 	ldrbne	sl, [r1], #1
  1025ac:	20cc30b2 	strhcs	r3, [ip], #2
  1025b0:	14cca001 	strbne	sl, [ip], #1
  1025b4:	e252a040 	subs	sl, r2, #64	; 0x40
  1025b8:	ba000017 	blt	10261c <memcpy+0x15c>
  1025bc:	e35a0c02 	cmp	sl, #512	; 0x200
  1025c0:	aa000032 	bge	102690 <memcpy+0x1d0>
  1025c4:	ed910b00 	vldr	d0, [r1]
  1025c8:	e25aa040 	subs	sl, sl, #64	; 0x40
  1025cc:	ed911b02 	vldr	d1, [r1, #8]
  1025d0:	ed8c0b00 	vstr	d0, [ip]
  1025d4:	ed910b04 	vldr	d0, [r1, #16]
  1025d8:	ed8c1b02 	vstr	d1, [ip, #8]
  1025dc:	ed911b06 	vldr	d1, [r1, #24]
  1025e0:	ed8c0b04 	vstr	d0, [ip, #16]
  1025e4:	ed910b08 	vldr	d0, [r1, #32]
  1025e8:	ed8c1b06 	vstr	d1, [ip, #24]
  1025ec:	ed911b0a 	vldr	d1, [r1, #40]	; 0x28
  1025f0:	ed8c0b08 	vstr	d0, [ip, #32]
  1025f4:	ed910b0c 	vldr	d0, [r1, #48]	; 0x30
  1025f8:	ed8c1b0a 	vstr	d1, [ip, #40]	; 0x28
  1025fc:	ed911b0e 	vldr	d1, [r1, #56]	; 0x38
  102600:	ed8c0b0c 	vstr	d0, [ip, #48]	; 0x30
  102604:	e2811040 	add	r1, r1, #64	; 0x40
  102608:	ed8c1b0e 	vstr	d1, [ip, #56]	; 0x38
  10260c:	e28cc040 	add	ip, ip, #64	; 0x40
  102610:	aaffffeb 	bge	1025c4 <memcpy+0x104>
  102614:	e31a003f 	tst	sl, #63	; 0x3f
  102618:	0a00001a 	beq	102688 <memcpy+0x1c8>
  10261c:	e20a3038 	and	r3, sl, #56	; 0x38
  102620:	e08cc003 	add	ip, ip, r3
  102624:	e0811003 	add	r1, r1, r3
  102628:	e2633034 	rsb	r3, r3, #52	; 0x34
  10262c:	e08ff003 	add	pc, pc, r3
  102630:	ed110b0e 	vldr	d0, [r1, #-56]	; 0xffffffc8
  102634:	ed0c0b0e 	vstr	d0, [ip, #-56]	; 0xffffffc8
  102638:	ed110b0c 	vldr	d0, [r1, #-48]	; 0xffffffd0
  10263c:	ed0c0b0c 	vstr	d0, [ip, #-48]	; 0xffffffd0
  102640:	ed110b0a 	vldr	d0, [r1, #-40]	; 0xffffffd8
  102644:	ed0c0b0a 	vstr	d0, [ip, #-40]	; 0xffffffd8
  102648:	ed110b08 	vldr	d0, [r1, #-32]	; 0xffffffe0
  10264c:	ed0c0b08 	vstr	d0, [ip, #-32]	; 0xffffffe0
  102650:	ed110b06 	vldr	d0, [r1, #-24]	; 0xffffffe8
  102654:	ed0c0b06 	vstr	d0, [ip, #-24]	; 0xffffffe8
  102658:	ed110b04 	vldr	d0, [r1, #-16]
  10265c:	ed0c0b04 	vstr	d0, [ip, #-16]
  102660:	ed110b02 	vldr	d0, [r1, #-8]
  102664:	ed0c0b02 	vstr	d0, [ip, #-8]
  102668:	e31a0004 	tst	sl, #4
  10266c:	14913004 	ldrne	r3, [r1], #4
  102670:	148c3004 	strne	r3, [ip], #4
  102674:	e1b0af8a 	lsls	sl, sl, #31
  102678:	20d130b2 	ldrhcs	r3, [r1], #2
  10267c:	15d1a000 	ldrbne	sl, [r1]
  102680:	20cc30b2 	strhcs	r3, [ip], #2
  102684:	15cca000 	strbne	sl, [ip]
  102688:	e49da020 	ldr	sl, [sp], #32
  10268c:	e12fff1e 	bx	lr
  102690:	ed913b00 	vldr	d3, [r1]
  102694:	ed914b10 	vldr	d4, [r1, #64]	; 0x40
  102698:	ed915b20 	vldr	d5, [r1, #128]	; 0x80
  10269c:	ed916b30 	vldr	d6, [r1, #192]	; 0xc0
  1026a0:	ed917b40 	vldr	d7, [r1, #256]	; 0x100
  1026a4:	ed910b02 	vldr	d0, [r1, #8]
  1026a8:	ed911b04 	vldr	d1, [r1, #16]
  1026ac:	ed912b06 	vldr	d2, [r1, #24]
  1026b0:	e2811020 	add	r1, r1, #32
  1026b4:	e25aad0a 	subs	sl, sl, #640	; 0x280
  1026b8:	ba000055 	blt	102814 <memcpy+0x354>
  1026bc:	ed8c3b00 	vstr	d3, [ip]
  1026c0:	ed913b00 	vldr	d3, [r1]
  1026c4:	ed8c0b02 	vstr	d0, [ip, #8]
  1026c8:	ed910b02 	vldr	d0, [r1, #8]
  1026cc:	ed8c1b04 	vstr	d1, [ip, #16]
  1026d0:	ed911b04 	vldr	d1, [r1, #16]
  1026d4:	ed8c2b06 	vstr	d2, [ip, #24]
  1026d8:	ed912b06 	vldr	d2, [r1, #24]
  1026dc:	ed8c3b08 	vstr	d3, [ip, #32]
  1026e0:	ed913b48 	vldr	d3, [r1, #288]	; 0x120
  1026e4:	ed8c0b0a 	vstr	d0, [ip, #40]	; 0x28
  1026e8:	ed910b0a 	vldr	d0, [r1, #40]	; 0x28
  1026ec:	ed8c1b0c 	vstr	d1, [ip, #48]	; 0x30
  1026f0:	ed911b0c 	vldr	d1, [r1, #48]	; 0x30
  1026f4:	ed8c2b0e 	vstr	d2, [ip, #56]	; 0x38
  1026f8:	ed912b0e 	vldr	d2, [r1, #56]	; 0x38
  1026fc:	ed8c4b10 	vstr	d4, [ip, #64]	; 0x40
  102700:	ed914b10 	vldr	d4, [r1, #64]	; 0x40
  102704:	ed8c0b12 	vstr	d0, [ip, #72]	; 0x48
  102708:	ed910b12 	vldr	d0, [r1, #72]	; 0x48
  10270c:	ed8c1b14 	vstr	d1, [ip, #80]	; 0x50
  102710:	ed911b14 	vldr	d1, [r1, #80]	; 0x50
  102714:	ed8c2b16 	vstr	d2, [ip, #88]	; 0x58
  102718:	ed912b16 	vldr	d2, [r1, #88]	; 0x58
  10271c:	ed8c4b18 	vstr	d4, [ip, #96]	; 0x60
  102720:	ed914b58 	vldr	d4, [r1, #352]	; 0x160
  102724:	ed8c0b1a 	vstr	d0, [ip, #104]	; 0x68
  102728:	ed910b1a 	vldr	d0, [r1, #104]	; 0x68
  10272c:	ed8c1b1c 	vstr	d1, [ip, #112]	; 0x70
  102730:	ed911b1c 	vldr	d1, [r1, #112]	; 0x70
  102734:	ed8c2b1e 	vstr	d2, [ip, #120]	; 0x78
  102738:	ed912b1e 	vldr	d2, [r1, #120]	; 0x78
  10273c:	ed8c5b20 	vstr	d5, [ip, #128]	; 0x80
  102740:	ed915b20 	vldr	d5, [r1, #128]	; 0x80
  102744:	ed8c0b22 	vstr	d0, [ip, #136]	; 0x88
  102748:	ed910b22 	vldr	d0, [r1, #136]	; 0x88
  10274c:	ed8c1b24 	vstr	d1, [ip, #144]	; 0x90
  102750:	ed911b24 	vldr	d1, [r1, #144]	; 0x90
  102754:	ed8c2b26 	vstr	d2, [ip, #152]	; 0x98
  102758:	ed912b26 	vldr	d2, [r1, #152]	; 0x98
  10275c:	ed8c5b28 	vstr	d5, [ip, #160]	; 0xa0
  102760:	ed915b68 	vldr	d5, [r1, #416]	; 0x1a0
  102764:	ed8c0b2a 	vstr	d0, [ip, #168]	; 0xa8
  102768:	ed910b2a 	vldr	d0, [r1, #168]	; 0xa8
  10276c:	ed8c1b2c 	vstr	d1, [ip, #176]	; 0xb0
  102770:	ed911b2c 	vldr	d1, [r1, #176]	; 0xb0
  102774:	ed8c2b2e 	vstr	d2, [ip, #184]	; 0xb8
  102778:	ed912b2e 	vldr	d2, [r1, #184]	; 0xb8
  10277c:	e28cc0c0 	add	ip, ip, #192	; 0xc0
  102780:	e28110c0 	add	r1, r1, #192	; 0xc0
  102784:	ed8c6b00 	vstr	d6, [ip]
  102788:	ed916b00 	vldr	d6, [r1]
  10278c:	ed8c0b02 	vstr	d0, [ip, #8]
  102790:	ed910b02 	vldr	d0, [r1, #8]
  102794:	ed8c1b04 	vstr	d1, [ip, #16]
  102798:	ed911b04 	vldr	d1, [r1, #16]
  10279c:	ed8c2b06 	vstr	d2, [ip, #24]
  1027a0:	ed912b06 	vldr	d2, [r1, #24]
  1027a4:	ed8c6b08 	vstr	d6, [ip, #32]
  1027a8:	ed916b48 	vldr	d6, [r1, #288]	; 0x120
  1027ac:	ed8c0b0a 	vstr	d0, [ip, #40]	; 0x28
  1027b0:	ed910b0a 	vldr	d0, [r1, #40]	; 0x28
  1027b4:	ed8c1b0c 	vstr	d1, [ip, #48]	; 0x30
  1027b8:	ed911b0c 	vldr	d1, [r1, #48]	; 0x30
  1027bc:	ed8c2b0e 	vstr	d2, [ip, #56]	; 0x38
  1027c0:	ed912b0e 	vldr	d2, [r1, #56]	; 0x38
  1027c4:	ed8c7b10 	vstr	d7, [ip, #64]	; 0x40
  1027c8:	ed917b10 	vldr	d7, [r1, #64]	; 0x40
  1027cc:	ed8c0b12 	vstr	d0, [ip, #72]	; 0x48
  1027d0:	ed910b12 	vldr	d0, [r1, #72]	; 0x48
  1027d4:	ed8c1b14 	vstr	d1, [ip, #80]	; 0x50
  1027d8:	ed911b14 	vldr	d1, [r1, #80]	; 0x50
  1027dc:	ed8c2b16 	vstr	d2, [ip, #88]	; 0x58
  1027e0:	ed912b16 	vldr	d2, [r1, #88]	; 0x58
  1027e4:	ed8c7b18 	vstr	d7, [ip, #96]	; 0x60
  1027e8:	ed917b58 	vldr	d7, [r1, #352]	; 0x160
  1027ec:	ed8c0b1a 	vstr	d0, [ip, #104]	; 0x68
  1027f0:	ed910b1a 	vldr	d0, [r1, #104]	; 0x68
  1027f4:	ed8c1b1c 	vstr	d1, [ip, #112]	; 0x70
  1027f8:	ed911b1c 	vldr	d1, [r1, #112]	; 0x70
  1027fc:	ed8c2b1e 	vstr	d2, [ip, #120]	; 0x78
  102800:	ed912b1e 	vldr	d2, [r1, #120]	; 0x78
  102804:	e28cc080 	add	ip, ip, #128	; 0x80
  102808:	e2811080 	add	r1, r1, #128	; 0x80
  10280c:	e25aad05 	subs	sl, sl, #320	; 0x140
  102810:	aaffffa9 	bge	1026bc <memcpy+0x1fc>
  102814:	ed8c3b00 	vstr	d3, [ip]
  102818:	ed913b00 	vldr	d3, [r1]
  10281c:	ed8c0b02 	vstr	d0, [ip, #8]
  102820:	ed910b02 	vldr	d0, [r1, #8]
  102824:	ed8c1b04 	vstr	d1, [ip, #16]
  102828:	ed911b04 	vldr	d1, [r1, #16]
  10282c:	ed8c2b06 	vstr	d2, [ip, #24]
  102830:	ed912b06 	vldr	d2, [r1, #24]
  102834:	ed8c3b08 	vstr	d3, [ip, #32]
  102838:	ed8c0b0a 	vstr	d0, [ip, #40]	; 0x28
  10283c:	ed910b0a 	vldr	d0, [r1, #40]	; 0x28
  102840:	ed8c1b0c 	vstr	d1, [ip, #48]	; 0x30
  102844:	ed911b0c 	vldr	d1, [r1, #48]	; 0x30
  102848:	ed8c2b0e 	vstr	d2, [ip, #56]	; 0x38
  10284c:	ed912b0e 	vldr	d2, [r1, #56]	; 0x38
  102850:	ed8c4b10 	vstr	d4, [ip, #64]	; 0x40
  102854:	ed914b10 	vldr	d4, [r1, #64]	; 0x40
  102858:	ed8c0b12 	vstr	d0, [ip, #72]	; 0x48
  10285c:	ed910b12 	vldr	d0, [r1, #72]	; 0x48
  102860:	ed8c1b14 	vstr	d1, [ip, #80]	; 0x50
  102864:	ed911b14 	vldr	d1, [r1, #80]	; 0x50
  102868:	ed8c2b16 	vstr	d2, [ip, #88]	; 0x58
  10286c:	ed912b16 	vldr	d2, [r1, #88]	; 0x58
  102870:	ed8c4b18 	vstr	d4, [ip, #96]	; 0x60
  102874:	ed8c0b1a 	vstr	d0, [ip, #104]	; 0x68
  102878:	ed910b1a 	vldr	d0, [r1, #104]	; 0x68
  10287c:	ed8c1b1c 	vstr	d1, [ip, #112]	; 0x70
  102880:	ed911b1c 	vldr	d1, [r1, #112]	; 0x70
  102884:	ed8c2b1e 	vstr	d2, [ip, #120]	; 0x78
  102888:	ed912b1e 	vldr	d2, [r1, #120]	; 0x78
  10288c:	ed8c5b20 	vstr	d5, [ip, #128]	; 0x80
  102890:	ed915b20 	vldr	d5, [r1, #128]	; 0x80
  102894:	ed8c0b22 	vstr	d0, [ip, #136]	; 0x88
  102898:	ed910b22 	vldr	d0, [r1, #136]	; 0x88
  10289c:	ed8c1b24 	vstr	d1, [ip, #144]	; 0x90
  1028a0:	ed911b24 	vldr	d1, [r1, #144]	; 0x90
  1028a4:	ed8c2b26 	vstr	d2, [ip, #152]	; 0x98
  1028a8:	ed912b26 	vldr	d2, [r1, #152]	; 0x98
  1028ac:	ed8c5b28 	vstr	d5, [ip, #160]	; 0xa0
  1028b0:	ed8c0b2a 	vstr	d0, [ip, #168]	; 0xa8
  1028b4:	ed910b2a 	vldr	d0, [r1, #168]	; 0xa8
  1028b8:	ed8c1b2c 	vstr	d1, [ip, #176]	; 0xb0
  1028bc:	ed911b2c 	vldr	d1, [r1, #176]	; 0xb0
  1028c0:	ed8c2b2e 	vstr	d2, [ip, #184]	; 0xb8
  1028c4:	ed912b2e 	vldr	d2, [r1, #184]	; 0xb8
  1028c8:	e28110c0 	add	r1, r1, #192	; 0xc0
  1028cc:	e28cc0c0 	add	ip, ip, #192	; 0xc0
  1028d0:	ed8c6b00 	vstr	d6, [ip]
  1028d4:	ed916b00 	vldr	d6, [r1]
  1028d8:	ed8c0b02 	vstr	d0, [ip, #8]
  1028dc:	ed910b02 	vldr	d0, [r1, #8]
  1028e0:	ed8c1b04 	vstr	d1, [ip, #16]
  1028e4:	ed911b04 	vldr	d1, [r1, #16]
  1028e8:	ed8c2b06 	vstr	d2, [ip, #24]
  1028ec:	ed912b06 	vldr	d2, [r1, #24]
  1028f0:	ed8c6b08 	vstr	d6, [ip, #32]
  1028f4:	ed8c0b0a 	vstr	d0, [ip, #40]	; 0x28
  1028f8:	ed910b0a 	vldr	d0, [r1, #40]	; 0x28
  1028fc:	ed8c1b0c 	vstr	d1, [ip, #48]	; 0x30
  102900:	ed911b0c 	vldr	d1, [r1, #48]	; 0x30
  102904:	ed8c2b0e 	vstr	d2, [ip, #56]	; 0x38
  102908:	ed912b0e 	vldr	d2, [r1, #56]	; 0x38
  10290c:	ed8c7b10 	vstr	d7, [ip, #64]	; 0x40
  102910:	ed917b10 	vldr	d7, [r1, #64]	; 0x40
  102914:	ed8c0b12 	vstr	d0, [ip, #72]	; 0x48
  102918:	ed910b12 	vldr	d0, [r1, #72]	; 0x48
  10291c:	ed8c1b14 	vstr	d1, [ip, #80]	; 0x50
  102920:	ed911b14 	vldr	d1, [r1, #80]	; 0x50
  102924:	ed8c2b16 	vstr	d2, [ip, #88]	; 0x58
  102928:	ed912b16 	vldr	d2, [r1, #88]	; 0x58
  10292c:	ed8c7b18 	vstr	d7, [ip, #96]	; 0x60
  102930:	e2811060 	add	r1, r1, #96	; 0x60
  102934:	ed8c0b1a 	vstr	d0, [ip, #104]	; 0x68
  102938:	ed8c1b1c 	vstr	d1, [ip, #112]	; 0x70
  10293c:	ed8c2b1e 	vstr	d2, [ip, #120]	; 0x78
  102940:	e28cc080 	add	ip, ip, #128	; 0x80
  102944:	e28aad05 	add	sl, sl, #320	; 0x140
  102948:	eaffff1d 	b	1025c4 <memcpy+0x104>
  10294c:	f5d1f000 	pld	[r1]
  102950:	f5d1f040 	pld	[r1, #64]	; 0x40
  102954:	e1b0ae8c 	lsls	sl, ip, #29
  102958:	f5d1f080 	pld	[r1, #128]	; 0x80
  10295c:	0a000008 	beq	102984 <memcpy+0x4c4>
  102960:	e27aa000 	rsbs	sl, sl, #0
  102964:	e0422eaa 	sub	r2, r2, sl, lsr #29
  102968:	44913004 	ldrmi	r3, [r1], #4
  10296c:	448c3004 	strmi	r3, [ip], #4
  102970:	e1b0a10a 	lsls	sl, sl, #2
  102974:	14d13001 	ldrbne	r3, [r1], #1
  102978:	20d1a0b2 	ldrhcs	sl, [r1], #2
  10297c:	14cc3001 	strbne	r3, [ip], #1
  102980:	20cca0b2 	strhcs	sl, [ip], #2
  102984:	f5d1f0c0 	pld	[r1, #192]	; 0xc0
  102988:	e2522040 	subs	r2, r2, #64	; 0x40
  10298c:	449da020 	ldrmi	sl, [sp], #32
  102990:	4afffecd 	bmi	1024cc <memcpy+0xc>
  102994:	f5d1f100 	pld	[r1, #256]	; 0x100
  102998:	e2411004 	sub	r1, r1, #4
  10299c:	e24cc008 	sub	ip, ip, #8
  1029a0:	e252a040 	subs	sl, r2, #64	; 0x40
  1029a4:	e5912004 	ldr	r2, [r1, #4]
  1029a8:	e5913008 	ldr	r3, [r1, #8]
  1029ac:	e1cd40f8 	strd	r4, [sp, #8]
  1029b0:	e591400c 	ldr	r4, [r1, #12]
  1029b4:	e5915010 	ldr	r5, [r1, #16]
  1029b8:	e1cd61f0 	strd	r6, [sp, #16]
  1029bc:	e5916014 	ldr	r6, [r1, #20]
  1029c0:	e5917018 	ldr	r7, [r1, #24]
  1029c4:	e1cd81f8 	strd	r8, [sp, #24]
  1029c8:	e591801c 	ldr	r8, [r1, #28]
  1029cc:	e5b19020 	ldr	r9, [r1, #32]!
  1029d0:	ea000018 	b	102a38 <memcpy+0x578>
  1029d4:	e1a00000 	nop			; (mov r0, r0)
  1029d8:	e1a00000 	nop			; (mov r0, r0)
  1029dc:	e1a00000 	nop			; (mov r0, r0)
  1029e0:	e1a00000 	nop			; (mov r0, r0)
  1029e4:	e1a00000 	nop			; (mov r0, r0)
  1029e8:	e1a00000 	nop			; (mov r0, r0)
  1029ec:	e1a00000 	nop			; (mov r0, r0)
  1029f0:	e1a00000 	nop			; (mov r0, r0)
  1029f4:	e1a00000 	nop			; (mov r0, r0)
  1029f8:	e1a00000 	nop			; (mov r0, r0)
  1029fc:	e1a00000 	nop			; (mov r0, r0)
  102a00:	f5d1f124 	pld	[r1, #292]	; 0x124
  102a04:	e1cc22f8 	strd	r2, [ip, #40]	; 0x28
  102a08:	e5912024 	ldr	r2, [r1, #36]	; 0x24
  102a0c:	e5913028 	ldr	r3, [r1, #40]	; 0x28
  102a10:	e1cc43f0 	strd	r4, [ip, #48]	; 0x30
  102a14:	e591402c 	ldr	r4, [r1, #44]	; 0x2c
  102a18:	e5915030 	ldr	r5, [r1, #48]	; 0x30
  102a1c:	e1cc63f8 	strd	r6, [ip, #56]	; 0x38
  102a20:	e5916034 	ldr	r6, [r1, #52]	; 0x34
  102a24:	e5917038 	ldr	r7, [r1, #56]	; 0x38
  102a28:	e1ec84f0 	strd	r8, [ip, #64]!	; 0x40
  102a2c:	e591803c 	ldr	r8, [r1, #60]	; 0x3c
  102a30:	e5b19040 	ldr	r9, [r1, #64]!	; 0x40
  102a34:	e25aa040 	subs	sl, sl, #64	; 0x40
  102a38:	e1cc20f8 	strd	r2, [ip, #8]
  102a3c:	e5912004 	ldr	r2, [r1, #4]
  102a40:	e5913008 	ldr	r3, [r1, #8]
  102a44:	e1cc41f0 	strd	r4, [ip, #16]
  102a48:	e591400c 	ldr	r4, [r1, #12]
  102a4c:	e5915010 	ldr	r5, [r1, #16]
  102a50:	e1cc61f8 	strd	r6, [ip, #24]
  102a54:	e5916014 	ldr	r6, [r1, #20]
  102a58:	e5917018 	ldr	r7, [r1, #24]
  102a5c:	e1cc82f0 	strd	r8, [ip, #32]
  102a60:	e591801c 	ldr	r8, [r1, #28]
  102a64:	e5919020 	ldr	r9, [r1, #32]
  102a68:	2affffe4 	bcs	102a00 <memcpy+0x540>
  102a6c:	e1cc22f8 	strd	r2, [ip, #40]	; 0x28
  102a70:	e2811024 	add	r1, r1, #36	; 0x24
  102a74:	e1cc43f0 	strd	r4, [ip, #48]	; 0x30
  102a78:	e1cd40d8 	ldrd	r4, [sp, #8]
  102a7c:	e1cc63f8 	strd	r6, [ip, #56]	; 0x38
  102a80:	e1cd61d0 	ldrd	r6, [sp, #16]
  102a84:	e1cc84f0 	strd	r8, [ip, #64]	; 0x40
  102a88:	e1cd81d8 	ldrd	r8, [sp, #24]
  102a8c:	e28cc048 	add	ip, ip, #72	; 0x48
  102a90:	e21a203f 	ands	r2, sl, #63	; 0x3f
  102a94:	e49da020 	ldr	sl, [sp], #32
  102a98:	1afffe8b 	bne	1024cc <memcpy+0xc>
  102a9c:	e12fff1e 	bx	lr

00102aa0 <_printf_r>:
  102aa0:	e92d000e 	push	{r1, r2, r3}
  102aa4:	e52de004 	push	{lr}		; (str lr, [sp, #-4]!)
  102aa8:	e24dd008 	sub	sp, sp, #8
  102aac:	e28dc010 	add	ip, sp, #16
  102ab0:	e5901008 	ldr	r1, [r0, #8]
  102ab4:	e59d200c 	ldr	r2, [sp, #12]
  102ab8:	e1a0300c 	mov	r3, ip
  102abc:	e58dc004 	str	ip, [sp, #4]
  102ac0:	eb000176 	bl	1030a0 <_vfprintf_r>
  102ac4:	e28dd008 	add	sp, sp, #8
  102ac8:	e49de004 	pop	{lr}		; (ldr lr, [sp], #4)
  102acc:	e28dd00c 	add	sp, sp, #12
  102ad0:	e12fff1e 	bx	lr

00102ad4 <printf>:
  102ad4:	e92d000f 	push	{r0, r1, r2, r3}
  102ad8:	e30f3740 	movw	r3, #63296	; 0xf740
  102adc:	e3403010 	movt	r3, #16
  102ae0:	e52de004 	push	{lr}		; (str lr, [sp, #-4]!)
  102ae4:	e24dd00c 	sub	sp, sp, #12
  102ae8:	e5930000 	ldr	r0, [r3]
  102aec:	e28d1014 	add	r1, sp, #20
  102af0:	e59d2010 	ldr	r2, [sp, #16]
  102af4:	e1a03001 	mov	r3, r1
  102af8:	e58d1004 	str	r1, [sp, #4]
  102afc:	e5901008 	ldr	r1, [r0, #8]
  102b00:	eb000166 	bl	1030a0 <_vfprintf_r>
  102b04:	e28dd00c 	add	sp, sp, #12
  102b08:	e49de004 	pop	{lr}		; (ldr lr, [sp], #4)
  102b0c:	e28dd010 	add	sp, sp, #16
  102b10:	e12fff1e 	bx	lr

00102b14 <_putchar_r>:
  102b14:	e5902008 	ldr	r2, [r0, #8]
  102b18:	ea000005 	b	102b34 <_putc_r>

00102b1c <putchar>:
  102b1c:	e30f3740 	movw	r3, #63296	; 0xf740
  102b20:	e3403010 	movt	r3, #16
  102b24:	e1a01000 	mov	r1, r0
  102b28:	e5930000 	ldr	r0, [r3]
  102b2c:	e5902008 	ldr	r2, [r0, #8]
  102b30:	eaffffff 	b	102b34 <_putc_r>

00102b34 <_putc_r>:
  102b34:	e92d4070 	push	{r4, r5, r6, lr}
  102b38:	e2506000 	subs	r6, r0, #0
  102b3c:	e1a05001 	mov	r5, r1
  102b40:	e1a04002 	mov	r4, r2
  102b44:	0a000002 	beq	102b54 <_putc_r+0x20>
  102b48:	e5963038 	ldr	r3, [r6, #56]	; 0x38
  102b4c:	e3530000 	cmp	r3, #0
  102b50:	0a00000a 	beq	102b80 <_putc_r+0x4c>
  102b54:	e5943008 	ldr	r3, [r4, #8]
  102b58:	e2433001 	sub	r3, r3, #1
  102b5c:	e5843008 	str	r3, [r4, #8]
  102b60:	e3530000 	cmp	r3, #0
  102b64:	a6ef0075 	uxtbge	r0, r5
  102b68:	ba000006 	blt	102b88 <_putc_r+0x54>
  102b6c:	e5943000 	ldr	r3, [r4]
  102b70:	e2832001 	add	r2, r3, #1
  102b74:	e5842000 	str	r2, [r4]
  102b78:	e5c35000 	strb	r5, [r3]
  102b7c:	e8bd8070 	pop	{r4, r5, r6, pc}
  102b80:	eb00144e 	bl	107cc0 <__sinit>
  102b84:	eafffff2 	b	102b54 <_putc_r+0x20>
  102b88:	e5942018 	ldr	r2, [r4, #24]
  102b8c:	e1530002 	cmp	r3, r2
  102b90:	ba000002 	blt	102ba0 <_putc_r+0x6c>
  102b94:	e6ef0075 	uxtb	r0, r5
  102b98:	e350000a 	cmp	r0, #10
  102b9c:	1afffff2 	bne	102b6c <_putc_r+0x38>
  102ba0:	e1a02004 	mov	r2, r4
  102ba4:	e1a01005 	mov	r1, r5
  102ba8:	e1a00006 	mov	r0, r6
  102bac:	e8bd4070 	pop	{r4, r5, r6, lr}
  102bb0:	ea000bbb 	b	105aa4 <__swbuf_r>

00102bb4 <putc>:
  102bb4:	e30f3740 	movw	r3, #63296	; 0xf740
  102bb8:	e3403010 	movt	r3, #16
  102bbc:	e92d4070 	push	{r4, r5, r6, lr}
  102bc0:	e1a06000 	mov	r6, r0
  102bc4:	e5935000 	ldr	r5, [r3]
  102bc8:	e1a04001 	mov	r4, r1
  102bcc:	e3550000 	cmp	r5, #0
  102bd0:	0a000002 	beq	102be0 <putc+0x2c>
  102bd4:	e5953038 	ldr	r3, [r5, #56]	; 0x38
  102bd8:	e3530000 	cmp	r3, #0
  102bdc:	0a00000a 	beq	102c0c <putc+0x58>
  102be0:	e5943008 	ldr	r3, [r4, #8]
  102be4:	e2433001 	sub	r3, r3, #1
  102be8:	e5843008 	str	r3, [r4, #8]
  102bec:	e3530000 	cmp	r3, #0
  102bf0:	a6ef0076 	uxtbge	r0, r6
  102bf4:	ba000007 	blt	102c18 <putc+0x64>
  102bf8:	e5943000 	ldr	r3, [r4]
  102bfc:	e2832001 	add	r2, r3, #1
  102c00:	e5842000 	str	r2, [r4]
  102c04:	e5c36000 	strb	r6, [r3]
  102c08:	e8bd8070 	pop	{r4, r5, r6, pc}
  102c0c:	e1a00005 	mov	r0, r5
  102c10:	eb00142a 	bl	107cc0 <__sinit>
  102c14:	eafffff1 	b	102be0 <putc+0x2c>
  102c18:	e5942018 	ldr	r2, [r4, #24]
  102c1c:	e1530002 	cmp	r3, r2
  102c20:	ba000002 	blt	102c30 <putc+0x7c>
  102c24:	e6ef0076 	uxtb	r0, r6
  102c28:	e350000a 	cmp	r0, #10
  102c2c:	1afffff1 	bne	102bf8 <putc+0x44>
  102c30:	e1a02004 	mov	r2, r4
  102c34:	e1a01006 	mov	r1, r6
  102c38:	e1a00005 	mov	r0, r5
  102c3c:	e8bd4070 	pop	{r4, r5, r6, lr}
  102c40:	ea000b97 	b	105aa4 <__swbuf_r>

00102c44 <_puts_r>:
  102c44:	e92d4030 	push	{r4, r5, lr}
  102c48:	e1a05000 	mov	r5, r0
  102c4c:	e24dd024 	sub	sp, sp, #36	; 0x24
  102c50:	e1a00001 	mov	r0, r1
  102c54:	e1a04001 	mov	r4, r1
  102c58:	fa0000d8 	blx	102fc0 <strlen>
  102c5c:	e5951038 	ldr	r1, [r5, #56]	; 0x38
  102c60:	e30f3580 	movw	r3, #62848	; 0xf580
  102c64:	e58d4010 	str	r4, [sp, #16]
  102c68:	e3403010 	movt	r3, #16
  102c6c:	e3510000 	cmp	r1, #0
  102c70:	e58d3018 	str	r3, [sp, #24]
  102c74:	e3a01001 	mov	r1, #1
  102c78:	e3a03002 	mov	r3, #2
  102c7c:	e5954008 	ldr	r4, [r5, #8]
  102c80:	e58d101c 	str	r1, [sp, #28]
  102c84:	e2802001 	add	r2, r0, #1
  102c88:	e58d0014 	str	r0, [sp, #20]
  102c8c:	e58d200c 	str	r2, [sp, #12]
  102c90:	e28d2010 	add	r2, sp, #16
  102c94:	e1cd20f4 	strd	r2, [sp, #4]
  102c98:	0a00000f 	beq	102cdc <_puts_r+0x98>
  102c9c:	e1d430fc 	ldrsh	r3, [r4, #12]
  102ca0:	e1a01004 	mov	r1, r4
  102ca4:	e1a00005 	mov	r0, r5
  102ca8:	e3130a02 	tst	r3, #8192	; 0x2000
  102cac:	03833a02 	orreq	r3, r3, #8192	; 0x2000
  102cb0:	01c430bc 	strheq	r3, [r4, #12]
  102cb4:	05942064 	ldreq	r2, [r4, #100]	; 0x64
  102cb8:	03c23a02 	biceq	r3, r2, #8192	; 0x2000
  102cbc:	e28d2004 	add	r2, sp, #4
  102cc0:	05843064 	streq	r3, [r4, #100]	; 0x64
  102cc4:	eb001509 	bl	1080f0 <__sfvwrite_r>
  102cc8:	e3500000 	cmp	r0, #0
  102ccc:	13e00000 	mvnne	r0, #0
  102cd0:	03a0000a 	moveq	r0, #10
  102cd4:	e28dd024 	add	sp, sp, #36	; 0x24
  102cd8:	e8bd8030 	pop	{r4, r5, pc}
  102cdc:	e1a00005 	mov	r0, r5
  102ce0:	eb0013f6 	bl	107cc0 <__sinit>
  102ce4:	eaffffec 	b	102c9c <_puts_r+0x58>

00102ce8 <puts>:
  102ce8:	e30f3740 	movw	r3, #63296	; 0xf740
  102cec:	e3403010 	movt	r3, #16
  102cf0:	e1a01000 	mov	r1, r0
  102cf4:	e5930000 	ldr	r0, [r3]
  102cf8:	eaffffd1 	b	102c44 <_puts_r>

00102cfc <_init_signal_r.part.0>:
  102cfc:	e92d4010 	push	{r4, lr}
  102d00:	e3a01080 	mov	r1, #128	; 0x80
  102d04:	e1a04000 	mov	r4, r0
  102d08:	eb001a1c 	bl	109580 <_malloc_r>
  102d0c:	e3500000 	cmp	r0, #0
  102d10:	e58402dc 	str	r0, [r4, #732]	; 0x2dc
  102d14:	0a000007 	beq	102d38 <_init_signal_r.part.0+0x3c>
  102d18:	e2403004 	sub	r3, r0, #4
  102d1c:	e280007c 	add	r0, r0, #124	; 0x7c
  102d20:	e3a02000 	mov	r2, #0
  102d24:	e5a32004 	str	r2, [r3, #4]!
  102d28:	e1530000 	cmp	r3, r0
  102d2c:	1afffffc 	bne	102d24 <_init_signal_r.part.0+0x28>
  102d30:	e3a00000 	mov	r0, #0
  102d34:	e8bd8010 	pop	{r4, pc}
  102d38:	e3e00000 	mvn	r0, #0
  102d3c:	e8bd8010 	pop	{r4, pc}

00102d40 <_init_signal_r>:
  102d40:	e59032dc 	ldr	r3, [r0, #732]	; 0x2dc
  102d44:	e3530000 	cmp	r3, #0
  102d48:	0a000001 	beq	102d54 <_init_signal_r+0x14>
  102d4c:	e3a00000 	mov	r0, #0
  102d50:	e12fff1e 	bx	lr
  102d54:	eaffffe8 	b	102cfc <_init_signal_r.part.0>

00102d58 <_signal_r>:
  102d58:	e351001f 	cmp	r1, #31
  102d5c:	e92d4070 	push	{r4, r5, r6, lr}
  102d60:	e1a05000 	mov	r5, r0
  102d64:	8a000007 	bhi	102d88 <_signal_r+0x30>
  102d68:	e59032dc 	ldr	r3, [r0, #732]	; 0x2dc
  102d6c:	e1a06002 	mov	r6, r2
  102d70:	e1a04001 	mov	r4, r1
  102d74:	e3530000 	cmp	r3, #0
  102d78:	0a000006 	beq	102d98 <_signal_r+0x40>
  102d7c:	e7930104 	ldr	r0, [r3, r4, lsl #2]
  102d80:	e7836104 	str	r6, [r3, r4, lsl #2]
  102d84:	e8bd8070 	pop	{r4, r5, r6, pc}
  102d88:	e3a02016 	mov	r2, #22
  102d8c:	e3e00000 	mvn	r0, #0
  102d90:	e5852000 	str	r2, [r5]
  102d94:	e8bd8070 	pop	{r4, r5, r6, pc}
  102d98:	ebffffd7 	bl	102cfc <_init_signal_r.part.0>
  102d9c:	e3500000 	cmp	r0, #0
  102da0:	059532dc 	ldreq	r3, [r5, #732]	; 0x2dc
  102da4:	0afffff4 	beq	102d7c <_signal_r+0x24>
  102da8:	e3e00000 	mvn	r0, #0
  102dac:	e8bd8070 	pop	{r4, r5, r6, pc}

00102db0 <_raise_r>:
  102db0:	e351001f 	cmp	r1, #31
  102db4:	8a00001e 	bhi	102e34 <_raise_r+0x84>
  102db8:	e59032dc 	ldr	r3, [r0, #732]	; 0x2dc
  102dbc:	e92d4070 	push	{r4, r5, r6, lr}
  102dc0:	e3530000 	cmp	r3, #0
  102dc4:	e1a05000 	mov	r5, r0
  102dc8:	e1a04001 	mov	r4, r1
  102dcc:	0a000011 	beq	102e18 <_raise_r+0x68>
  102dd0:	e7932101 	ldr	r2, [r3, r1, lsl #2]
  102dd4:	e3520000 	cmp	r2, #0
  102dd8:	0a00000e 	beq	102e18 <_raise_r+0x68>
  102ddc:	e3520001 	cmp	r2, #1
  102de0:	03a03000 	moveq	r3, #0
  102de4:	0a000009 	beq	102e10 <_raise_r+0x60>
  102de8:	e3720001 	cmn	r2, #1
  102dec:	03a02016 	moveq	r2, #22
  102df0:	03a03001 	moveq	r3, #1
  102df4:	05802000 	streq	r2, [r0]
  102df8:	0a000004 	beq	102e10 <_raise_r+0x60>
  102dfc:	e3a05000 	mov	r5, #0
  102e00:	e1a00001 	mov	r0, r1
  102e04:	e7835101 	str	r5, [r3, r1, lsl #2]
  102e08:	e12fff32 	blx	r2
  102e0c:	e1a03005 	mov	r3, r5
  102e10:	e1a00003 	mov	r0, r3
  102e14:	e8bd8070 	pop	{r4, r5, r6, pc}
  102e18:	e1a00005 	mov	r0, r5
  102e1c:	eb000057 	bl	102f80 <_getpid_r>
  102e20:	e1a02004 	mov	r2, r4
  102e24:	e1a01000 	mov	r1, r0
  102e28:	e1a00005 	mov	r0, r5
  102e2c:	e8bd4070 	pop	{r4, r5, r6, lr}
  102e30:	ea000042 	b	102f40 <_kill_r>
  102e34:	e3e03000 	mvn	r3, #0
  102e38:	e3a02016 	mov	r2, #22
  102e3c:	e5802000 	str	r2, [r0]
  102e40:	e1a00003 	mov	r0, r3
  102e44:	e12fff1e 	bx	lr

00102e48 <__sigtramp_r>:
  102e48:	e351001f 	cmp	r1, #31
  102e4c:	8a000020 	bhi	102ed4 <__sigtramp_r+0x8c>
  102e50:	e59032dc 	ldr	r3, [r0, #732]	; 0x2dc
  102e54:	e92d4070 	push	{r4, r5, r6, lr}
  102e58:	e3530000 	cmp	r3, #0
  102e5c:	e1a05000 	mov	r5, r0
  102e60:	e1a04001 	mov	r4, r1
  102e64:	0a00000f 	beq	102ea8 <__sigtramp_r+0x60>
  102e68:	e7932104 	ldr	r2, [r3, r4, lsl #2]
  102e6c:	e0833104 	add	r3, r3, r4, lsl #2
  102e70:	e3520000 	cmp	r2, #0
  102e74:	0a000009 	beq	102ea0 <__sigtramp_r+0x58>
  102e78:	e3720001 	cmn	r2, #1
  102e7c:	0a00000e 	beq	102ebc <__sigtramp_r+0x74>
  102e80:	e3520001 	cmp	r2, #1
  102e84:	0a000010 	beq	102ecc <__sigtramp_r+0x84>
  102e88:	e1a00004 	mov	r0, r4
  102e8c:	e3a04000 	mov	r4, #0
  102e90:	e5834000 	str	r4, [r3]
  102e94:	e12fff32 	blx	r2
  102e98:	e1a00004 	mov	r0, r4
  102e9c:	e8bd8070 	pop	{r4, r5, r6, pc}
  102ea0:	e3a00001 	mov	r0, #1
  102ea4:	e8bd8070 	pop	{r4, r5, r6, pc}
  102ea8:	ebffff93 	bl	102cfc <_init_signal_r.part.0>
  102eac:	e3500000 	cmp	r0, #0
  102eb0:	1a000003 	bne	102ec4 <__sigtramp_r+0x7c>
  102eb4:	e59532dc 	ldr	r3, [r5, #732]	; 0x2dc
  102eb8:	eaffffea 	b	102e68 <__sigtramp_r+0x20>
  102ebc:	e3a00002 	mov	r0, #2
  102ec0:	e8bd8070 	pop	{r4, r5, r6, pc}
  102ec4:	e3e00000 	mvn	r0, #0
  102ec8:	e8bd8070 	pop	{r4, r5, r6, pc}
  102ecc:	e3a00003 	mov	r0, #3
  102ed0:	e8bd8070 	pop	{r4, r5, r6, pc}
  102ed4:	e3e00000 	mvn	r0, #0
  102ed8:	e12fff1e 	bx	lr

00102edc <raise>:
  102edc:	e30f3740 	movw	r3, #63296	; 0xf740
  102ee0:	e3403010 	movt	r3, #16
  102ee4:	e1a01000 	mov	r1, r0
  102ee8:	e5930000 	ldr	r0, [r3]
  102eec:	eaffffaf 	b	102db0 <_raise_r>

00102ef0 <signal>:
  102ef0:	e30f3740 	movw	r3, #63296	; 0xf740
  102ef4:	e3403010 	movt	r3, #16
  102ef8:	e1a02001 	mov	r2, r1
  102efc:	e1a01000 	mov	r1, r0
  102f00:	e5930000 	ldr	r0, [r3]
  102f04:	eaffff93 	b	102d58 <_signal_r>

00102f08 <_init_signal>:
  102f08:	e30f3740 	movw	r3, #63296	; 0xf740
  102f0c:	e3403010 	movt	r3, #16
  102f10:	e5930000 	ldr	r0, [r3]
  102f14:	e59032dc 	ldr	r3, [r0, #732]	; 0x2dc
  102f18:	e3530000 	cmp	r3, #0
  102f1c:	0a000001 	beq	102f28 <_init_signal+0x20>
  102f20:	e3a00000 	mov	r0, #0
  102f24:	e12fff1e 	bx	lr
  102f28:	eaffff73 	b	102cfc <_init_signal_r.part.0>

00102f2c <__sigtramp>:
  102f2c:	e30f3740 	movw	r3, #63296	; 0xf740
  102f30:	e3403010 	movt	r3, #16
  102f34:	e1a01000 	mov	r1, r0
  102f38:	e5930000 	ldr	r0, [r3]
  102f3c:	eaffffc1 	b	102e48 <__sigtramp_r>

00102f40 <_kill_r>:
  102f40:	e92d4070 	push	{r4, r5, r6, lr}
  102f44:	e1a03001 	mov	r3, r1
  102f48:	e3084414 	movw	r4, #33812	; 0x8414
  102f4c:	e3404012 	movt	r4, #18
  102f50:	e1a05000 	mov	r5, r0
  102f54:	e1a01002 	mov	r1, r2
  102f58:	e1a00003 	mov	r0, r3
  102f5c:	e3a03000 	mov	r3, #0
  102f60:	e5843000 	str	r3, [r4]
  102f64:	eb002dd6 	bl	10e6c4 <_kill>
  102f68:	e3700001 	cmn	r0, #1
  102f6c:	18bd8070 	popne	{r4, r5, r6, pc}
  102f70:	e5943000 	ldr	r3, [r4]
  102f74:	e3530000 	cmp	r3, #0
  102f78:	15853000 	strne	r3, [r5]
  102f7c:	e8bd8070 	pop	{r4, r5, r6, pc}

00102f80 <_getpid_r>:
  102f80:	ea002dc2 	b	10e690 <_getpid>
	...

00102fc0 <strlen>:
  102fc0:	f890 f000 	pld	[r0]
  102fc4:	e96d 4502 	strd	r4, r5, [sp, #-8]!
  102fc8:	f020 0107 	bic.w	r1, r0, #7
  102fcc:	f06f 0c00 	mvn.w	ip, #0
  102fd0:	f010 0407 	ands.w	r4, r0, #7
  102fd4:	f891 f020 	pld	[r1, #32]
  102fd8:	f040 8049 	bne.w	10306e <strlen+0xae>
  102fdc:	f04f 0400 	mov.w	r4, #0
  102fe0:	f06f 0007 	mvn.w	r0, #7
  102fe4:	e9d1 2300 	ldrd	r2, r3, [r1]
  102fe8:	f891 f040 	pld	[r1, #64]	; 0x40
  102fec:	f100 0008 	add.w	r0, r0, #8
  102ff0:	fa82 f24c 	uadd8	r2, r2, ip
  102ff4:	faa4 f28c 	sel	r2, r4, ip
  102ff8:	fa83 f34c 	uadd8	r3, r3, ip
  102ffc:	faa2 f38c 	sel	r3, r2, ip
  103000:	bb4b      	cbnz	r3, 103056 <strlen+0x96>
  103002:	e9d1 2302 	ldrd	r2, r3, [r1, #8]
  103006:	fa82 f24c 	uadd8	r2, r2, ip
  10300a:	f100 0008 	add.w	r0, r0, #8
  10300e:	faa4 f28c 	sel	r2, r4, ip
  103012:	fa83 f34c 	uadd8	r3, r3, ip
  103016:	faa2 f38c 	sel	r3, r2, ip
  10301a:	b9e3      	cbnz	r3, 103056 <strlen+0x96>
  10301c:	e9d1 2304 	ldrd	r2, r3, [r1, #16]
  103020:	fa82 f24c 	uadd8	r2, r2, ip
  103024:	f100 0008 	add.w	r0, r0, #8
  103028:	faa4 f28c 	sel	r2, r4, ip
  10302c:	fa83 f34c 	uadd8	r3, r3, ip
  103030:	faa2 f38c 	sel	r3, r2, ip
  103034:	b97b      	cbnz	r3, 103056 <strlen+0x96>
  103036:	e9d1 2306 	ldrd	r2, r3, [r1, #24]
  10303a:	f101 0120 	add.w	r1, r1, #32
  10303e:	fa82 f24c 	uadd8	r2, r2, ip
  103042:	f100 0008 	add.w	r0, r0, #8
  103046:	faa4 f28c 	sel	r2, r4, ip
  10304a:	fa83 f34c 	uadd8	r3, r3, ip
  10304e:	faa2 f38c 	sel	r3, r2, ip
  103052:	2b00      	cmp	r3, #0
  103054:	d0c6      	beq.n	102fe4 <strlen+0x24>
  103056:	2a00      	cmp	r2, #0
  103058:	bf04      	itt	eq
  10305a:	3004      	addeq	r0, #4
  10305c:	461a      	moveq	r2, r3
  10305e:	ba12      	rev	r2, r2
  103060:	fab2 f282 	clz	r2, r2
  103064:	e8fd 4502 	ldrd	r4, r5, [sp], #8
  103068:	eb00 00d2 	add.w	r0, r0, r2, lsr #3
  10306c:	4770      	bx	lr
  10306e:	e9d1 2300 	ldrd	r2, r3, [r1]
  103072:	f004 0503 	and.w	r5, r4, #3
  103076:	f1c4 0000 	rsb	r0, r4, #0
  10307a:	ea4f 05c5 	mov.w	r5, r5, lsl #3
  10307e:	f014 0f04 	tst.w	r4, #4
  103082:	f891 f040 	pld	[r1, #64]	; 0x40
  103086:	fa0c f505 	lsl.w	r5, ip, r5
  10308a:	ea62 0205 	orn	r2, r2, r5
  10308e:	bf1c      	itt	ne
  103090:	ea63 0305 	ornne	r3, r3, r5
  103094:	4662      	movne	r2, ip
  103096:	f04f 0400 	mov.w	r4, #0
  10309a:	e7a9      	b.n	102ff0 <strlen+0x30>
  10309c:	0000      	movs	r0, r0
	...

001030a0 <_vfprintf_r>:
  1030a0:	e92d4ff0 	push	{r4, r5, r6, r7, r8, r9, sl, fp, lr}
  1030a4:	e1a04003 	mov	r4, r3
  1030a8:	ed2d8b0a 	vpush	{d8-d12}
  1030ac:	e1a0b000 	mov	fp, r0
  1030b0:	e24ddf53 	sub	sp, sp, #332	; 0x14c
  1030b4:	e28da088 	add	sl, sp, #136	; 0x88
  1030b8:	e58d100c 	str	r1, [sp, #12]
  1030bc:	e58d2010 	str	r2, [sp, #16]
  1030c0:	eb0018c4 	bl	1093d8 <_localeconv_r>
  1030c4:	e58d4020 	str	r4, [sp, #32]
  1030c8:	e5903000 	ldr	r3, [r0]
  1030cc:	e1a00003 	mov	r0, r3
  1030d0:	e58d304c 	str	r3, [sp, #76]	; 0x4c
  1030d4:	faffffb9 	blx	102fc0 <strlen>
  1030d8:	e3a02008 	mov	r2, #8
  1030dc:	e3a01000 	mov	r1, #0
  1030e0:	e58d0048 	str	r0, [sp, #72]	; 0x48
  1030e4:	e1a0000a 	mov	r0, sl
  1030e8:	eb001d43 	bl	10a5fc <memset>
  1030ec:	e35b0000 	cmp	fp, #0
  1030f0:	0a000002 	beq	103100 <_vfprintf_r+0x60>
  1030f4:	e59b3038 	ldr	r3, [fp, #56]	; 0x38
  1030f8:	e3530000 	cmp	r3, #0
  1030fc:	0a0000df 	beq	103480 <_vfprintf_r+0x3e0>
  103100:	e59d100c 	ldr	r1, [sp, #12]
  103104:	e1d120fc 	ldrsh	r2, [r1, #12]
  103108:	e6ff3072 	uxth	r3, r2
  10310c:	e3130a02 	tst	r3, #8192	; 0x2000
  103110:	1a000005 	bne	10312c <_vfprintf_r+0x8c>
  103114:	e3823a02 	orr	r3, r2, #8192	; 0x2000
  103118:	e5912064 	ldr	r2, [r1, #100]	; 0x64
  10311c:	e1c130bc 	strh	r3, [r1, #12]
  103120:	e6ff3073 	uxth	r3, r3
  103124:	e3c22a02 	bic	r2, r2, #8192	; 0x2000
  103128:	e5812064 	str	r2, [r1, #100]	; 0x64
  10312c:	e3130008 	tst	r3, #8
  103130:	0a000039 	beq	10321c <_vfprintf_r+0x17c>
  103134:	e59d200c 	ldr	r2, [sp, #12]
  103138:	e5922010 	ldr	r2, [r2, #16]
  10313c:	e3520000 	cmp	r2, #0
  103140:	0a000035 	beq	10321c <_vfprintf_r+0x17c>
  103144:	e203301a 	and	r3, r3, #26
  103148:	e353000a 	cmp	r3, #10
  10314c:	0a00003c 	beq	103244 <_vfprintf_r+0x1a4>
  103150:	eeb4bb00 	vmov.f64	d11, #64	; 0x3e000000  0.125
  103154:	e3a03000 	mov	r3, #0
  103158:	ed9f8be6 	vldr	d8, [pc, #920]	; 1034f8 <_vfprintf_r+0x458>
  10315c:	e30c2ccd 	movw	r2, #52429	; 0xcccd
  103160:	e58d303c 	str	r3, [sp, #60]	; 0x3c
  103164:	e34c2ccc 	movt	r2, #52428	; 0xcccc
  103168:	e58d30a0 	str	r3, [sp, #160]	; 0xa0
  10316c:	e58d309c 	str	r3, [sp, #156]	; 0x9c
  103170:	e58d3050 	str	r3, [sp, #80]	; 0x50
  103174:	e58d305c 	str	r3, [sp, #92]	; 0x5c
  103178:	e58d3060 	str	r3, [sp, #96]	; 0x60
  10317c:	e58d3054 	str	r3, [sp, #84]	; 0x54
  103180:	e58d3058 	str	r3, [sp, #88]	; 0x58
  103184:	eeb39b00 	vmov.f64	d9, #48	; 0x41800000  16.0
  103188:	e58d3014 	str	r3, [sp, #20]
  10318c:	e28d30a4 	add	r3, sp, #164	; 0xa4
  103190:	e58d2064 	str	r2, [sp, #100]	; 0x64
  103194:	e58d3098 	str	r3, [sp, #152]	; 0x98
  103198:	e1a09003 	mov	r9, r3
  10319c:	e3003100 	movw	r3, #256	; 0x100
  1031a0:	e3403011 	movt	r3, #17
  1031a4:	e58d3034 	str	r3, [sp, #52]	; 0x34
  1031a8:	eeb6ab00 	vmov.f64	d10, #96	; 0x3f000000  0.5
  1031ac:	e59d5010 	ldr	r5, [sp, #16]
  1031b0:	e59d6034 	ldr	r6, [sp, #52]	; 0x34
  1031b4:	ea000003 	b	1031c8 <_vfprintf_r+0x128>
  1031b8:	e59d2078 	ldr	r2, [sp, #120]	; 0x78
  1031bc:	e3520025 	cmp	r2, #37	; 0x25
  1031c0:	0a00002c 	beq	103278 <_vfprintf_r+0x1d8>
  1031c4:	e0855003 	add	r5, r5, r3
  1031c8:	e5964000 	ldr	r4, [r6]
  1031cc:	eb001876 	bl	1093ac <__locale_mb_cur_max>
  1031d0:	e1a07000 	mov	r7, r0
  1031d4:	eb001871 	bl	1093a0 <__locale_charset>
  1031d8:	e1a03007 	mov	r3, r7
  1031dc:	e58da004 	str	sl, [sp, #4]
  1031e0:	e1a02005 	mov	r2, r5
  1031e4:	e28d1078 	add	r1, sp, #120	; 0x78
  1031e8:	e58d0000 	str	r0, [sp]
  1031ec:	e1a0000b 	mov	r0, fp
  1031f0:	e12fff34 	blx	r4
  1031f4:	e3500000 	cmp	r0, #0
  1031f8:	e1a03000 	mov	r3, r0
  1031fc:	0a00001d 	beq	103278 <_vfprintf_r+0x1d8>
  103200:	aaffffec 	bge	1031b8 <_vfprintf_r+0x118>
  103204:	e3a02008 	mov	r2, #8
  103208:	e3a01000 	mov	r1, #0
  10320c:	e1a0000a 	mov	r0, sl
  103210:	eb001cf9 	bl	10a5fc <memset>
  103214:	e3a03001 	mov	r3, #1
  103218:	eaffffe9 	b	1031c4 <_vfprintf_r+0x124>
  10321c:	e59d500c 	ldr	r5, [sp, #12]
  103220:	e1a0000b 	mov	r0, fp
  103224:	e1a01005 	mov	r1, r5
  103228:	eb000ba8 	bl	1060d0 <__swsetup_r>
  10322c:	e3500000 	cmp	r0, #0
  103230:	1a0008b3 	bne	105504 <_vfprintf_r+0x2464>
  103234:	e1d530bc 	ldrh	r3, [r5, #12]
  103238:	e203301a 	and	r3, r3, #26
  10323c:	e353000a 	cmp	r3, #10
  103240:	1affffc2 	bne	103150 <_vfprintf_r+0xb0>
  103244:	e59d100c 	ldr	r1, [sp, #12]
  103248:	e1d130fe 	ldrsh	r3, [r1, #14]
  10324c:	e3530000 	cmp	r3, #0
  103250:	baffffbe 	blt	103150 <_vfprintf_r+0xb0>
  103254:	e1a03004 	mov	r3, r4
  103258:	e59d2010 	ldr	r2, [sp, #16]
  10325c:	e1a0000b 	mov	r0, fp
  103260:	eb0009e4 	bl	1059f8 <__sbprintf>
  103264:	e58d0014 	str	r0, [sp, #20]
  103268:	e59d0014 	ldr	r0, [sp, #20]
  10326c:	e28ddf53 	add	sp, sp, #332	; 0x14c
  103270:	ecbd8b0a 	vpop	{d8-d12}
  103274:	e8bd8ff0 	pop	{r4, r5, r6, r7, r8, r9, sl, fp, pc}
  103278:	e59d2010 	ldr	r2, [sp, #16]
  10327c:	e1a04000 	mov	r4, r0
  103280:	e0556002 	subs	r6, r5, r2
  103284:	0a00000d 	beq	1032c0 <_vfprintf_r+0x220>
  103288:	e59d309c 	ldr	r3, [sp, #156]	; 0x9c
  10328c:	e5892000 	str	r2, [r9]
  103290:	e2833001 	add	r3, r3, #1
  103294:	e59d20a0 	ldr	r2, [sp, #160]	; 0xa0
  103298:	e3530007 	cmp	r3, #7
  10329c:	e5896004 	str	r6, [r9, #4]
  1032a0:	e58d309c 	str	r3, [sp, #156]	; 0x9c
  1032a4:	d2899008 	addle	r9, r9, #8
  1032a8:	e0823006 	add	r3, r2, r6
  1032ac:	e58d30a0 	str	r3, [sp, #160]	; 0xa0
  1032b0:	ca000075 	bgt	10348c <_vfprintf_r+0x3ec>
  1032b4:	e59d3014 	ldr	r3, [sp, #20]
  1032b8:	e0833006 	add	r3, r3, r6
  1032bc:	e58d3014 	str	r3, [sp, #20]
  1032c0:	e3540000 	cmp	r4, #0
  1032c4:	0a0006bc 	beq	104dbc <_vfprintf_r+0x1d1c>
  1032c8:	e3e04000 	mvn	r4, #0
  1032cc:	e3a03000 	mov	r3, #0
  1032d0:	e2858001 	add	r8, r5, #1
  1032d4:	e58d3018 	str	r3, [sp, #24]
  1032d8:	e5cd306f 	strb	r3, [sp, #111]	; 0x6f
  1032dc:	e1a06004 	mov	r6, r4
  1032e0:	e58d3008 	str	r3, [sp, #8]
  1032e4:	e5d53001 	ldrb	r3, [r5, #1]
  1032e8:	e3a0500a 	mov	r5, #10
  1032ec:	e2888001 	add	r8, r8, #1
  1032f0:	e2432020 	sub	r2, r3, #32
  1032f4:	e352005a 	cmp	r2, #90	; 0x5a
  1032f8:	979ff102 	ldrls	pc, [pc, r2, lsl #2]
  1032fc:	ea000330 	b	103fc4 <_vfprintf_r+0xf24>
  103300:	00103b10 	.word	0x00103b10
  103304:	00103fc4 	.word	0x00103fc4
  103308:	00103fc4 	.word	0x00103fc4
  10330c:	00103b28 	.word	0x00103b28
  103310:	00103fc4 	.word	0x00103fc4
  103314:	00103fc4 	.word	0x00103fc4
  103318:	00103fc4 	.word	0x00103fc4
  10331c:	00103e14 	.word	0x00103e14
  103320:	00103fc4 	.word	0x00103fc4
  103324:	00103fc4 	.word	0x00103fc4
  103328:	00103e6c 	.word	0x00103e6c
  10332c:	00103bc0 	.word	0x00103bc0
  103330:	00103fc4 	.word	0x00103fc4
  103334:	00103bd0 	.word	0x00103bd0
  103338:	00103be4 	.word	0x00103be4
  10333c:	00103fc4 	.word	0x00103fc4
  103340:	00103c20 	.word	0x00103c20
  103344:	00103a90 	.word	0x00103a90
  103348:	00103a90 	.word	0x00103a90
  10334c:	00103a90 	.word	0x00103a90
  103350:	00103a90 	.word	0x00103a90
  103354:	00103a90 	.word	0x00103a90
  103358:	00103a90 	.word	0x00103a90
  10335c:	00103a90 	.word	0x00103a90
  103360:	00103a90 	.word	0x00103a90
  103364:	00103a90 	.word	0x00103a90
  103368:	00103fc4 	.word	0x00103fc4
  10336c:	00103fc4 	.word	0x00103fc4
  103370:	00103fc4 	.word	0x00103fc4
  103374:	00103fc4 	.word	0x00103fc4
  103378:	00103fc4 	.word	0x00103fc4
  10337c:	00103fc4 	.word	0x00103fc4
  103380:	00103fc4 	.word	0x00103fc4
  103384:	00103d70 	.word	0x00103d70
  103388:	00103fc4 	.word	0x00103fc4
  10338c:	00103c34 	.word	0x00103c34
  103390:	00103c98 	.word	0x00103c98
  103394:	00103d70 	.word	0x00103d70
  103398:	00103d70 	.word	0x00103d70
  10339c:	00103d70 	.word	0x00103d70
  1033a0:	00103fc4 	.word	0x00103fc4
  1033a4:	00103fc4 	.word	0x00103fc4
  1033a8:	00103fc4 	.word	0x00103fc4
  1033ac:	00103fc4 	.word	0x00103fc4
  1033b0:	00103e00 	.word	0x00103e00
  1033b4:	00103fc4 	.word	0x00103fc4
  1033b8:	00103fc4 	.word	0x00103fc4
  1033bc:	00103f74 	.word	0x00103f74
  1033c0:	00103fc4 	.word	0x00103fc4
  1033c4:	00103fc4 	.word	0x00103fc4
  1033c8:	00103fc4 	.word	0x00103fc4
  1033cc:	00103e9c 	.word	0x00103e9c
  1033d0:	00103fc4 	.word	0x00103fc4
  1033d4:	00103f30 	.word	0x00103f30
  1033d8:	00103fc4 	.word	0x00103fc4
  1033dc:	00103fc4 	.word	0x00103fc4
  1033e0:	00103ce0 	.word	0x00103ce0
  1033e4:	00103fc4 	.word	0x00103fc4
  1033e8:	00103fc4 	.word	0x00103fc4
  1033ec:	00103fc4 	.word	0x00103fc4
  1033f0:	00103fc4 	.word	0x00103fc4
  1033f4:	00103fc4 	.word	0x00103fc4
  1033f8:	00103fc4 	.word	0x00103fc4
  1033fc:	00103fc4 	.word	0x00103fc4
  103400:	00103fc4 	.word	0x00103fc4
  103404:	00103d70 	.word	0x00103d70
  103408:	00103fc4 	.word	0x00103fc4
  10340c:	00103c34 	.word	0x00103c34
  103410:	00103504 	.word	0x00103504
  103414:	00103d70 	.word	0x00103d70
  103418:	00103d70 	.word	0x00103d70
  10341c:	00103d70 	.word	0x00103d70
  103420:	00103b94 	.word	0x00103b94
  103424:	00103504 	.word	0x00103504
  103428:	0010346c 	.word	0x0010346c
  10342c:	00103fc4 	.word	0x00103fc4
  103430:	00103b3c 	.word	0x00103b3c
  103434:	00103fc4 	.word	0x00103fc4
  103438:	00103b68 	.word	0x00103b68
  10343c:	0010396c 	.word	0x0010396c
  103440:	00103d30 	.word	0x00103d30
  103444:	0010346c 	.word	0x0010346c
  103448:	00103fc4 	.word	0x00103fc4
  10344c:	00103e9c 	.word	0x00103e9c
  103450:	00103478 	.word	0x00103478
  103454:	00103a60 	.word	0x00103a60
  103458:	00103fc4 	.word	0x00103fc4
  10345c:	00103fc4 	.word	0x00103fc4
  103460:	00103ab4 	.word	0x00103ab4
  103464:	00103fc4 	.word	0x00103fc4
  103468:	00103478 	.word	0x00103478
  10346c:	e59d3008 	ldr	r3, [sp, #8]
  103470:	e3833020 	orr	r3, r3, #32
  103474:	e58d3008 	str	r3, [sp, #8]
  103478:	e5d83000 	ldrb	r3, [r8]
  10347c:	eaffff9a 	b	1032ec <_vfprintf_r+0x24c>
  103480:	e1a0000b 	mov	r0, fp
  103484:	eb00120d 	bl	107cc0 <__sinit>
  103488:	eaffff1c 	b	103100 <_vfprintf_r+0x60>
  10348c:	e28d2098 	add	r2, sp, #152	; 0x98
  103490:	e59d100c 	ldr	r1, [sp, #12]
  103494:	e1a0000b 	mov	r0, fp
  103498:	eb0024a3 	bl	10c72c <__sprint_r>
  10349c:	e3500000 	cmp	r0, #0
  1034a0:	1a00000b 	bne	1034d4 <_vfprintf_r+0x434>
  1034a4:	e28d90a4 	add	r9, sp, #164	; 0xa4
  1034a8:	eaffff81 	b	1032b4 <_vfprintf_r+0x214>
  1034ac:	e59d200c 	ldr	r2, [sp, #12]
  1034b0:	e1d230bc 	ldrh	r3, [r2, #12]
  1034b4:	e3833040 	orr	r3, r3, #64	; 0x40
  1034b8:	e1c230bc 	strh	r3, [r2, #12]
  1034bc:	e59d3024 	ldr	r3, [sp, #36]	; 0x24
  1034c0:	e3530000 	cmp	r3, #0
  1034c4:	0a000002 	beq	1034d4 <_vfprintf_r+0x434>
  1034c8:	e59d1024 	ldr	r1, [sp, #36]	; 0x24
  1034cc:	e1a0000b 	mov	r0, fp
  1034d0:	eb00124d 	bl	107e0c <_free_r>
  1034d4:	e59d300c 	ldr	r3, [sp, #12]
  1034d8:	e1d330fc 	ldrsh	r3, [r3, #12]
  1034dc:	e3130040 	tst	r3, #64	; 0x40
  1034e0:	1a000807 	bne	105504 <_vfprintf_r+0x2464>
  1034e4:	e59d0014 	ldr	r0, [sp, #20]
  1034e8:	e28ddf53 	add	sp, sp, #332	; 0x14c
  1034ec:	ecbd8b0a 	vpop	{d8-d12}
  1034f0:	e8bd8ff0 	pop	{r4, r5, r6, r7, r8, r9, sl, fp, pc}
  1034f4:	e320f000 	nop	{0}
	...
  103500:	0010f21c 	.word	0x0010f21c
  103504:	e59d5008 	ldr	r5, [sp, #8]
  103508:	e58d3030 	str	r3, [sp, #48]	; 0x30
  10350c:	e3150020 	tst	r5, #32
  103510:	0a0001e5 	beq	103cac <_vfprintf_r+0xc0c>
  103514:	e59d3020 	ldr	r3, [sp, #32]
  103518:	e2833007 	add	r3, r3, #7
  10351c:	e3c33007 	bic	r3, r3, #7
  103520:	e2832008 	add	r2, r3, #8
  103524:	e58d2020 	str	r2, [sp, #32]
  103528:	e1c320d0 	ldrd	r2, [r3]
  10352c:	e1a06002 	mov	r6, r2
  103530:	e1a07003 	mov	r7, r3
  103534:	e3520000 	cmp	r2, #0
  103538:	e2d33000 	sbcs	r3, r3, #0
  10353c:	aa000003 	bge	103550 <_vfprintf_r+0x4b0>
  103540:	e2766000 	rsbs	r6, r6, #0
  103544:	e3a0302d 	mov	r3, #45	; 0x2d
  103548:	e2e77000 	rsc	r7, r7, #0
  10354c:	e5cd306f 	strb	r3, [sp, #111]	; 0x6f
  103550:	e3740001 	cmn	r4, #1
  103554:	e28d3f52 	add	r3, sp, #328	; 0x148
  103558:	e58d301c 	str	r3, [sp, #28]
  10355c:	13a02001 	movne	r2, #1
  103560:	0a0003c8 	beq	104488 <_vfprintf_r+0x13e8>
  103564:	e1963007 	orrs	r3, r6, r7
  103568:	e3c53080 	bic	r3, r5, #128	; 0x80
  10356c:	e58d3008 	str	r3, [sp, #8]
  103570:	13a03001 	movne	r3, #1
  103574:	03a03000 	moveq	r3, #0
  103578:	e3540000 	cmp	r4, #0
  10357c:	13a03001 	movne	r3, #1
  103580:	e3530000 	cmp	r3, #0
  103584:	1a0003bc 	bne	10447c <_vfprintf_r+0x13dc>
  103588:	e3520000 	cmp	r2, #0
  10358c:	1a00036c 	bne	104344 <_vfprintf_r+0x12a4>
  103590:	e2153001 	ands	r3, r5, #1
  103594:	e58d301c 	str	r3, [sp, #28]
  103598:	0a0003c5 	beq	1044b4 <_vfprintf_r+0x1414>
  10359c:	e28d1f52 	add	r1, sp, #328	; 0x148
  1035a0:	e1a04002 	mov	r4, r2
  1035a4:	e3a03030 	mov	r3, #48	; 0x30
  1035a8:	e5613001 	strb	r3, [r1, #-1]!
  1035ac:	e58d1010 	str	r1, [sp, #16]
  1035b0:	e59d201c 	ldr	r2, [sp, #28]
  1035b4:	e3a03000 	mov	r3, #0
  1035b8:	e5dd106f 	ldrb	r1, [sp, #111]	; 0x6f
  1035bc:	e1540002 	cmp	r4, r2
  1035c0:	e58d3024 	str	r3, [sp, #36]	; 0x24
  1035c4:	e58d3044 	str	r3, [sp, #68]	; 0x44
  1035c8:	a1a07004 	movge	r7, r4
  1035cc:	b1a07002 	movlt	r7, r2
  1035d0:	e58d3040 	str	r3, [sp, #64]	; 0x40
  1035d4:	e58d3038 	str	r3, [sp, #56]	; 0x38
  1035d8:	e3510000 	cmp	r1, #0
  1035dc:	0a000000 	beq	1035e4 <_vfprintf_r+0x544>
  1035e0:	e2877001 	add	r7, r7, #1
  1035e4:	e59d3008 	ldr	r3, [sp, #8]
  1035e8:	e59d20a0 	ldr	r2, [sp, #160]	; 0xa0
  1035ec:	e2133002 	ands	r3, r3, #2
  1035f0:	e58d3028 	str	r3, [sp, #40]	; 0x28
  1035f4:	e59d3008 	ldr	r3, [sp, #8]
  1035f8:	12877002 	addne	r7, r7, #2
  1035fc:	e2133084 	ands	r3, r3, #132	; 0x84
  103600:	e58d302c 	str	r3, [sp, #44]	; 0x2c
  103604:	1a00002d 	bne	1036c0 <_vfprintf_r+0x620>
  103608:	e59d3018 	ldr	r3, [sp, #24]
  10360c:	e0435007 	sub	r5, r3, r7
  103610:	e3550000 	cmp	r5, #0
  103614:	da000029 	ble	1036c0 <_vfprintf_r+0x620>
  103618:	e3550010 	cmp	r5, #16
  10361c:	e30f620c 	movw	r6, #61964	; 0xf20c
  103620:	e59d109c 	ldr	r1, [sp, #156]	; 0x9c
  103624:	e3406010 	movt	r6, #16
  103628:	c3a03010 	movgt	r3, #16
  10362c:	ca000003 	bgt	103640 <_vfprintf_r+0x5a0>
  103630:	ea000018 	b	103698 <_vfprintf_r+0x5f8>
  103634:	e2455010 	sub	r5, r5, #16
  103638:	e3550010 	cmp	r5, #16
  10363c:	da000015 	ble	103698 <_vfprintf_r+0x5f8>
  103640:	e2811001 	add	r1, r1, #1
  103644:	e2822010 	add	r2, r2, #16
  103648:	e3510007 	cmp	r1, #7
  10364c:	e5896000 	str	r6, [r9]
  103650:	e5893004 	str	r3, [r9, #4]
  103654:	d2899008 	addle	r9, r9, #8
  103658:	e58d109c 	str	r1, [sp, #156]	; 0x9c
  10365c:	e58d20a0 	str	r2, [sp, #160]	; 0xa0
  103660:	dafffff3 	ble	103634 <_vfprintf_r+0x594>
  103664:	e28d2098 	add	r2, sp, #152	; 0x98
  103668:	e59d100c 	ldr	r1, [sp, #12]
  10366c:	e1a0000b 	mov	r0, fp
  103670:	e28d90a4 	add	r9, sp, #164	; 0xa4
  103674:	eb00242c 	bl	10c72c <__sprint_r>
  103678:	e3500000 	cmp	r0, #0
  10367c:	1affff8e 	bne	1034bc <_vfprintf_r+0x41c>
  103680:	e2455010 	sub	r5, r5, #16
  103684:	e59d20a0 	ldr	r2, [sp, #160]	; 0xa0
  103688:	e3550010 	cmp	r5, #16
  10368c:	e59d109c 	ldr	r1, [sp, #156]	; 0x9c
  103690:	e3a03010 	mov	r3, #16
  103694:	caffffe9 	bgt	103640 <_vfprintf_r+0x5a0>
  103698:	e2811001 	add	r1, r1, #1
  10369c:	e0822005 	add	r2, r2, r5
  1036a0:	e3510007 	cmp	r1, #7
  1036a4:	e58d109c 	str	r1, [sp, #156]	; 0x9c
  1036a8:	e58d20a0 	str	r2, [sp, #160]	; 0xa0
  1036ac:	e5896000 	str	r6, [r9]
  1036b0:	e5895004 	str	r5, [r9, #4]
  1036b4:	ca0003af 	bgt	104578 <_vfprintf_r+0x14d8>
  1036b8:	e5dd106f 	ldrb	r1, [sp, #111]	; 0x6f
  1036bc:	e2899008 	add	r9, r9, #8
  1036c0:	e3510000 	cmp	r1, #0
  1036c4:	0a00000b 	beq	1036f8 <_vfprintf_r+0x658>
  1036c8:	e59d109c 	ldr	r1, [sp, #156]	; 0x9c
  1036cc:	e2822001 	add	r2, r2, #1
  1036d0:	e28d006f 	add	r0, sp, #111	; 0x6f
  1036d4:	e58d20a0 	str	r2, [sp, #160]	; 0xa0
  1036d8:	e2811001 	add	r1, r1, #1
  1036dc:	e5890000 	str	r0, [r9]
  1036e0:	e3510007 	cmp	r1, #7
  1036e4:	e58d109c 	str	r1, [sp, #156]	; 0x9c
  1036e8:	e3a01001 	mov	r1, #1
  1036ec:	e5891004 	str	r1, [r9, #4]
  1036f0:	d2899008 	addle	r9, r9, #8
  1036f4:	ca000317 	bgt	104358 <_vfprintf_r+0x12b8>
  1036f8:	e59d3028 	ldr	r3, [sp, #40]	; 0x28
  1036fc:	e3530000 	cmp	r3, #0
  103700:	0a00000b 	beq	103734 <_vfprintf_r+0x694>
  103704:	e59d309c 	ldr	r3, [sp, #156]	; 0x9c
  103708:	e2822002 	add	r2, r2, #2
  10370c:	e28d1070 	add	r1, sp, #112	; 0x70
  103710:	e58d20a0 	str	r2, [sp, #160]	; 0xa0
  103714:	e2833001 	add	r3, r3, #1
  103718:	e5891000 	str	r1, [r9]
  10371c:	e3530007 	cmp	r3, #7
  103720:	e58d309c 	str	r3, [sp, #156]	; 0x9c
  103724:	e3a03002 	mov	r3, #2
  103728:	e5893004 	str	r3, [r9, #4]
  10372c:	d2899008 	addle	r9, r9, #8
  103730:	ca000311 	bgt	10437c <_vfprintf_r+0x12dc>
  103734:	e59d302c 	ldr	r3, [sp, #44]	; 0x2c
  103738:	e3530080 	cmp	r3, #128	; 0x80
  10373c:	0a00027a 	beq	10412c <_vfprintf_r+0x108c>
  103740:	e59d301c 	ldr	r3, [sp, #28]
  103744:	e0444003 	sub	r4, r4, r3
  103748:	e3540000 	cmp	r4, #0
  10374c:	da00002e 	ble	10380c <_vfprintf_r+0x76c>
  103750:	e3540010 	cmp	r4, #16
  103754:	e59d309c 	ldr	r3, [sp, #156]	; 0x9c
  103758:	da00001a 	ble	1037c8 <_vfprintf_r+0x728>
  10375c:	e3a05010 	mov	r5, #16
  103760:	e59d600c 	ldr	r6, [sp, #12]
  103764:	ea000002 	b	103774 <_vfprintf_r+0x6d4>
  103768:	e2444010 	sub	r4, r4, #16
  10376c:	e3540010 	cmp	r4, #16
  103770:	da000014 	ble	1037c8 <_vfprintf_r+0x728>
  103774:	e2833001 	add	r3, r3, #1
  103778:	e51f1280 	ldr	r1, [pc, #-640]	; 103500 <_vfprintf_r+0x460>
  10377c:	e3530007 	cmp	r3, #7
  103780:	e2822010 	add	r2, r2, #16
  103784:	e58d309c 	str	r3, [sp, #156]	; 0x9c
  103788:	e8890022 	stm	r9, {r1, r5}
  10378c:	d2899008 	addle	r9, r9, #8
  103790:	e58d20a0 	str	r2, [sp, #160]	; 0xa0
  103794:	dafffff3 	ble	103768 <_vfprintf_r+0x6c8>
  103798:	e28d2098 	add	r2, sp, #152	; 0x98
  10379c:	e1a01006 	mov	r1, r6
  1037a0:	e1a0000b 	mov	r0, fp
  1037a4:	e28d90a4 	add	r9, sp, #164	; 0xa4
  1037a8:	eb0023df 	bl	10c72c <__sprint_r>
  1037ac:	e3500000 	cmp	r0, #0
  1037b0:	1affff41 	bne	1034bc <_vfprintf_r+0x41c>
  1037b4:	e2444010 	sub	r4, r4, #16
  1037b8:	e59d20a0 	ldr	r2, [sp, #160]	; 0xa0
  1037bc:	e3540010 	cmp	r4, #16
  1037c0:	e59d309c 	ldr	r3, [sp, #156]	; 0x9c
  1037c4:	caffffea 	bgt	103774 <_vfprintf_r+0x6d4>
  1037c8:	e2833001 	add	r3, r3, #1
  1037cc:	e58d309c 	str	r3, [sp, #156]	; 0x9c
  1037d0:	e3530007 	cmp	r3, #7
  1037d4:	e51f32dc 	ldr	r3, [pc, #-732]	; 103500 <_vfprintf_r+0x460>
  1037d8:	e0822004 	add	r2, r2, r4
  1037dc:	e58d20a0 	str	r2, [sp, #160]	; 0xa0
  1037e0:	e8890018 	stm	r9, {r3, r4}
  1037e4:	d2899008 	addle	r9, r9, #8
  1037e8:	da000007 	ble	10380c <_vfprintf_r+0x76c>
  1037ec:	e28d2098 	add	r2, sp, #152	; 0x98
  1037f0:	e59d100c 	ldr	r1, [sp, #12]
  1037f4:	e1a0000b 	mov	r0, fp
  1037f8:	eb0023cb 	bl	10c72c <__sprint_r>
  1037fc:	e3500000 	cmp	r0, #0
  103800:	1affff2d 	bne	1034bc <_vfprintf_r+0x41c>
  103804:	e59d20a0 	ldr	r2, [sp, #160]	; 0xa0
  103808:	e28d90a4 	add	r9, sp, #164	; 0xa4
  10380c:	e59d3008 	ldr	r3, [sp, #8]
  103810:	e3130c01 	tst	r3, #256	; 0x100
  103814:	1a0001fc 	bne	10400c <_vfprintf_r+0xf6c>
  103818:	e59d309c 	ldr	r3, [sp, #156]	; 0x9c
  10381c:	e59d101c 	ldr	r1, [sp, #28]
  103820:	e2833001 	add	r3, r3, #1
  103824:	e59d0010 	ldr	r0, [sp, #16]
  103828:	e3530007 	cmp	r3, #7
  10382c:	e0822001 	add	r2, r2, r1
  103830:	e5891004 	str	r1, [r9, #4]
  103834:	e5890000 	str	r0, [r9]
  103838:	e58d20a0 	str	r2, [sp, #160]	; 0xa0
  10383c:	e58d309c 	str	r3, [sp, #156]	; 0x9c
  103840:	ca0002b6 	bgt	104320 <_vfprintf_r+0x1280>
  103844:	e2899008 	add	r9, r9, #8
  103848:	e59d3008 	ldr	r3, [sp, #8]
  10384c:	e3130004 	tst	r3, #4
  103850:	0a000033 	beq	103924 <_vfprintf_r+0x884>
  103854:	e59d3018 	ldr	r3, [sp, #24]
  103858:	e0434007 	sub	r4, r3, r7
  10385c:	e3540000 	cmp	r4, #0
  103860:	da00002f 	ble	103924 <_vfprintf_r+0x884>
  103864:	e59d309c 	ldr	r3, [sp, #156]	; 0x9c
  103868:	e3540010 	cmp	r4, #16
  10386c:	e30f620c 	movw	r6, #61964	; 0xf20c
  103870:	e3406010 	movt	r6, #16
  103874:	c3a05010 	movgt	r5, #16
  103878:	c1a01003 	movgt	r1, r3
  10387c:	ca000003 	bgt	103890 <_vfprintf_r+0x7f0>
  103880:	ea000018 	b	1038e8 <_vfprintf_r+0x848>
  103884:	e2444010 	sub	r4, r4, #16
  103888:	e3540010 	cmp	r4, #16
  10388c:	da000014 	ble	1038e4 <_vfprintf_r+0x844>
  103890:	e2811001 	add	r1, r1, #1
  103894:	e2822010 	add	r2, r2, #16
  103898:	e3510007 	cmp	r1, #7
  10389c:	e5896000 	str	r6, [r9]
  1038a0:	e5895004 	str	r5, [r9, #4]
  1038a4:	d2899008 	addle	r9, r9, #8
  1038a8:	e58d109c 	str	r1, [sp, #156]	; 0x9c
  1038ac:	e58d20a0 	str	r2, [sp, #160]	; 0xa0
  1038b0:	dafffff3 	ble	103884 <_vfprintf_r+0x7e4>
  1038b4:	e28d2098 	add	r2, sp, #152	; 0x98
  1038b8:	e59d100c 	ldr	r1, [sp, #12]
  1038bc:	e1a0000b 	mov	r0, fp
  1038c0:	e28d90a4 	add	r9, sp, #164	; 0xa4
  1038c4:	eb002398 	bl	10c72c <__sprint_r>
  1038c8:	e3500000 	cmp	r0, #0
  1038cc:	1afffefa 	bne	1034bc <_vfprintf_r+0x41c>
  1038d0:	e2444010 	sub	r4, r4, #16
  1038d4:	e59d20a0 	ldr	r2, [sp, #160]	; 0xa0
  1038d8:	e3540010 	cmp	r4, #16
  1038dc:	e59d109c 	ldr	r1, [sp, #156]	; 0x9c
  1038e0:	caffffea 	bgt	103890 <_vfprintf_r+0x7f0>
  1038e4:	e1a03001 	mov	r3, r1
  1038e8:	e2833001 	add	r3, r3, #1
  1038ec:	e0822004 	add	r2, r2, r4
  1038f0:	e3530007 	cmp	r3, #7
  1038f4:	e58d309c 	str	r3, [sp, #156]	; 0x9c
  1038f8:	e58d20a0 	str	r2, [sp, #160]	; 0xa0
  1038fc:	e5896000 	str	r6, [r9]
  103900:	e5894004 	str	r4, [r9, #4]
  103904:	da000006 	ble	103924 <_vfprintf_r+0x884>
  103908:	e28d2098 	add	r2, sp, #152	; 0x98
  10390c:	e59d100c 	ldr	r1, [sp, #12]
  103910:	e1a0000b 	mov	r0, fp
  103914:	eb002384 	bl	10c72c <__sprint_r>
  103918:	e3500000 	cmp	r0, #0
  10391c:	1afffee6 	bne	1034bc <_vfprintf_r+0x41c>
  103920:	e59d20a0 	ldr	r2, [sp, #160]	; 0xa0
  103924:	e59d3014 	ldr	r3, [sp, #20]
  103928:	e59d1018 	ldr	r1, [sp, #24]
  10392c:	e1510007 	cmp	r1, r7
  103930:	a0833001 	addge	r3, r3, r1
  103934:	b0833007 	addlt	r3, r3, r7
  103938:	e3520000 	cmp	r2, #0
  10393c:	e58d3014 	str	r3, [sp, #20]
  103940:	1a000237 	bne	104224 <_vfprintf_r+0x1184>
  103944:	e59d3024 	ldr	r3, [sp, #36]	; 0x24
  103948:	e3530000 	cmp	r3, #0
  10394c:	e3a03000 	mov	r3, #0
  103950:	e58d309c 	str	r3, [sp, #156]	; 0x9c
  103954:	0a000002 	beq	103964 <_vfprintf_r+0x8c4>
  103958:	e59d1024 	ldr	r1, [sp, #36]	; 0x24
  10395c:	e1a0000b 	mov	r0, fp
  103960:	eb001129 	bl	107e0c <_free_r>
  103964:	e28d90a4 	add	r9, sp, #164	; 0xa4
  103968:	ea000087 	b	103b8c <_vfprintf_r+0xaec>
  10396c:	e58d3030 	str	r3, [sp, #48]	; 0x30
  103970:	e59d3008 	ldr	r3, [sp, #8]
  103974:	e3130020 	tst	r3, #32
  103978:	0a000184 	beq	103f90 <_vfprintf_r+0xef0>
  10397c:	e59d3020 	ldr	r3, [sp, #32]
  103980:	e2833007 	add	r3, r3, #7
  103984:	e3c33007 	bic	r3, r3, #7
  103988:	e2832008 	add	r2, r3, #8
  10398c:	e58d2020 	str	r2, [sp, #32]
  103990:	e1c360d0 	ldrd	r6, [r3]
  103994:	e59d3008 	ldr	r3, [sp, #8]
  103998:	e3a02000 	mov	r2, #0
  10399c:	e3c35b01 	bic	r5, r3, #1024	; 0x400
  1039a0:	e3740001 	cmn	r4, #1
  1039a4:	e3a03000 	mov	r3, #0
  1039a8:	e5cd306f 	strb	r3, [sp, #111]	; 0x6f
  1039ac:	e28d3f52 	add	r3, sp, #328	; 0x148
  1039b0:	e58d301c 	str	r3, [sp, #28]
  1039b4:	1afffeea 	bne	103564 <_vfprintf_r+0x4c4>
  1039b8:	e3520001 	cmp	r2, #1
  1039bc:	0a0002b1 	beq	104488 <_vfprintf_r+0x13e8>
  1039c0:	e3520002 	cmp	r2, #2
  1039c4:	128d1f52 	addne	r1, sp, #328	; 0x148
  1039c8:	1a00000e 	bne	103a08 <_vfprintf_r+0x968>
  1039cc:	e59dc050 	ldr	ip, [sp, #80]	; 0x50
  1039d0:	e28d2f52 	add	r2, sp, #328	; 0x148
  1039d4:	e206100f 	and	r1, r6, #15
  1039d8:	e1a03226 	lsr	r3, r6, #4
  1039dc:	e1833e07 	orr	r3, r3, r7, lsl #28
  1039e0:	e1a00227 	lsr	r0, r7, #4
  1039e4:	e7dc1001 	ldrb	r1, [ip, r1]
  1039e8:	e1a06003 	mov	r6, r3
  1039ec:	e1a07000 	mov	r7, r0
  1039f0:	e1963007 	orrs	r3, r6, r7
  1039f4:	e5621001 	strb	r1, [r2, #-1]!
  1039f8:	1afffff5 	bne	1039d4 <_vfprintf_r+0x934>
  1039fc:	e58d2010 	str	r2, [sp, #16]
  103a00:	ea000011 	b	103a4c <_vfprintf_r+0x9ac>
  103a04:	e1a01002 	mov	r1, r2
  103a08:	e1a021a6 	lsr	r2, r6, #3
  103a0c:	e1a001a7 	lsr	r0, r7, #3
  103a10:	e1822e87 	orr	r2, r2, r7, lsl #29
  103a14:	e2063007 	and	r3, r6, #7
  103a18:	e1a07000 	mov	r7, r0
  103a1c:	e2833030 	add	r3, r3, #48	; 0x30
  103a20:	e1a06002 	mov	r6, r2
  103a24:	e1962007 	orrs	r2, r6, r7
  103a28:	e5413001 	strb	r3, [r1, #-1]
  103a2c:	e2412001 	sub	r2, r1, #1
  103a30:	1afffff3 	bne	103a04 <_vfprintf_r+0x964>
  103a34:	e3530030 	cmp	r3, #48	; 0x30
  103a38:	03a03000 	moveq	r3, #0
  103a3c:	12053001 	andne	r3, r5, #1
  103a40:	e58d2010 	str	r2, [sp, #16]
  103a44:	e3530000 	cmp	r3, #0
  103a48:	1a0004b7 	bne	104d2c <_vfprintf_r+0x1c8c>
  103a4c:	e59d301c 	ldr	r3, [sp, #28]
  103a50:	e58d5008 	str	r5, [sp, #8]
  103a54:	e0433002 	sub	r3, r3, r2
  103a58:	e58d301c 	str	r3, [sp, #28]
  103a5c:	eafffed3 	b	1035b0 <_vfprintf_r+0x510>
  103a60:	e59d5008 	ldr	r5, [sp, #8]
  103a64:	e58d3030 	str	r3, [sp, #48]	; 0x30
  103a68:	e3150020 	tst	r5, #32
  103a6c:	0a000134 	beq	103f44 <_vfprintf_r+0xea4>
  103a70:	e59d3020 	ldr	r3, [sp, #32]
  103a74:	e3a02001 	mov	r2, #1
  103a78:	e2833007 	add	r3, r3, #7
  103a7c:	e3c33007 	bic	r3, r3, #7
  103a80:	e2831008 	add	r1, r3, #8
  103a84:	e58d1020 	str	r1, [sp, #32]
  103a88:	e1c360d0 	ldrd	r6, [r3]
  103a8c:	eaffffc3 	b	1039a0 <_vfprintf_r+0x900>
  103a90:	e2432030 	sub	r2, r3, #48	; 0x30
  103a94:	e3a01000 	mov	r1, #0
  103a98:	e4d83001 	ldrb	r3, [r8], #1
  103a9c:	e0212195 	mla	r1, r5, r1, r2
  103aa0:	e2432030 	sub	r2, r3, #48	; 0x30
  103aa4:	e3520009 	cmp	r2, #9
  103aa8:	9afffffa 	bls	103a98 <_vfprintf_r+0x9f8>
  103aac:	e58d1018 	str	r1, [sp, #24]
  103ab0:	eafffe0e 	b	1032f0 <_vfprintf_r+0x250>
  103ab4:	e58d3030 	str	r3, [sp, #48]	; 0x30
  103ab8:	e30f3594 	movw	r3, #62868	; 0xf594
  103abc:	e3403010 	movt	r3, #16
  103ac0:	e58d3050 	str	r3, [sp, #80]	; 0x50
  103ac4:	e59d3008 	ldr	r3, [sp, #8]
  103ac8:	e3130020 	tst	r3, #32
  103acc:	0a00008a 	beq	103cfc <_vfprintf_r+0xc5c>
  103ad0:	e59d3020 	ldr	r3, [sp, #32]
  103ad4:	e2833007 	add	r3, r3, #7
  103ad8:	e3c33007 	bic	r3, r3, #7
  103adc:	e2832008 	add	r2, r3, #8
  103ae0:	e58d2020 	str	r2, [sp, #32]
  103ae4:	e1c360d0 	ldrd	r6, [r3]
  103ae8:	e1963007 	orrs	r3, r6, r7
  103aec:	e59d3008 	ldr	r3, [sp, #8]
  103af0:	12033001 	andne	r3, r3, #1
  103af4:	03a03000 	moveq	r3, #0
  103af8:	e3530000 	cmp	r3, #0
  103afc:	1a0003d2 	bne	104a4c <_vfprintf_r+0x19ac>
  103b00:	e59d3008 	ldr	r3, [sp, #8]
  103b04:	e3a02002 	mov	r2, #2
  103b08:	e3c35b01 	bic	r5, r3, #1024	; 0x400
  103b0c:	eaffffa3 	b	1039a0 <_vfprintf_r+0x900>
  103b10:	e5dd206f 	ldrb	r2, [sp, #111]	; 0x6f
  103b14:	e5d83000 	ldrb	r3, [r8]
  103b18:	e3520000 	cmp	r2, #0
  103b1c:	03a02020 	moveq	r2, #32
  103b20:	05cd206f 	strbeq	r2, [sp, #111]	; 0x6f
  103b24:	eafffdf0 	b	1032ec <_vfprintf_r+0x24c>
  103b28:	e59d3008 	ldr	r3, [sp, #8]
  103b2c:	e3833001 	orr	r3, r3, #1
  103b30:	e58d3008 	str	r3, [sp, #8]
  103b34:	e5d83000 	ldrb	r3, [r8]
  103b38:	eafffdeb 	b	1032ec <_vfprintf_r+0x24c>
  103b3c:	e5d83000 	ldrb	r3, [r8]
  103b40:	e353006c 	cmp	r3, #108	; 0x6c
  103b44:	059d3008 	ldreq	r3, [sp, #8]
  103b48:	159d2008 	ldrne	r2, [sp, #8]
  103b4c:	03833020 	orreq	r3, r3, #32
  103b50:	13822010 	orrne	r2, r2, #16
  103b54:	058d3008 	streq	r3, [sp, #8]
  103b58:	158d2008 	strne	r2, [sp, #8]
  103b5c:	05d83001 	ldrbeq	r3, [r8, #1]
  103b60:	02888001 	addeq	r8, r8, #1
  103b64:	eafffde0 	b	1032ec <_vfprintf_r+0x24c>
  103b68:	e59d2020 	ldr	r2, [sp, #32]
  103b6c:	e59d3008 	ldr	r3, [sp, #8]
  103b70:	e3130020 	tst	r3, #32
  103b74:	e4923004 	ldr	r3, [r2], #4
  103b78:	e58d2020 	str	r2, [sp, #32]
  103b7c:	0a000348 	beq	1048a4 <_vfprintf_r+0x1804>
  103b80:	e59d0014 	ldr	r0, [sp, #20]
  103b84:	e1a01fc0 	asr	r1, r0, #31
  103b88:	e1c300f0 	strd	r0, [r3]
  103b8c:	e58d8010 	str	r8, [sp, #16]
  103b90:	eafffd85 	b	1031ac <_vfprintf_r+0x10c>
  103b94:	e5d83000 	ldrb	r3, [r8]
  103b98:	e3530068 	cmp	r3, #104	; 0x68
  103b9c:	059d3008 	ldreq	r3, [sp, #8]
  103ba0:	159d2008 	ldrne	r2, [sp, #8]
  103ba4:	03833c02 	orreq	r3, r3, #512	; 0x200
  103ba8:	13822040 	orrne	r2, r2, #64	; 0x40
  103bac:	058d3008 	streq	r3, [sp, #8]
  103bb0:	158d2008 	strne	r2, [sp, #8]
  103bb4:	05d83001 	ldrbeq	r3, [r8, #1]
  103bb8:	02888001 	addeq	r8, r8, #1
  103bbc:	eafffdca 	b	1032ec <_vfprintf_r+0x24c>
  103bc0:	e3a0302b 	mov	r3, #43	; 0x2b
  103bc4:	e5cd306f 	strb	r3, [sp, #111]	; 0x6f
  103bc8:	e5d83000 	ldrb	r3, [r8]
  103bcc:	eafffdc6 	b	1032ec <_vfprintf_r+0x24c>
  103bd0:	e5d83000 	ldrb	r3, [r8]
  103bd4:	e59d2008 	ldr	r2, [sp, #8]
  103bd8:	e3822004 	orr	r2, r2, #4
  103bdc:	e58d2008 	str	r2, [sp, #8]
  103be0:	eafffdc1 	b	1032ec <_vfprintf_r+0x24c>
  103be4:	e5d83000 	ldrb	r3, [r8]
  103be8:	e2881001 	add	r1, r8, #1
  103bec:	e353002a 	cmp	r3, #42	; 0x2a
  103bf0:	0a000767 	beq	105994 <_vfprintf_r+0x28f4>
  103bf4:	e2432030 	sub	r2, r3, #48	; 0x30
  103bf8:	e1a08001 	mov	r8, r1
  103bfc:	e3520009 	cmp	r2, #9
  103c00:	e3a04000 	mov	r4, #0
  103c04:	8afffdb9 	bhi	1032f0 <_vfprintf_r+0x250>
  103c08:	e4d83001 	ldrb	r3, [r8], #1
  103c0c:	e0242495 	mla	r4, r5, r4, r2
  103c10:	e2432030 	sub	r2, r3, #48	; 0x30
  103c14:	e3520009 	cmp	r2, #9
  103c18:	9afffffa 	bls	103c08 <_vfprintf_r+0xb68>
  103c1c:	eafffdb3 	b	1032f0 <_vfprintf_r+0x250>
  103c20:	e59d3008 	ldr	r3, [sp, #8]
  103c24:	e3833080 	orr	r3, r3, #128	; 0x80
  103c28:	e58d3008 	str	r3, [sp, #8]
  103c2c:	e5d83000 	ldrb	r3, [r8]
  103c30:	eafffdad 	b	1032ec <_vfprintf_r+0x24c>
  103c34:	e58d3030 	str	r3, [sp, #48]	; 0x30
  103c38:	e3530043 	cmp	r3, #67	; 0x43
  103c3c:	e59d3020 	ldr	r3, [sp, #32]
  103c40:	e2835004 	add	r5, r3, #4
  103c44:	0a0002fc 	beq	10483c <_vfprintf_r+0x179c>
  103c48:	e59d3008 	ldr	r3, [sp, #8]
  103c4c:	e3130010 	tst	r3, #16
  103c50:	1a0002f9 	bne	10483c <_vfprintf_r+0x179c>
  103c54:	e59d3020 	ldr	r3, [sp, #32]
  103c58:	e28d4f52 	add	r4, sp, #328	; 0x148
  103c5c:	e3a07001 	mov	r7, #1
  103c60:	e58d701c 	str	r7, [sp, #28]
  103c64:	e5933000 	ldr	r3, [r3]
  103c68:	e5643064 	strb	r3, [r4, #-100]!	; 0xffffff9c
  103c6c:	e3a03000 	mov	r3, #0
  103c70:	e58d4010 	str	r4, [sp, #16]
  103c74:	e58d5020 	str	r5, [sp, #32]
  103c78:	e1a01003 	mov	r1, r3
  103c7c:	e5cd306f 	strb	r3, [sp, #111]	; 0x6f
  103c80:	e1a04003 	mov	r4, r3
  103c84:	e58d3024 	str	r3, [sp, #36]	; 0x24
  103c88:	e58d3044 	str	r3, [sp, #68]	; 0x44
  103c8c:	e58d3040 	str	r3, [sp, #64]	; 0x40
  103c90:	e58d3038 	str	r3, [sp, #56]	; 0x38
  103c94:	eafffe52 	b	1035e4 <_vfprintf_r+0x544>
  103c98:	e58d3030 	str	r3, [sp, #48]	; 0x30
  103c9c:	e59d3008 	ldr	r3, [sp, #8]
  103ca0:	e3835010 	orr	r5, r3, #16
  103ca4:	e3150020 	tst	r5, #32
  103ca8:	1afffe19 	bne	103514 <_vfprintf_r+0x474>
  103cac:	e59d2020 	ldr	r2, [sp, #32]
  103cb0:	e3150010 	tst	r5, #16
  103cb4:	e2823004 	add	r3, r2, #4
  103cb8:	1a0002ca 	bne	1047e8 <_vfprintf_r+0x1748>
  103cbc:	e3150040 	tst	r5, #64	; 0x40
  103cc0:	e59d2020 	ldr	r2, [sp, #32]
  103cc4:	0a0002c5 	beq	1047e0 <_vfprintf_r+0x1740>
  103cc8:	e1d260f0 	ldrsh	r6, [r2]
  103ccc:	e58d3020 	str	r3, [sp, #32]
  103cd0:	e1a07fc6 	asr	r7, r6, #31
  103cd4:	e1a02006 	mov	r2, r6
  103cd8:	e1a03007 	mov	r3, r7
  103cdc:	eafffe14 	b	103534 <_vfprintf_r+0x494>
  103ce0:	e58d3030 	str	r3, [sp, #48]	; 0x30
  103ce4:	e30f35a8 	movw	r3, #62888	; 0xf5a8
  103ce8:	e3403010 	movt	r3, #16
  103cec:	e58d3050 	str	r3, [sp, #80]	; 0x50
  103cf0:	e59d3008 	ldr	r3, [sp, #8]
  103cf4:	e3130020 	tst	r3, #32
  103cf8:	1affff74 	bne	103ad0 <_vfprintf_r+0xa30>
  103cfc:	e59d3008 	ldr	r3, [sp, #8]
  103d00:	e59d2020 	ldr	r2, [sp, #32]
  103d04:	e3130010 	tst	r3, #16
  103d08:	e2823004 	add	r3, r2, #4
  103d0c:	1a0002c6 	bne	10482c <_vfprintf_r+0x178c>
  103d10:	e59d2008 	ldr	r2, [sp, #8]
  103d14:	e3120040 	tst	r2, #64	; 0x40
  103d18:	0a0002bf 	beq	10481c <_vfprintf_r+0x177c>
  103d1c:	e59d2020 	ldr	r2, [sp, #32]
  103d20:	e3a07000 	mov	r7, #0
  103d24:	e58d3020 	str	r3, [sp, #32]
  103d28:	e1d260b0 	ldrh	r6, [r2]
  103d2c:	eaffff6d 	b	103ae8 <_vfprintf_r+0xa48>
  103d30:	e59d3020 	ldr	r3, [sp, #32]
  103d34:	e3a07000 	mov	r7, #0
  103d38:	e59d2008 	ldr	r2, [sp, #8]
  103d3c:	e2833004 	add	r3, r3, #4
  103d40:	e5136004 	ldr	r6, [r3, #-4]
  103d44:	e3825002 	orr	r5, r2, #2
  103d48:	e58d3020 	str	r3, [sp, #32]
  103d4c:	e3a02002 	mov	r2, #2
  103d50:	e3073830 	movw	r3, #30768	; 0x7830
  103d54:	e1cd37b0 	strh	r3, [sp, #112]	; 0x70
  103d58:	e30f3594 	movw	r3, #62868	; 0xf594
  103d5c:	e3403010 	movt	r3, #16
  103d60:	e58d3050 	str	r3, [sp, #80]	; 0x50
  103d64:	e3a03078 	mov	r3, #120	; 0x78
  103d68:	e58d3030 	str	r3, [sp, #48]	; 0x30
  103d6c:	eaffff0b 	b	1039a0 <_vfprintf_r+0x900>
  103d70:	e58d3030 	str	r3, [sp, #48]	; 0x30
  103d74:	e59d3020 	ldr	r3, [sp, #32]
  103d78:	ed9f7bf8 	vldr	d7, [pc, #992]	; 104160 <_vfprintf_r+0x10c0>
  103d7c:	e2833007 	add	r3, r3, #7
  103d80:	e3c33007 	bic	r3, r3, #7
  103d84:	e2832008 	add	r2, r3, #8
  103d88:	e58d2020 	str	r2, [sp, #32]
  103d8c:	ed938b00 	vldr	d8, [r3]
  103d90:	eeb06bc8 	vabs.f64	d6, d8
  103d94:	eeb46b47 	vcmp.f64	d6, d7
  103d98:	eef1fa10 	vmrs	APSR_nzcv, fpscr
  103d9c:	da0002cc 	ble	1048d4 <_vfprintf_r+0x1834>
  103da0:	eeb58bc0 	vcmpe.f64	d8, #0.0
  103da4:	eef1fa10 	vmrs	APSR_nzcv, fpscr
  103da8:	4a000556 	bmi	105308 <_vfprintf_r+0x2268>
  103dac:	e5dd106f 	ldrb	r1, [sp, #111]	; 0x6f
  103db0:	e59dc008 	ldr	ip, [sp, #8]
  103db4:	e30f3584 	movw	r3, #62852	; 0xf584
  103db8:	e3403010 	movt	r3, #16
  103dbc:	e3a00000 	mov	r0, #0
  103dc0:	e3ccc080 	bic	ip, ip, #128	; 0x80
  103dc4:	e58dc008 	str	ip, [sp, #8]
  103dc8:	e59dc030 	ldr	ip, [sp, #48]	; 0x30
  103dcc:	e30f2588 	movw	r2, #62856	; 0xf588
  103dd0:	e3a07003 	mov	r7, #3
  103dd4:	e3402010 	movt	r2, #16
  103dd8:	e35c0047 	cmp	ip, #71	; 0x47
  103ddc:	e58d0024 	str	r0, [sp, #36]	; 0x24
  103de0:	e58d701c 	str	r7, [sp, #28]
  103de4:	e1a04000 	mov	r4, r0
  103de8:	d1a02003 	movle	r2, r3
  103dec:	e58d0044 	str	r0, [sp, #68]	; 0x44
  103df0:	e58d2010 	str	r2, [sp, #16]
  103df4:	e58d0040 	str	r0, [sp, #64]	; 0x40
  103df8:	e58d0038 	str	r0, [sp, #56]	; 0x38
  103dfc:	eafffdf5 	b	1035d8 <_vfprintf_r+0x538>
  103e00:	e59d3008 	ldr	r3, [sp, #8]
  103e04:	e3833008 	orr	r3, r3, #8
  103e08:	e58d3008 	str	r3, [sp, #8]
  103e0c:	e5d83000 	ldrb	r3, [r8]
  103e10:	eafffd35 	b	1032ec <_vfprintf_r+0x24c>
  103e14:	e1a0000b 	mov	r0, fp
  103e18:	eb00156e 	bl	1093d8 <_localeconv_r>
  103e1c:	e5903004 	ldr	r3, [r0, #4]
  103e20:	e1a00003 	mov	r0, r3
  103e24:	e58d3058 	str	r3, [sp, #88]	; 0x58
  103e28:	fafffc64 	blx	102fc0 <strlen>
  103e2c:	e1a07000 	mov	r7, r0
  103e30:	e58d0054 	str	r0, [sp, #84]	; 0x54
  103e34:	e1a0000b 	mov	r0, fp
  103e38:	eb001566 	bl	1093d8 <_localeconv_r>
  103e3c:	e5903008 	ldr	r3, [r0, #8]
  103e40:	e3570000 	cmp	r7, #0
  103e44:	13530000 	cmpne	r3, #0
  103e48:	e58d3060 	str	r3, [sp, #96]	; 0x60
  103e4c:	0afffd89 	beq	103478 <_vfprintf_r+0x3d8>
  103e50:	e5d32000 	ldrb	r2, [r3]
  103e54:	e5d83000 	ldrb	r3, [r8]
  103e58:	e3520000 	cmp	r2, #0
  103e5c:	159d2008 	ldrne	r2, [sp, #8]
  103e60:	13822b01 	orrne	r2, r2, #1024	; 0x400
  103e64:	158d2008 	strne	r2, [sp, #8]
  103e68:	eafffd1f 	b	1032ec <_vfprintf_r+0x24c>
  103e6c:	e59d3020 	ldr	r3, [sp, #32]
  103e70:	e2832004 	add	r2, r3, #4
  103e74:	e5931000 	ldr	r1, [r3]
  103e78:	e5d83000 	ldrb	r3, [r8]
  103e7c:	e3510000 	cmp	r1, #0
  103e80:	a58d2020 	strge	r2, [sp, #32]
  103e84:	e58d1018 	str	r1, [sp, #24]
  103e88:	aafffd17 	bge	1032ec <_vfprintf_r+0x24c>
  103e8c:	e2611000 	rsb	r1, r1, #0
  103e90:	e58d2020 	str	r2, [sp, #32]
  103e94:	e58d1018 	str	r1, [sp, #24]
  103e98:	eaffff4d 	b	103bd4 <_vfprintf_r+0xb34>
  103e9c:	e58d3030 	str	r3, [sp, #48]	; 0x30
  103ea0:	e59d3020 	ldr	r3, [sp, #32]
  103ea4:	e2836004 	add	r6, r3, #4
  103ea8:	e5932000 	ldr	r2, [r3]
  103eac:	e3a03000 	mov	r3, #0
  103eb0:	e5cd306f 	strb	r3, [sp, #111]	; 0x6f
  103eb4:	e1520003 	cmp	r2, r3
  103eb8:	e58d2010 	str	r2, [sp, #16]
  103ebc:	0a0003ca 	beq	104dec <_vfprintf_r+0x1d4c>
  103ec0:	e59d3030 	ldr	r3, [sp, #48]	; 0x30
  103ec4:	e3530053 	cmp	r3, #83	; 0x53
  103ec8:	0a000318 	beq	104b30 <_vfprintf_r+0x1a90>
  103ecc:	e59d3008 	ldr	r3, [sp, #8]
  103ed0:	e2133010 	ands	r3, r3, #16
  103ed4:	e58d3038 	str	r3, [sp, #56]	; 0x38
  103ed8:	1a000314 	bne	104b30 <_vfprintf_r+0x1a90>
  103edc:	e3740001 	cmn	r4, #1
  103ee0:	0a000407 	beq	104f04 <_vfprintf_r+0x1e64>
  103ee4:	e1a02004 	mov	r2, r4
  103ee8:	e59d1038 	ldr	r1, [sp, #56]	; 0x38
  103eec:	e59d0010 	ldr	r0, [sp, #16]
  103ef0:	fa00194a 	blx	10a420 <memchr>
  103ef4:	e2503000 	subs	r3, r0, #0
  103ef8:	e58d3024 	str	r3, [sp, #36]	; 0x24
  103efc:	0a000667 	beq	1058a0 <_vfprintf_r+0x2800>
  103f00:	e59d3024 	ldr	r3, [sp, #36]	; 0x24
  103f04:	e59d2010 	ldr	r2, [sp, #16]
  103f08:	e59d4038 	ldr	r4, [sp, #56]	; 0x38
  103f0c:	e0433002 	sub	r3, r3, r2
  103f10:	e58d6020 	str	r6, [sp, #32]
  103f14:	e58d301c 	str	r3, [sp, #28]
  103f18:	e58d4044 	str	r4, [sp, #68]	; 0x44
  103f1c:	e1c37fc3 	bic	r7, r3, r3, asr #31
  103f20:	e58d4040 	str	r4, [sp, #64]	; 0x40
  103f24:	e58d4024 	str	r4, [sp, #36]	; 0x24
  103f28:	e5dd106f 	ldrb	r1, [sp, #111]	; 0x6f
  103f2c:	eafffda9 	b	1035d8 <_vfprintf_r+0x538>
  103f30:	e58d3030 	str	r3, [sp, #48]	; 0x30
  103f34:	e59d3008 	ldr	r3, [sp, #8]
  103f38:	e3835010 	orr	r5, r3, #16
  103f3c:	e3150020 	tst	r5, #32
  103f40:	1afffeca 	bne	103a70 <_vfprintf_r+0x9d0>
  103f44:	e59d2020 	ldr	r2, [sp, #32]
  103f48:	e3150010 	tst	r5, #16
  103f4c:	e2823004 	add	r3, r2, #4
  103f50:	1a00022c 	bne	104808 <_vfprintf_r+0x1768>
  103f54:	e3150040 	tst	r5, #64	; 0x40
  103f58:	e59d2020 	ldr	r2, [sp, #32]
  103f5c:	0a000227 	beq	104800 <_vfprintf_r+0x1760>
  103f60:	e1d260b0 	ldrh	r6, [r2]
  103f64:	e3a07000 	mov	r7, #0
  103f68:	e3a02001 	mov	r2, #1
  103f6c:	e58d3020 	str	r3, [sp, #32]
  103f70:	eafffe8a 	b	1039a0 <_vfprintf_r+0x900>
  103f74:	e58d3030 	str	r3, [sp, #48]	; 0x30
  103f78:	e59d3008 	ldr	r3, [sp, #8]
  103f7c:	e3833010 	orr	r3, r3, #16
  103f80:	e58d3008 	str	r3, [sp, #8]
  103f84:	e59d3008 	ldr	r3, [sp, #8]
  103f88:	e3130020 	tst	r3, #32
  103f8c:	1afffe7a 	bne	10397c <_vfprintf_r+0x8dc>
  103f90:	e59d3008 	ldr	r3, [sp, #8]
  103f94:	e59d2020 	ldr	r2, [sp, #32]
  103f98:	e3130010 	tst	r3, #16
  103f9c:	e2823004 	add	r3, r2, #4
  103fa0:	1a00020a 	bne	1047d0 <_vfprintf_r+0x1730>
  103fa4:	e59d2008 	ldr	r2, [sp, #8]
  103fa8:	e3120040 	tst	r2, #64	; 0x40
  103fac:	0a000203 	beq	1047c0 <_vfprintf_r+0x1720>
  103fb0:	e59d2020 	ldr	r2, [sp, #32]
  103fb4:	e3a07000 	mov	r7, #0
  103fb8:	e58d3020 	str	r3, [sp, #32]
  103fbc:	e1d260b0 	ldrh	r6, [r2]
  103fc0:	eafffe73 	b	103994 <_vfprintf_r+0x8f4>
  103fc4:	e3530000 	cmp	r3, #0
  103fc8:	e1a02003 	mov	r2, r3
  103fcc:	e58d3030 	str	r3, [sp, #48]	; 0x30
  103fd0:	0a000379 	beq	104dbc <_vfprintf_r+0x1d1c>
  103fd4:	e3a03000 	mov	r3, #0
  103fd8:	e3a07001 	mov	r7, #1
  103fdc:	e1a01003 	mov	r1, r3
  103fe0:	e5cd306f 	strb	r3, [sp, #111]	; 0x6f
  103fe4:	e58d3024 	str	r3, [sp, #36]	; 0x24
  103fe8:	e1a04003 	mov	r4, r3
  103fec:	e58d3044 	str	r3, [sp, #68]	; 0x44
  103ff0:	e58d3040 	str	r3, [sp, #64]	; 0x40
  103ff4:	e58d3038 	str	r3, [sp, #56]	; 0x38
  103ff8:	e28d30e4 	add	r3, sp, #228	; 0xe4
  103ffc:	e5cd20e4 	strb	r2, [sp, #228]	; 0xe4
  104000:	e58d701c 	str	r7, [sp, #28]
  104004:	e58d3010 	str	r3, [sp, #16]
  104008:	eafffd75 	b	1035e4 <_vfprintf_r+0x544>
  10400c:	e59d3030 	ldr	r3, [sp, #48]	; 0x30
  104010:	e3530065 	cmp	r3, #101	; 0x65
  104014:	da000089 	ble	104240 <_vfprintf_r+0x11a0>
  104018:	eeb58b40 	vcmp.f64	d8, #0.0
  10401c:	eef1fa10 	vmrs	APSR_nzcv, fpscr
  104020:	1a0000de 	bne	1043a0 <_vfprintf_r+0x1300>
  104024:	e59d309c 	ldr	r3, [sp, #156]	; 0x9c
  104028:	e2822001 	add	r2, r2, #1
  10402c:	e58d20a0 	str	r2, [sp, #160]	; 0xa0
  104030:	e30f25c4 	movw	r2, #62916	; 0xf5c4
  104034:	e2833001 	add	r3, r3, #1
  104038:	e3402010 	movt	r2, #16
  10403c:	e3530007 	cmp	r3, #7
  104040:	e58d309c 	str	r3, [sp, #156]	; 0x9c
  104044:	e5892000 	str	r2, [r9]
  104048:	e3a03001 	mov	r3, #1
  10404c:	e5893004 	str	r3, [r9, #4]
  104050:	d2899008 	addle	r9, r9, #8
  104054:	ca0002ad 	bgt	104b10 <_vfprintf_r+0x1a70>
  104058:	e59d3074 	ldr	r3, [sp, #116]	; 0x74
  10405c:	e59d203c 	ldr	r2, [sp, #60]	; 0x3c
  104060:	e1530002 	cmp	r3, r2
  104064:	ba000003 	blt	104078 <_vfprintf_r+0xfd8>
  104068:	e59d3008 	ldr	r3, [sp, #8]
  10406c:	e3130001 	tst	r3, #1
  104070:	059d20a0 	ldreq	r2, [sp, #160]	; 0xa0
  104074:	0afffdf3 	beq	103848 <_vfprintf_r+0x7a8>
  104078:	e59d309c 	ldr	r3, [sp, #156]	; 0x9c
  10407c:	e59d204c 	ldr	r2, [sp, #76]	; 0x4c
  104080:	e2833001 	add	r3, r3, #1
  104084:	e59d1048 	ldr	r1, [sp, #72]	; 0x48
  104088:	e3530007 	cmp	r3, #7
  10408c:	e58d309c 	str	r3, [sp, #156]	; 0x9c
  104090:	e5892000 	str	r2, [r9]
  104094:	e59d20a0 	ldr	r2, [sp, #160]	; 0xa0
  104098:	e5891004 	str	r1, [r9, #4]
  10409c:	d2899008 	addle	r9, r9, #8
  1040a0:	e0812002 	add	r2, r1, r2
  1040a4:	e58d20a0 	str	r2, [sp, #160]	; 0xa0
  1040a8:	ca00033a 	bgt	104d98 <_vfprintf_r+0x1cf8>
  1040ac:	e59d303c 	ldr	r3, [sp, #60]	; 0x3c
  1040b0:	e2434001 	sub	r4, r3, #1
  1040b4:	e3540000 	cmp	r4, #0
  1040b8:	dafffde2 	ble	103848 <_vfprintf_r+0x7a8>
  1040bc:	e3540010 	cmp	r4, #16
  1040c0:	e59d309c 	ldr	r3, [sp, #156]	; 0x9c
  1040c4:	da0001ed 	ble	104880 <_vfprintf_r+0x17e0>
  1040c8:	e3a05010 	mov	r5, #16
  1040cc:	e59d600c 	ldr	r6, [sp, #12]
  1040d0:	ea000002 	b	1040e0 <_vfprintf_r+0x1040>
  1040d4:	e2444010 	sub	r4, r4, #16
  1040d8:	e3540010 	cmp	r4, #16
  1040dc:	da0001e7 	ble	104880 <_vfprintf_r+0x17e0>
  1040e0:	e2833001 	add	r3, r3, #1
  1040e4:	e59f107c 	ldr	r1, [pc, #124]	; 104168 <_vfprintf_r+0x10c8>
  1040e8:	e3530007 	cmp	r3, #7
  1040ec:	e2822010 	add	r2, r2, #16
  1040f0:	e58d309c 	str	r3, [sp, #156]	; 0x9c
  1040f4:	e8890022 	stm	r9, {r1, r5}
  1040f8:	d2899008 	addle	r9, r9, #8
  1040fc:	e58d20a0 	str	r2, [sp, #160]	; 0xa0
  104100:	dafffff3 	ble	1040d4 <_vfprintf_r+0x1034>
  104104:	e28d2098 	add	r2, sp, #152	; 0x98
  104108:	e1a01006 	mov	r1, r6
  10410c:	e1a0000b 	mov	r0, fp
  104110:	e28d90a4 	add	r9, sp, #164	; 0xa4
  104114:	eb002184 	bl	10c72c <__sprint_r>
  104118:	e3500000 	cmp	r0, #0
  10411c:	1afffce6 	bne	1034bc <_vfprintf_r+0x41c>
  104120:	e59d20a0 	ldr	r2, [sp, #160]	; 0xa0
  104124:	e59d309c 	ldr	r3, [sp, #156]	; 0x9c
  104128:	eaffffe9 	b	1040d4 <_vfprintf_r+0x1034>
  10412c:	e59d3018 	ldr	r3, [sp, #24]
  104130:	e0435007 	sub	r5, r3, r7
  104134:	e3550000 	cmp	r5, #0
  104138:	dafffd80 	ble	103740 <_vfprintf_r+0x6a0>
  10413c:	e3550010 	cmp	r5, #16
  104140:	e59d309c 	ldr	r3, [sp, #156]	; 0x9c
  104144:	da000024 	ble	1041dc <_vfprintf_r+0x113c>
  104148:	e1a00005 	mov	r0, r5
  10414c:	e3a06010 	mov	r6, #16
  104150:	e1a05004 	mov	r5, r4
  104154:	e1a01003 	mov	r1, r3
  104158:	e1a04000 	mov	r4, r0
  10415c:	ea000005 	b	104178 <_vfprintf_r+0x10d8>
  104160:	ffffffff 	.word	0xffffffff
  104164:	7fefffff 	.word	0x7fefffff
  104168:	0010f21c 	.word	0x0010f21c
  10416c:	e2444010 	sub	r4, r4, #16
  104170:	e3540010 	cmp	r4, #16
  104174:	da000014 	ble	1041cc <_vfprintf_r+0x112c>
  104178:	e2811001 	add	r1, r1, #1
  10417c:	e51f301c 	ldr	r3, [pc, #-28]	; 104168 <_vfprintf_r+0x10c8>
  104180:	e3510007 	cmp	r1, #7
  104184:	e2822010 	add	r2, r2, #16
  104188:	e58d109c 	str	r1, [sp, #156]	; 0x9c
  10418c:	e8890048 	stm	r9, {r3, r6}
  104190:	d2899008 	addle	r9, r9, #8
  104194:	e58d20a0 	str	r2, [sp, #160]	; 0xa0
  104198:	dafffff3 	ble	10416c <_vfprintf_r+0x10cc>
  10419c:	e28d2098 	add	r2, sp, #152	; 0x98
  1041a0:	e59d100c 	ldr	r1, [sp, #12]
  1041a4:	e1a0000b 	mov	r0, fp
  1041a8:	e28d90a4 	add	r9, sp, #164	; 0xa4
  1041ac:	eb00215e 	bl	10c72c <__sprint_r>
  1041b0:	e3500000 	cmp	r0, #0
  1041b4:	1afffcc0 	bne	1034bc <_vfprintf_r+0x41c>
  1041b8:	e2444010 	sub	r4, r4, #16
  1041bc:	e59d20a0 	ldr	r2, [sp, #160]	; 0xa0
  1041c0:	e3540010 	cmp	r4, #16
  1041c4:	e59d109c 	ldr	r1, [sp, #156]	; 0x9c
  1041c8:	caffffea 	bgt	104178 <_vfprintf_r+0x10d8>
  1041cc:	e1a00004 	mov	r0, r4
  1041d0:	e1a03001 	mov	r3, r1
  1041d4:	e1a04005 	mov	r4, r5
  1041d8:	e1a05000 	mov	r5, r0
  1041dc:	e2833001 	add	r3, r3, #1
  1041e0:	e58d309c 	str	r3, [sp, #156]	; 0x9c
  1041e4:	e3530007 	cmp	r3, #7
  1041e8:	e51f3088 	ldr	r3, [pc, #-136]	; 104168 <_vfprintf_r+0x10c8>
  1041ec:	e0822005 	add	r2, r2, r5
  1041f0:	e58d20a0 	str	r2, [sp, #160]	; 0xa0
  1041f4:	e8890028 	stm	r9, {r3, r5}
  1041f8:	d2899008 	addle	r9, r9, #8
  1041fc:	dafffd4f 	ble	103740 <_vfprintf_r+0x6a0>
  104200:	e28d2098 	add	r2, sp, #152	; 0x98
  104204:	e59d100c 	ldr	r1, [sp, #12]
  104208:	e1a0000b 	mov	r0, fp
  10420c:	eb002146 	bl	10c72c <__sprint_r>
  104210:	e3500000 	cmp	r0, #0
  104214:	1afffca8 	bne	1034bc <_vfprintf_r+0x41c>
  104218:	e59d20a0 	ldr	r2, [sp, #160]	; 0xa0
  10421c:	e28d90a4 	add	r9, sp, #164	; 0xa4
  104220:	eafffd46 	b	103740 <_vfprintf_r+0x6a0>
  104224:	e28d2098 	add	r2, sp, #152	; 0x98
  104228:	e59d100c 	ldr	r1, [sp, #12]
  10422c:	e1a0000b 	mov	r0, fp
  104230:	eb00213d 	bl	10c72c <__sprint_r>
  104234:	e3500000 	cmp	r0, #0
  104238:	0afffdc1 	beq	103944 <_vfprintf_r+0x8a4>
  10423c:	eafffc9e 	b	1034bc <_vfprintf_r+0x41c>
  104240:	e59d303c 	ldr	r3, [sp, #60]	; 0x3c
  104244:	e2822001 	add	r2, r2, #1
  104248:	e59d009c 	ldr	r0, [sp, #156]	; 0x9c
  10424c:	e2891008 	add	r1, r9, #8
  104250:	e3530001 	cmp	r3, #1
  104254:	e2803001 	add	r3, r0, #1
  104258:	da0000b8 	ble	104540 <_vfprintf_r+0x14a0>
  10425c:	e59d0010 	ldr	r0, [sp, #16]
  104260:	e3530007 	cmp	r3, #7
  104264:	e58d20a0 	str	r2, [sp, #160]	; 0xa0
  104268:	e58d309c 	str	r3, [sp, #156]	; 0x9c
  10426c:	e5890000 	str	r0, [r9]
  104270:	e3a00001 	mov	r0, #1
  104274:	e5890004 	str	r0, [r9, #4]
  104278:	ca000130 	bgt	104740 <_vfprintf_r+0x16a0>
  10427c:	e2833001 	add	r3, r3, #1
  104280:	e59d0048 	ldr	r0, [sp, #72]	; 0x48
  104284:	e59dc04c 	ldr	ip, [sp, #76]	; 0x4c
  104288:	e3530007 	cmp	r3, #7
  10428c:	e0822000 	add	r2, r2, r0
  104290:	e58d309c 	str	r3, [sp, #156]	; 0x9c
  104294:	e5810004 	str	r0, [r1, #4]
  104298:	e581c000 	str	ip, [r1]
  10429c:	d2811008 	addle	r1, r1, #8
  1042a0:	e58d20a0 	str	r2, [sp, #160]	; 0xa0
  1042a4:	ca00012f 	bgt	104768 <_vfprintf_r+0x16c8>
  1042a8:	eeb58b40 	vcmp.f64	d8, #0.0
  1042ac:	e59dc03c 	ldr	ip, [sp, #60]	; 0x3c
  1042b0:	e2830001 	add	r0, r3, #1
  1042b4:	e2819008 	add	r9, r1, #8
  1042b8:	e24c4001 	sub	r4, ip, #1
  1042bc:	e1a0c000 	mov	ip, r0
  1042c0:	eef1fa10 	vmrs	APSR_nzcv, fpscr
  1042c4:	0a00007e 	beq	1044c4 <_vfprintf_r+0x1424>
  1042c8:	e59dc010 	ldr	ip, [sp, #16]
  1042cc:	e3500007 	cmp	r0, #7
  1042d0:	e0822004 	add	r2, r2, r4
  1042d4:	e5814004 	str	r4, [r1, #4]
  1042d8:	e28cc001 	add	ip, ip, #1
  1042dc:	e58d20a0 	str	r2, [sp, #160]	; 0xa0
  1042e0:	e581c000 	str	ip, [r1]
  1042e4:	e58d009c 	str	r0, [sp, #156]	; 0x9c
  1042e8:	ca000128 	bgt	104790 <_vfprintf_r+0x16f0>
  1042ec:	e281c010 	add	ip, r1, #16
  1042f0:	e2830002 	add	r0, r3, #2
  1042f4:	e1a01009 	mov	r1, r9
  1042f8:	e1a0900c 	mov	r9, ip
  1042fc:	e59d305c 	ldr	r3, [sp, #92]	; 0x5c
  104300:	e3500007 	cmp	r0, #7
  104304:	e58d009c 	str	r0, [sp, #156]	; 0x9c
  104308:	e0832002 	add	r2, r3, r2
  10430c:	e58d20a0 	str	r2, [sp, #160]	; 0xa0
  104310:	e5813004 	str	r3, [r1, #4]
  104314:	e28d3080 	add	r3, sp, #128	; 0x80
  104318:	e5813000 	str	r3, [r1]
  10431c:	dafffd49 	ble	103848 <_vfprintf_r+0x7a8>
  104320:	e28d2098 	add	r2, sp, #152	; 0x98
  104324:	e59d100c 	ldr	r1, [sp, #12]
  104328:	e1a0000b 	mov	r0, fp
  10432c:	eb0020fe 	bl	10c72c <__sprint_r>
  104330:	e3500000 	cmp	r0, #0
  104334:	1afffc60 	bne	1034bc <_vfprintf_r+0x41c>
  104338:	e59d20a0 	ldr	r2, [sp, #160]	; 0xa0
  10433c:	e28d90a4 	add	r9, sp, #164	; 0xa4
  104340:	eafffd40 	b	103848 <_vfprintf_r+0x7a8>
  104344:	e1a04003 	mov	r4, r3
  104348:	e28d3f52 	add	r3, sp, #328	; 0x148
  10434c:	e58d401c 	str	r4, [sp, #28]
  104350:	e58d3010 	str	r3, [sp, #16]
  104354:	eafffc95 	b	1035b0 <_vfprintf_r+0x510>
  104358:	e28d2098 	add	r2, sp, #152	; 0x98
  10435c:	e59d100c 	ldr	r1, [sp, #12]
  104360:	e1a0000b 	mov	r0, fp
  104364:	eb0020f0 	bl	10c72c <__sprint_r>
  104368:	e3500000 	cmp	r0, #0
  10436c:	1afffc52 	bne	1034bc <_vfprintf_r+0x41c>
  104370:	e59d20a0 	ldr	r2, [sp, #160]	; 0xa0
  104374:	e28d90a4 	add	r9, sp, #164	; 0xa4
  104378:	eafffcde 	b	1036f8 <_vfprintf_r+0x658>
  10437c:	e28d2098 	add	r2, sp, #152	; 0x98
  104380:	e59d100c 	ldr	r1, [sp, #12]
  104384:	e1a0000b 	mov	r0, fp
  104388:	eb0020e7 	bl	10c72c <__sprint_r>
  10438c:	e3500000 	cmp	r0, #0
  104390:	1afffc49 	bne	1034bc <_vfprintf_r+0x41c>
  104394:	e59d20a0 	ldr	r2, [sp, #160]	; 0xa0
  104398:	e28d90a4 	add	r9, sp, #164	; 0xa4
  10439c:	eafffce4 	b	103734 <_vfprintf_r+0x694>
  1043a0:	e59d4074 	ldr	r4, [sp, #116]	; 0x74
  1043a4:	e3540000 	cmp	r4, #0
  1043a8:	da0001af 	ble	104a6c <_vfprintf_r+0x19cc>
  1043ac:	e59d3038 	ldr	r3, [sp, #56]	; 0x38
  1043b0:	e59d103c 	ldr	r1, [sp, #60]	; 0x3c
  1043b4:	e1530001 	cmp	r3, r1
  1043b8:	b1a04003 	movlt	r4, r3
  1043bc:	a1a04001 	movge	r4, r1
  1043c0:	e3540000 	cmp	r4, #0
  1043c4:	da00000a 	ble	1043f4 <_vfprintf_r+0x1354>
  1043c8:	e59d309c 	ldr	r3, [sp, #156]	; 0x9c
  1043cc:	e0822004 	add	r2, r2, r4
  1043d0:	e59d1010 	ldr	r1, [sp, #16]
  1043d4:	e2833001 	add	r3, r3, #1
  1043d8:	e5894004 	str	r4, [r9, #4]
  1043dc:	e3530007 	cmp	r3, #7
  1043e0:	e58d20a0 	str	r2, [sp, #160]	; 0xa0
  1043e4:	e5891000 	str	r1, [r9]
  1043e8:	d2899008 	addle	r9, r9, #8
  1043ec:	e58d309c 	str	r3, [sp, #156]	; 0x9c
  1043f0:	ca0003bb 	bgt	1052e4 <_vfprintf_r+0x2244>
  1043f4:	e59d3038 	ldr	r3, [sp, #56]	; 0x38
  1043f8:	e3540000 	cmp	r4, #0
  1043fc:	a0433004 	subge	r3, r3, r4
  104400:	e3530000 	cmp	r3, #0
  104404:	e1a04003 	mov	r4, r3
  104408:	da000075 	ble	1045e4 <_vfprintf_r+0x1544>
  10440c:	e3530010 	cmp	r3, #16
  104410:	e59d309c 	ldr	r3, [sp, #156]	; 0x9c
  104414:	da000061 	ble	1045a0 <_vfprintf_r+0x1500>
  104418:	e3a05010 	mov	r5, #16
  10441c:	e59d600c 	ldr	r6, [sp, #12]
  104420:	ea000002 	b	104430 <_vfprintf_r+0x1390>
  104424:	e2444010 	sub	r4, r4, #16
  104428:	e3540010 	cmp	r4, #16
  10442c:	da00005b 	ble	1045a0 <_vfprintf_r+0x1500>
  104430:	e2833001 	add	r3, r3, #1
  104434:	e51f12d4 	ldr	r1, [pc, #-724]	; 104168 <_vfprintf_r+0x10c8>
  104438:	e3530007 	cmp	r3, #7
  10443c:	e2822010 	add	r2, r2, #16
  104440:	e58d309c 	str	r3, [sp, #156]	; 0x9c
  104444:	e8890022 	stm	r9, {r1, r5}
  104448:	d2899008 	addle	r9, r9, #8
  10444c:	e58d20a0 	str	r2, [sp, #160]	; 0xa0
  104450:	dafffff3 	ble	104424 <_vfprintf_r+0x1384>
  104454:	e28d2098 	add	r2, sp, #152	; 0x98
  104458:	e1a01006 	mov	r1, r6
  10445c:	e1a0000b 	mov	r0, fp
  104460:	e28d90a4 	add	r9, sp, #164	; 0xa4
  104464:	eb0020b0 	bl	10c72c <__sprint_r>
  104468:	e3500000 	cmp	r0, #0
  10446c:	1afffc12 	bne	1034bc <_vfprintf_r+0x41c>
  104470:	e59d20a0 	ldr	r2, [sp, #160]	; 0xa0
  104474:	e59d309c 	ldr	r3, [sp, #156]	; 0x9c
  104478:	eaffffe9 	b	104424 <_vfprintf_r+0x1384>
  10447c:	e3520001 	cmp	r2, #1
  104480:	e59d5008 	ldr	r5, [sp, #8]
  104484:	1afffd4d 	bne	1039c0 <_vfprintf_r+0x920>
  104488:	e3570000 	cmp	r7, #0
  10448c:	03560009 	cmpeq	r6, #9
  104490:	8a0001e9 	bhi	104c3c <_vfprintf_r+0x1b9c>
  104494:	e28d3f52 	add	r3, sp, #328	; 0x148
  104498:	e2866030 	add	r6, r6, #48	; 0x30
  10449c:	e58d5008 	str	r5, [sp, #8]
  1044a0:	e5636001 	strb	r6, [r3, #-1]!
  1044a4:	e58d3010 	str	r3, [sp, #16]
  1044a8:	e3a03001 	mov	r3, #1
  1044ac:	e58d301c 	str	r3, [sp, #28]
  1044b0:	eafffc3e 	b	1035b0 <_vfprintf_r+0x510>
  1044b4:	e28d3f52 	add	r3, sp, #328	; 0x148
  1044b8:	e1a04002 	mov	r4, r2
  1044bc:	e58d3010 	str	r3, [sp, #16]
  1044c0:	eafffc3a 	b	1035b0 <_vfprintf_r+0x510>
  1044c4:	e3540000 	cmp	r4, #0
  1044c8:	daffff8b 	ble	1042fc <_vfprintf_r+0x125c>
  1044cc:	e3540010 	cmp	r4, #16
  1044d0:	da000523 	ble	105964 <_vfprintf_r+0x28c4>
  1044d4:	e3a05010 	mov	r5, #16
  1044d8:	e59d600c 	ldr	r6, [sp, #12]
  1044dc:	ea000003 	b	1044f0 <_vfprintf_r+0x1450>
  1044e0:	e2444010 	sub	r4, r4, #16
  1044e4:	e283c001 	add	ip, r3, #1
  1044e8:	e3540010 	cmp	r4, #16
  1044ec:	da000218 	ble	104d54 <_vfprintf_r+0x1cb4>
  1044f0:	e51f0390 	ldr	r0, [pc, #-912]	; 104168 <_vfprintf_r+0x10c8>
  1044f4:	e35c0007 	cmp	ip, #7
  1044f8:	e2822010 	add	r2, r2, #16
  1044fc:	e5815004 	str	r5, [r1, #4]
  104500:	e1a0300c 	mov	r3, ip
  104504:	e58dc09c 	str	ip, [sp, #156]	; 0x9c
  104508:	e5810000 	str	r0, [r1]
  10450c:	d2811008 	addle	r1, r1, #8
  104510:	e58d20a0 	str	r2, [sp, #160]	; 0xa0
  104514:	dafffff1 	ble	1044e0 <_vfprintf_r+0x1440>
  104518:	e1a01006 	mov	r1, r6
  10451c:	e28d2098 	add	r2, sp, #152	; 0x98
  104520:	e1a0000b 	mov	r0, fp
  104524:	eb002080 	bl	10c72c <__sprint_r>
  104528:	e28d10a4 	add	r1, sp, #164	; 0xa4
  10452c:	e3500000 	cmp	r0, #0
  104530:	1afffbe1 	bne	1034bc <_vfprintf_r+0x41c>
  104534:	e59d20a0 	ldr	r2, [sp, #160]	; 0xa0
  104538:	e59d309c 	ldr	r3, [sp, #156]	; 0x9c
  10453c:	eaffffe7 	b	1044e0 <_vfprintf_r+0x1440>
  104540:	e59dc008 	ldr	ip, [sp, #8]
  104544:	e31c0001 	tst	ip, #1
  104548:	1affff43 	bne	10425c <_vfprintf_r+0x11bc>
  10454c:	e59dc010 	ldr	ip, [sp, #16]
  104550:	e3530007 	cmp	r3, #7
  104554:	e58d20a0 	str	r2, [sp, #160]	; 0xa0
  104558:	e58d309c 	str	r3, [sp, #156]	; 0x9c
  10455c:	e589c000 	str	ip, [r9]
  104560:	e3a0c001 	mov	ip, #1
  104564:	e589c004 	str	ip, [r9, #4]
  104568:	ca000088 	bgt	104790 <_vfprintf_r+0x16f0>
  10456c:	e2800002 	add	r0, r0, #2
  104570:	e2899010 	add	r9, r9, #16
  104574:	eaffff60 	b	1042fc <_vfprintf_r+0x125c>
  104578:	e28d2098 	add	r2, sp, #152	; 0x98
  10457c:	e59d100c 	ldr	r1, [sp, #12]
  104580:	e1a0000b 	mov	r0, fp
  104584:	eb002068 	bl	10c72c <__sprint_r>
  104588:	e3500000 	cmp	r0, #0
  10458c:	1afffbca 	bne	1034bc <_vfprintf_r+0x41c>
  104590:	e5dd106f 	ldrb	r1, [sp, #111]	; 0x6f
  104594:	e28d90a4 	add	r9, sp, #164	; 0xa4
  104598:	e59d20a0 	ldr	r2, [sp, #160]	; 0xa0
  10459c:	eafffc47 	b	1036c0 <_vfprintf_r+0x620>
  1045a0:	e2833001 	add	r3, r3, #1
  1045a4:	e58d309c 	str	r3, [sp, #156]	; 0x9c
  1045a8:	e3530007 	cmp	r3, #7
  1045ac:	e51f344c 	ldr	r3, [pc, #-1100]	; 104168 <_vfprintf_r+0x10c8>
  1045b0:	e0822004 	add	r2, r2, r4
  1045b4:	e58d20a0 	str	r2, [sp, #160]	; 0xa0
  1045b8:	e8890018 	stm	r9, {r3, r4}
  1045bc:	d2899008 	addle	r9, r9, #8
  1045c0:	da000007 	ble	1045e4 <_vfprintf_r+0x1544>
  1045c4:	e28d2098 	add	r2, sp, #152	; 0x98
  1045c8:	e59d100c 	ldr	r1, [sp, #12]
  1045cc:	e1a0000b 	mov	r0, fp
  1045d0:	eb002055 	bl	10c72c <__sprint_r>
  1045d4:	e3500000 	cmp	r0, #0
  1045d8:	1afffbb7 	bne	1034bc <_vfprintf_r+0x41c>
  1045dc:	e59d20a0 	ldr	r2, [sp, #160]	; 0xa0
  1045e0:	e28d90a4 	add	r9, sp, #164	; 0xa4
  1045e4:	e59d3008 	ldr	r3, [sp, #8]
  1045e8:	e59d1038 	ldr	r1, [sp, #56]	; 0x38
  1045ec:	e3130b01 	tst	r3, #1024	; 0x400
  1045f0:	e59d3010 	ldr	r3, [sp, #16]
  1045f4:	e0836001 	add	r6, r3, r1
  1045f8:	1a00024c 	bne	104f30 <_vfprintf_r+0x1e90>
  1045fc:	e59d3074 	ldr	r3, [sp, #116]	; 0x74
  104600:	e59d103c 	ldr	r1, [sp, #60]	; 0x3c
  104604:	e1530001 	cmp	r3, r1
  104608:	ba000036 	blt	1046e8 <_vfprintf_r+0x1648>
  10460c:	e59d1008 	ldr	r1, [sp, #8]
  104610:	e3110001 	tst	r1, #1
  104614:	1a000033 	bne	1046e8 <_vfprintf_r+0x1648>
  104618:	e59d103c 	ldr	r1, [sp, #60]	; 0x3c
  10461c:	e59d0010 	ldr	r0, [sp, #16]
  104620:	e0413003 	sub	r3, r1, r3
  104624:	e0804001 	add	r4, r0, r1
  104628:	e0444006 	sub	r4, r4, r6
  10462c:	e1530004 	cmp	r3, r4
  104630:	b1a04003 	movlt	r4, r3
  104634:	e3540000 	cmp	r4, #0
  104638:	da000009 	ble	104664 <_vfprintf_r+0x15c4>
  10463c:	e59d109c 	ldr	r1, [sp, #156]	; 0x9c
  104640:	e0822004 	add	r2, r2, r4
  104644:	e5896000 	str	r6, [r9]
  104648:	e2811001 	add	r1, r1, #1
  10464c:	e5894004 	str	r4, [r9, #4]
  104650:	e3510007 	cmp	r1, #7
  104654:	e58d20a0 	str	r2, [sp, #160]	; 0xa0
  104658:	e58d109c 	str	r1, [sp, #156]	; 0x9c
  10465c:	d2899008 	addle	r9, r9, #8
  104660:	ca00021b 	bgt	104ed4 <_vfprintf_r+0x1e34>
  104664:	e3540000 	cmp	r4, #0
  104668:	a0434004 	subge	r4, r3, r4
  10466c:	b1a04003 	movlt	r4, r3
  104670:	e3540000 	cmp	r4, #0
  104674:	dafffc73 	ble	103848 <_vfprintf_r+0x7a8>
  104678:	e3540010 	cmp	r4, #16
  10467c:	e59d309c 	ldr	r3, [sp, #156]	; 0x9c
  104680:	da00007e 	ble	104880 <_vfprintf_r+0x17e0>
  104684:	e3a05010 	mov	r5, #16
  104688:	e59d600c 	ldr	r6, [sp, #12]
  10468c:	ea000002 	b	10469c <_vfprintf_r+0x15fc>
  104690:	e2444010 	sub	r4, r4, #16
  104694:	e3540010 	cmp	r4, #16
  104698:	da000078 	ble	104880 <_vfprintf_r+0x17e0>
  10469c:	e2833001 	add	r3, r3, #1
  1046a0:	e51f1540 	ldr	r1, [pc, #-1344]	; 104168 <_vfprintf_r+0x10c8>
  1046a4:	e3530007 	cmp	r3, #7
  1046a8:	e2822010 	add	r2, r2, #16
  1046ac:	e58d309c 	str	r3, [sp, #156]	; 0x9c
  1046b0:	e8890022 	stm	r9, {r1, r5}
  1046b4:	d2899008 	addle	r9, r9, #8
  1046b8:	e58d20a0 	str	r2, [sp, #160]	; 0xa0
  1046bc:	dafffff3 	ble	104690 <_vfprintf_r+0x15f0>
  1046c0:	e28d2098 	add	r2, sp, #152	; 0x98
  1046c4:	e1a01006 	mov	r1, r6
  1046c8:	e1a0000b 	mov	r0, fp
  1046cc:	e28d90a4 	add	r9, sp, #164	; 0xa4
  1046d0:	eb002015 	bl	10c72c <__sprint_r>
  1046d4:	e3500000 	cmp	r0, #0
  1046d8:	1afffb77 	bne	1034bc <_vfprintf_r+0x41c>
  1046dc:	e59d20a0 	ldr	r2, [sp, #160]	; 0xa0
  1046e0:	e59d309c 	ldr	r3, [sp, #156]	; 0x9c
  1046e4:	eaffffe9 	b	104690 <_vfprintf_r+0x15f0>
  1046e8:	e59d109c 	ldr	r1, [sp, #156]	; 0x9c
  1046ec:	e59d0048 	ldr	r0, [sp, #72]	; 0x48
  1046f0:	e2811001 	add	r1, r1, #1
  1046f4:	e59dc04c 	ldr	ip, [sp, #76]	; 0x4c
  1046f8:	e3510007 	cmp	r1, #7
  1046fc:	e0822000 	add	r2, r2, r0
  104700:	e5890004 	str	r0, [r9, #4]
  104704:	e589c000 	str	ip, [r9]
  104708:	d2899008 	addle	r9, r9, #8
  10470c:	e58d20a0 	str	r2, [sp, #160]	; 0xa0
  104710:	e58d109c 	str	r1, [sp, #156]	; 0x9c
  104714:	daffffbf 	ble	104618 <_vfprintf_r+0x1578>
  104718:	e28d2098 	add	r2, sp, #152	; 0x98
  10471c:	e59d100c 	ldr	r1, [sp, #12]
  104720:	e1a0000b 	mov	r0, fp
  104724:	eb002000 	bl	10c72c <__sprint_r>
  104728:	e3500000 	cmp	r0, #0
  10472c:	1afffb62 	bne	1034bc <_vfprintf_r+0x41c>
  104730:	e59d3074 	ldr	r3, [sp, #116]	; 0x74
  104734:	e28d90a4 	add	r9, sp, #164	; 0xa4
  104738:	e59d20a0 	ldr	r2, [sp, #160]	; 0xa0
  10473c:	eaffffb5 	b	104618 <_vfprintf_r+0x1578>
  104740:	e28d2098 	add	r2, sp, #152	; 0x98
  104744:	e59d100c 	ldr	r1, [sp, #12]
  104748:	e1a0000b 	mov	r0, fp
  10474c:	eb001ff6 	bl	10c72c <__sprint_r>
  104750:	e3500000 	cmp	r0, #0
  104754:	1afffb58 	bne	1034bc <_vfprintf_r+0x41c>
  104758:	e59d20a0 	ldr	r2, [sp, #160]	; 0xa0
  10475c:	e28d10a4 	add	r1, sp, #164	; 0xa4
  104760:	e59d309c 	ldr	r3, [sp, #156]	; 0x9c
  104764:	eafffec4 	b	10427c <_vfprintf_r+0x11dc>
  104768:	e28d2098 	add	r2, sp, #152	; 0x98
  10476c:	e59d100c 	ldr	r1, [sp, #12]
  104770:	e1a0000b 	mov	r0, fp
  104774:	eb001fec 	bl	10c72c <__sprint_r>
  104778:	e3500000 	cmp	r0, #0
  10477c:	1afffb4e 	bne	1034bc <_vfprintf_r+0x41c>
  104780:	e59d20a0 	ldr	r2, [sp, #160]	; 0xa0
  104784:	e28d10a4 	add	r1, sp, #164	; 0xa4
  104788:	e59d309c 	ldr	r3, [sp, #156]	; 0x9c
  10478c:	eafffec5 	b	1042a8 <_vfprintf_r+0x1208>
  104790:	e28d2098 	add	r2, sp, #152	; 0x98
  104794:	e59d100c 	ldr	r1, [sp, #12]
  104798:	e1a0000b 	mov	r0, fp
  10479c:	eb001fe2 	bl	10c72c <__sprint_r>
  1047a0:	e3500000 	cmp	r0, #0
  1047a4:	1afffb44 	bne	1034bc <_vfprintf_r+0x41c>
  1047a8:	e59d009c 	ldr	r0, [sp, #156]	; 0x9c
  1047ac:	e28d90ac 	add	r9, sp, #172	; 0xac
  1047b0:	e59d20a0 	ldr	r2, [sp, #160]	; 0xa0
  1047b4:	e28d10a4 	add	r1, sp, #164	; 0xa4
  1047b8:	e2800001 	add	r0, r0, #1
  1047bc:	eafffece 	b	1042fc <_vfprintf_r+0x125c>
  1047c0:	e59d2008 	ldr	r2, [sp, #8]
  1047c4:	e3120c02 	tst	r2, #512	; 0x200
  1047c8:	e59d2020 	ldr	r2, [sp, #32]
  1047cc:	1a0001b9 	bne	104eb8 <_vfprintf_r+0x1e18>
  1047d0:	e5926000 	ldr	r6, [r2]
  1047d4:	e3a07000 	mov	r7, #0
  1047d8:	e58d3020 	str	r3, [sp, #32]
  1047dc:	eafffc6c 	b	103994 <_vfprintf_r+0x8f4>
  1047e0:	e3150c02 	tst	r5, #512	; 0x200
  1047e4:	1a0001ad 	bne	104ea0 <_vfprintf_r+0x1e00>
  1047e8:	e5926000 	ldr	r6, [r2]
  1047ec:	e58d3020 	str	r3, [sp, #32]
  1047f0:	e1a07fc6 	asr	r7, r6, #31
  1047f4:	e1a02006 	mov	r2, r6
  1047f8:	e1a03007 	mov	r3, r7
  1047fc:	eafffb4c 	b	103534 <_vfprintf_r+0x494>
  104800:	e3150c02 	tst	r5, #512	; 0x200
  104804:	1a0001a0 	bne	104e8c <_vfprintf_r+0x1dec>
  104808:	e5926000 	ldr	r6, [r2]
  10480c:	e3a07000 	mov	r7, #0
  104810:	e3a02001 	mov	r2, #1
  104814:	e58d3020 	str	r3, [sp, #32]
  104818:	eafffc60 	b	1039a0 <_vfprintf_r+0x900>
  10481c:	e59d2008 	ldr	r2, [sp, #8]
  104820:	e3120c02 	tst	r2, #512	; 0x200
  104824:	e59d2020 	ldr	r2, [sp, #32]
  104828:	1a000193 	bne	104e7c <_vfprintf_r+0x1ddc>
  10482c:	e5926000 	ldr	r6, [r2]
  104830:	e3a07000 	mov	r7, #0
  104834:	e58d3020 	str	r3, [sp, #32]
  104838:	eafffcaa 	b	103ae8 <_vfprintf_r+0xa48>
  10483c:	e3a02008 	mov	r2, #8
  104840:	e3a01000 	mov	r1, #0
  104844:	e28d0090 	add	r0, sp, #144	; 0x90
  104848:	e28d40e4 	add	r4, sp, #228	; 0xe4
  10484c:	eb00176a 	bl	10a5fc <memset>
  104850:	e59d2020 	ldr	r2, [sp, #32]
  104854:	e28d3090 	add	r3, sp, #144	; 0x90
  104858:	e1a01004 	mov	r1, r4
  10485c:	e1a0000b 	mov	r0, fp
  104860:	e5922000 	ldr	r2, [r2]
  104864:	eb0004de 	bl	105be4 <_wcrtomb_r>
  104868:	e3700001 	cmn	r0, #1
  10486c:	e58d001c 	str	r0, [sp, #28]
  104870:	0a0003dd 	beq	1057ec <_vfprintf_r+0x274c>
  104874:	e59d301c 	ldr	r3, [sp, #28]
  104878:	e1c37fc3 	bic	r7, r3, r3, asr #31
  10487c:	eafffcfa 	b	103c6c <_vfprintf_r+0xbcc>
  104880:	e2833001 	add	r3, r3, #1
  104884:	e58d309c 	str	r3, [sp, #156]	; 0x9c
  104888:	e3530007 	cmp	r3, #7
  10488c:	e51f372c 	ldr	r3, [pc, #-1836]	; 104168 <_vfprintf_r+0x10c8>
  104890:	e0822004 	add	r2, r2, r4
  104894:	e58d20a0 	str	r2, [sp, #160]	; 0xa0
  104898:	e8890018 	stm	r9, {r3, r4}
  10489c:	dafffbe8 	ble	103844 <_vfprintf_r+0x7a4>
  1048a0:	eafffe9e 	b	104320 <_vfprintf_r+0x1280>
  1048a4:	e59d2008 	ldr	r2, [sp, #8]
  1048a8:	e3120010 	tst	r2, #16
  1048ac:	1a000136 	bne	104d8c <_vfprintf_r+0x1cec>
  1048b0:	e59d2008 	ldr	r2, [sp, #8]
  1048b4:	e3120040 	tst	r2, #64	; 0x40
  1048b8:	1a000182 	bne	104ec8 <_vfprintf_r+0x1e28>
  1048bc:	e59d2008 	ldr	r2, [sp, #8]
  1048c0:	e3120c02 	tst	r2, #512	; 0x200
  1048c4:	0a000130 	beq	104d8c <_vfprintf_r+0x1cec>
  1048c8:	e59d2014 	ldr	r2, [sp, #20]
  1048cc:	e5c32000 	strb	r2, [r3]
  1048d0:	eafffcad 	b	103b8c <_vfprintf_r+0xaec>
  1048d4:	eeb48b48 	vcmp.f64	d8, d8
  1048d8:	eef1fa10 	vmrs	APSR_nzcv, fpscr
  1048dc:	6a0003da 	bvs	10584c <_vfprintf_r+0x27ac>
  1048e0:	e59d3030 	ldr	r3, [sp, #48]	; 0x30
  1048e4:	e3c36020 	bic	r6, r3, #32
  1048e8:	e3560041 	cmp	r6, #65	; 0x41
  1048ec:	0a00014d 	beq	104e28 <_vfprintf_r+0x1d88>
  1048f0:	e59d1008 	ldr	r1, [sp, #8]
  1048f4:	e3740001 	cmn	r4, #1
  1048f8:	ee183a90 	vmov	r3, s17
  1048fc:	e3812c01 	orr	r2, r1, #256	; 0x100
  104900:	0a000390 	beq	105748 <_vfprintf_r+0x26a8>
  104904:	e3560047 	cmp	r6, #71	; 0x47
  104908:	1a000384 	bne	105720 <_vfprintf_r+0x2680>
  10490c:	e3540000 	cmp	r4, #0
  104910:	0a000409 	beq	10593c <_vfprintf_r+0x289c>
  104914:	e58d1028 	str	r1, [sp, #40]	; 0x28
  104918:	e3a01000 	mov	r1, #0
  10491c:	e58d2008 	str	r2, [sp, #8]
  104920:	e58d1024 	str	r1, [sp, #36]	; 0x24
  104924:	e3530000 	cmp	r3, #0
  104928:	a3a03000 	movge	r3, #0
  10492c:	aeb0cb48 	vmovge.f64	d12, d8
  104930:	a58d302c 	strge	r3, [sp, #44]	; 0x2c
  104934:	ba000285 	blt	105350 <_vfprintf_r+0x22b0>
  104938:	e3560041 	cmp	r6, #65	; 0x41
  10493c:	0a0002aa 	beq	1053ec <_vfprintf_r+0x234c>
  104940:	e3560046 	cmp	r6, #70	; 0x46
  104944:	0a000285 	beq	105360 <_vfprintf_r+0x22c0>
  104948:	e3560045 	cmp	r6, #69	; 0x45
  10494c:	1a000384 	bne	105764 <_vfprintf_r+0x26c4>
  104950:	e2845001 	add	r5, r4, #1
  104954:	e28d2090 	add	r2, sp, #144	; 0x90
  104958:	e28d307c 	add	r3, sp, #124	; 0x7c
  10495c:	e58d2004 	str	r2, [sp, #4]
  104960:	e58d3000 	str	r3, [sp]
  104964:	e1a02005 	mov	r2, r5
  104968:	e28d3074 	add	r3, sp, #116	; 0x74
  10496c:	e3a01002 	mov	r1, #2
  104970:	eeb00b4c 	vmov.f64	d0, d12
  104974:	e1a0000b 	mov	r0, fp
  104978:	eb0006ef 	bl	10653c <_dtoa_r>
  10497c:	e58d0010 	str	r0, [sp, #16]
  104980:	e59d3010 	ldr	r3, [sp, #16]
  104984:	e0835005 	add	r5, r3, r5
  104988:	eeb5cb40 	vcmp.f64	d12, #0.0
  10498c:	eef1fa10 	vmrs	APSR_nzcv, fpscr
  104990:	01a03005 	moveq	r3, r5
  104994:	0a000009 	beq	1049c0 <_vfprintf_r+0x1920>
  104998:	e59d3090 	ldr	r3, [sp, #144]	; 0x90
  10499c:	e1530005 	cmp	r3, r5
  1049a0:	2a000006 	bcs	1049c0 <_vfprintf_r+0x1920>
  1049a4:	e3a01030 	mov	r1, #48	; 0x30
  1049a8:	e2832001 	add	r2, r3, #1
  1049ac:	e58d2090 	str	r2, [sp, #144]	; 0x90
  1049b0:	e5c31000 	strb	r1, [r3]
  1049b4:	e59d3090 	ldr	r3, [sp, #144]	; 0x90
  1049b8:	e1550003 	cmp	r5, r3
  1049bc:	8afffff9 	bhi	1049a8 <_vfprintf_r+0x1908>
  1049c0:	e59d2010 	ldr	r2, [sp, #16]
  1049c4:	e3560047 	cmp	r6, #71	; 0x47
  1049c8:	e0433002 	sub	r3, r3, r2
  1049cc:	e58d303c 	str	r3, [sp, #60]	; 0x3c
  1049d0:	e59d3074 	ldr	r3, [sp, #116]	; 0x74
  1049d4:	e58d3038 	str	r3, [sp, #56]	; 0x38
  1049d8:	0a0001dc 	beq	105150 <_vfprintf_r+0x20b0>
  1049dc:	e3560046 	cmp	r6, #70	; 0x46
  1049e0:	1a0001e1 	bne	10516c <_vfprintf_r+0x20cc>
  1049e4:	e59d3038 	ldr	r3, [sp, #56]	; 0x38
  1049e8:	e3530000 	cmp	r3, #0
  1049ec:	da0003c8 	ble	105914 <_vfprintf_r+0x2874>
  1049f0:	e3540000 	cmp	r4, #0
  1049f4:	1a0003b4 	bne	1058cc <_vfprintf_r+0x282c>
  1049f8:	e59d3028 	ldr	r3, [sp, #40]	; 0x28
  1049fc:	e3130001 	tst	r3, #1
  104a00:	1a0003b1 	bne	1058cc <_vfprintf_r+0x282c>
  104a04:	e59d3038 	ldr	r3, [sp, #56]	; 0x38
  104a08:	e58d301c 	str	r3, [sp, #28]
  104a0c:	e3a03066 	mov	r3, #102	; 0x66
  104a10:	e58d3030 	str	r3, [sp, #48]	; 0x30
  104a14:	e59d3028 	ldr	r3, [sp, #40]	; 0x28
  104a18:	e3130b01 	tst	r3, #1024	; 0x400
  104a1c:	1a0002fe 	bne	10561c <_vfprintf_r+0x257c>
  104a20:	e59d301c 	ldr	r3, [sp, #28]
  104a24:	e1c37fc3 	bic	r7, r3, r3, asr #31
  104a28:	e3a03000 	mov	r3, #0
  104a2c:	e58d3044 	str	r3, [sp, #68]	; 0x44
  104a30:	e58d3040 	str	r3, [sp, #64]	; 0x40
  104a34:	e59d302c 	ldr	r3, [sp, #44]	; 0x2c
  104a38:	e3530000 	cmp	r3, #0
  104a3c:	1a0001bf 	bne	105140 <_vfprintf_r+0x20a0>
  104a40:	e1a04003 	mov	r4, r3
  104a44:	e5dd106f 	ldrb	r1, [sp, #111]	; 0x6f
  104a48:	eafffae2 	b	1035d8 <_vfprintf_r+0x538>
  104a4c:	e59d3008 	ldr	r3, [sp, #8]
  104a50:	e3833002 	orr	r3, r3, #2
  104a54:	e58d3008 	str	r3, [sp, #8]
  104a58:	e59d3030 	ldr	r3, [sp, #48]	; 0x30
  104a5c:	e5cd3071 	strb	r3, [sp, #113]	; 0x71
  104a60:	e3a03030 	mov	r3, #48	; 0x30
  104a64:	e5cd3070 	strb	r3, [sp, #112]	; 0x70
  104a68:	eafffc24 	b	103b00 <_vfprintf_r+0xa60>
  104a6c:	e59d309c 	ldr	r3, [sp, #156]	; 0x9c
  104a70:	e2822001 	add	r2, r2, #1
  104a74:	e30f15c4 	movw	r1, #62916	; 0xf5c4
  104a78:	e58d20a0 	str	r2, [sp, #160]	; 0xa0
  104a7c:	e2833001 	add	r3, r3, #1
  104a80:	e3401010 	movt	r1, #16
  104a84:	e3530007 	cmp	r3, #7
  104a88:	e58d309c 	str	r3, [sp, #156]	; 0x9c
  104a8c:	e5891000 	str	r1, [r9]
  104a90:	e3a03001 	mov	r3, #1
  104a94:	e5893004 	str	r3, [r9, #4]
  104a98:	d2899008 	addle	r9, r9, #8
  104a9c:	ca000248 	bgt	1053c4 <_vfprintf_r+0x2324>
  104aa0:	e59d303c 	ldr	r3, [sp, #60]	; 0x3c
  104aa4:	e1933004 	orrs	r3, r3, r4
  104aa8:	0a0002a3 	beq	10553c <_vfprintf_r+0x249c>
  104aac:	e59d309c 	ldr	r3, [sp, #156]	; 0x9c
  104ab0:	e59d1048 	ldr	r1, [sp, #72]	; 0x48
  104ab4:	e2833001 	add	r3, r3, #1
  104ab8:	e59d004c 	ldr	r0, [sp, #76]	; 0x4c
  104abc:	e3530007 	cmp	r3, #7
  104ac0:	e0812002 	add	r2, r1, r2
  104ac4:	e5891004 	str	r1, [r9, #4]
  104ac8:	e5890000 	str	r0, [r9]
  104acc:	d2899008 	addle	r9, r9, #8
  104ad0:	e58d20a0 	str	r2, [sp, #160]	; 0xa0
  104ad4:	e58d309c 	str	r3, [sp, #156]	; 0x9c
  104ad8:	ca00028c 	bgt	105510 <_vfprintf_r+0x2470>
  104adc:	e3540000 	cmp	r4, #0
  104ae0:	ba0002ed 	blt	10569c <_vfprintf_r+0x25fc>
  104ae4:	e2833001 	add	r3, r3, #1
  104ae8:	e59d103c 	ldr	r1, [sp, #60]	; 0x3c
  104aec:	e3530007 	cmp	r3, #7
  104af0:	e58d309c 	str	r3, [sp, #156]	; 0x9c
  104af4:	e59d3010 	ldr	r3, [sp, #16]
  104af8:	e0812002 	add	r2, r1, r2
  104afc:	e5891004 	str	r1, [r9, #4]
  104b00:	e58d20a0 	str	r2, [sp, #160]	; 0xa0
  104b04:	e5893000 	str	r3, [r9]
  104b08:	dafffb4d 	ble	103844 <_vfprintf_r+0x7a4>
  104b0c:	eafffe03 	b	104320 <_vfprintf_r+0x1280>
  104b10:	e28d2098 	add	r2, sp, #152	; 0x98
  104b14:	e59d100c 	ldr	r1, [sp, #12]
  104b18:	e1a0000b 	mov	r0, fp
  104b1c:	eb001f02 	bl	10c72c <__sprint_r>
  104b20:	e3500000 	cmp	r0, #0
  104b24:	1afffa64 	bne	1034bc <_vfprintf_r+0x41c>
  104b28:	e28d90a4 	add	r9, sp, #164	; 0xa4
  104b2c:	eafffd49 	b	104058 <_vfprintf_r+0xfb8>
  104b30:	e59d3010 	ldr	r3, [sp, #16]
  104b34:	e3a02008 	mov	r2, #8
  104b38:	e3a01000 	mov	r1, #0
  104b3c:	e28d0090 	add	r0, sp, #144	; 0x90
  104b40:	e58d307c 	str	r3, [sp, #124]	; 0x7c
  104b44:	eb0016ac 	bl	10a5fc <memset>
  104b48:	e3740001 	cmn	r4, #1
  104b4c:	0a00025f 	beq	1054d0 <_vfprintf_r+0x2430>
  104b50:	e3a05000 	mov	r5, #0
  104b54:	e1a07005 	mov	r7, r5
  104b58:	ea000007 	b	104b7c <_vfprintf_r+0x1adc>
  104b5c:	eb000420 	bl	105be4 <_wcrtomb_r>
  104b60:	e3700001 	cmn	r0, #1
  104b64:	e0873000 	add	r3, r7, r0
  104b68:	0a00031f 	beq	1057ec <_vfprintf_r+0x274c>
  104b6c:	e1530004 	cmp	r3, r4
  104b70:	ca000009 	bgt	104b9c <_vfprintf_r+0x1afc>
  104b74:	e1a07003 	mov	r7, r3
  104b78:	0a000007 	beq	104b9c <_vfprintf_r+0x1afc>
  104b7c:	e59d207c 	ldr	r2, [sp, #124]	; 0x7c
  104b80:	e28d3090 	add	r3, sp, #144	; 0x90
  104b84:	e28d10e4 	add	r1, sp, #228	; 0xe4
  104b88:	e1a0000b 	mov	r0, fp
  104b8c:	e7922005 	ldr	r2, [r2, r5]
  104b90:	e2855004 	add	r5, r5, #4
  104b94:	e3520000 	cmp	r2, #0
  104b98:	1affffef 	bne	104b5c <_vfprintf_r+0x1abc>
  104b9c:	e58d701c 	str	r7, [sp, #28]
  104ba0:	e59d301c 	ldr	r3, [sp, #28]
  104ba4:	e3530000 	cmp	r3, #0
  104ba8:	0a0001d9 	beq	105314 <_vfprintf_r+0x2274>
  104bac:	e3530063 	cmp	r3, #99	; 0x63
  104bb0:	da0002d5 	ble	10570c <_vfprintf_r+0x266c>
  104bb4:	e2831001 	add	r1, r3, #1
  104bb8:	e1a0000b 	mov	r0, fp
  104bbc:	eb00126f 	bl	109580 <_malloc_r>
  104bc0:	e2503000 	subs	r3, r0, #0
  104bc4:	e58d3010 	str	r3, [sp, #16]
  104bc8:	0a000307 	beq	1057ec <_vfprintf_r+0x274c>
  104bcc:	e59d3010 	ldr	r3, [sp, #16]
  104bd0:	e58d3024 	str	r3, [sp, #36]	; 0x24
  104bd4:	e3a02008 	mov	r2, #8
  104bd8:	e3a01000 	mov	r1, #0
  104bdc:	e28d0090 	add	r0, sp, #144	; 0x90
  104be0:	eb001685 	bl	10a5fc <memset>
  104be4:	e59d401c 	ldr	r4, [sp, #28]
  104be8:	e28d3090 	add	r3, sp, #144	; 0x90
  104bec:	e28d207c 	add	r2, sp, #124	; 0x7c
  104bf0:	e58d3000 	str	r3, [sp]
  104bf4:	e1a0000b 	mov	r0, fp
  104bf8:	e1a03004 	mov	r3, r4
  104bfc:	e59d1010 	ldr	r1, [sp, #16]
  104c00:	eb00043d 	bl	105cfc <_wcsrtombs_r>
  104c04:	e1540000 	cmp	r4, r0
  104c08:	1afffa27 	bne	1034ac <_vfprintf_r+0x40c>
  104c0c:	e59d1010 	ldr	r1, [sp, #16]
  104c10:	e3a03000 	mov	r3, #0
  104c14:	e59d201c 	ldr	r2, [sp, #28]
  104c18:	e1a04003 	mov	r4, r3
  104c1c:	e58d6020 	str	r6, [sp, #32]
  104c20:	e58d3044 	str	r3, [sp, #68]	; 0x44
  104c24:	e7c13002 	strb	r3, [r1, r2]
  104c28:	e1c27fc2 	bic	r7, r2, r2, asr #31
  104c2c:	e5dd106f 	ldrb	r1, [sp, #111]	; 0x6f
  104c30:	e58d3040 	str	r3, [sp, #64]	; 0x40
  104c34:	e58d3038 	str	r3, [sp, #56]	; 0x38
  104c38:	eafffa66 	b	1035d8 <_vfprintf_r+0x538>
  104c3c:	e2053b01 	and	r3, r5, #1024	; 0x400
  104c40:	e28d1f52 	add	r1, sp, #328	; 0x148
  104c44:	e58db02c 	str	fp, [sp, #44]	; 0x2c
  104c48:	e3a02000 	mov	r2, #0
  104c4c:	e59db060 	ldr	fp, [sp, #96]	; 0x60
  104c50:	e58d5010 	str	r5, [sp, #16]
  104c54:	e1a05002 	mov	r5, r2
  104c58:	e58d4024 	str	r4, [sp, #36]	; 0x24
  104c5c:	e1a04001 	mov	r4, r1
  104c60:	e58d9028 	str	r9, [sp, #40]	; 0x28
  104c64:	e1a09003 	mov	r9, r3
  104c68:	e58d8008 	str	r8, [sp, #8]
  104c6c:	e3a0200a 	mov	r2, #10
  104c70:	e3a03000 	mov	r3, #0
  104c74:	e1a00006 	mov	r0, r6
  104c78:	e1a01007 	mov	r1, r7
  104c7c:	eb002814 	bl	10ecd4 <__aeabi_uldivmod>
  104c80:	e3590000 	cmp	r9, #0
  104c84:	e2855001 	add	r5, r5, #1
  104c88:	e2448001 	sub	r8, r4, #1
  104c8c:	e2822030 	add	r2, r2, #48	; 0x30
  104c90:	e5442001 	strb	r2, [r4, #-1]
  104c94:	0a00000c 	beq	104ccc <_vfprintf_r+0x1c2c>
  104c98:	e3570000 	cmp	r7, #0
  104c9c:	e5db2000 	ldrb	r2, [fp]
  104ca0:	03560009 	cmpeq	r6, #9
  104ca4:	83a03001 	movhi	r3, #1
  104ca8:	93a03000 	movls	r3, #0
  104cac:	e35200ff 	cmp	r2, #255	; 0xff
  104cb0:	03a03000 	moveq	r3, #0
  104cb4:	12033001 	andne	r3, r3, #1
  104cb8:	e1520005 	cmp	r2, r5
  104cbc:	13a03000 	movne	r3, #0
  104cc0:	02033001 	andeq	r3, r3, #1
  104cc4:	e3530000 	cmp	r3, #0
  104cc8:	1a000231 	bne	105594 <_vfprintf_r+0x24f4>
  104ccc:	e1a00006 	mov	r0, r6
  104cd0:	e1a01007 	mov	r1, r7
  104cd4:	e3a03000 	mov	r3, #0
  104cd8:	e3a0200a 	mov	r2, #10
  104cdc:	eb0027fc 	bl	10ecd4 <__aeabi_uldivmod>
  104ce0:	e1a04008 	mov	r4, r8
  104ce4:	e1a06000 	mov	r6, r0
  104ce8:	e1a07001 	mov	r7, r1
  104cec:	e1963007 	orrs	r3, r6, r7
  104cf0:	1affffdd 	bne	104c6c <_vfprintf_r+0x1bcc>
  104cf4:	e58d503c 	str	r5, [sp, #60]	; 0x3c
  104cf8:	e1a03008 	mov	r3, r8
  104cfc:	e59d5010 	ldr	r5, [sp, #16]
  104d00:	e59d201c 	ldr	r2, [sp, #28]
  104d04:	e58db060 	str	fp, [sp, #96]	; 0x60
  104d08:	e58d8010 	str	r8, [sp, #16]
  104d0c:	e0423003 	sub	r3, r2, r3
  104d10:	e59d8008 	ldr	r8, [sp, #8]
  104d14:	e59d4024 	ldr	r4, [sp, #36]	; 0x24
  104d18:	e59d9028 	ldr	r9, [sp, #40]	; 0x28
  104d1c:	e59db02c 	ldr	fp, [sp, #44]	; 0x2c
  104d20:	e58d301c 	str	r3, [sp, #28]
  104d24:	e58d5008 	str	r5, [sp, #8]
  104d28:	eafffa20 	b	1035b0 <_vfprintf_r+0x510>
  104d2c:	e59d2010 	ldr	r2, [sp, #16]
  104d30:	e2411002 	sub	r1, r1, #2
  104d34:	e59d301c 	ldr	r3, [sp, #28]
  104d38:	e58d5008 	str	r5, [sp, #8]
  104d3c:	e0433001 	sub	r3, r3, r1
  104d40:	e58d1010 	str	r1, [sp, #16]
  104d44:	e58d301c 	str	r3, [sp, #28]
  104d48:	e3a03030 	mov	r3, #48	; 0x30
  104d4c:	e5423001 	strb	r3, [r2, #-1]
  104d50:	eafffa16 	b	1035b0 <_vfprintf_r+0x510>
  104d54:	e2813008 	add	r3, r1, #8
  104d58:	e1a0000c 	mov	r0, ip
  104d5c:	e51fcbfc 	ldr	ip, [pc, #-3068]	; 104168 <_vfprintf_r+0x10c8>
  104d60:	e3500007 	cmp	r0, #7
  104d64:	e0822004 	add	r2, r2, r4
  104d68:	e5814004 	str	r4, [r1, #4]
  104d6c:	e58d20a0 	str	r2, [sp, #160]	; 0xa0
  104d70:	e581c000 	str	ip, [r1]
  104d74:	e58d009c 	str	r0, [sp, #156]	; 0x9c
  104d78:	cafffe84 	bgt	104790 <_vfprintf_r+0x16f0>
  104d7c:	e2800001 	add	r0, r0, #1
  104d80:	e2839008 	add	r9, r3, #8
  104d84:	e1a01003 	mov	r1, r3
  104d88:	eafffd5b 	b	1042fc <_vfprintf_r+0x125c>
  104d8c:	e59d2014 	ldr	r2, [sp, #20]
  104d90:	e5832000 	str	r2, [r3]
  104d94:	eafffb7c 	b	103b8c <_vfprintf_r+0xaec>
  104d98:	e28d2098 	add	r2, sp, #152	; 0x98
  104d9c:	e59d100c 	ldr	r1, [sp, #12]
  104da0:	e1a0000b 	mov	r0, fp
  104da4:	eb001e60 	bl	10c72c <__sprint_r>
  104da8:	e3500000 	cmp	r0, #0
  104dac:	1afff9c2 	bne	1034bc <_vfprintf_r+0x41c>
  104db0:	e59d20a0 	ldr	r2, [sp, #160]	; 0xa0
  104db4:	e28d90a4 	add	r9, sp, #164	; 0xa4
  104db8:	eafffcbb 	b	1040ac <_vfprintf_r+0x100c>
  104dbc:	e59d30a0 	ldr	r3, [sp, #160]	; 0xa0
  104dc0:	e3530000 	cmp	r3, #0
  104dc4:	0afff9c2 	beq	1034d4 <_vfprintf_r+0x434>
  104dc8:	e59d400c 	ldr	r4, [sp, #12]
  104dcc:	e1a0000b 	mov	r0, fp
  104dd0:	e28d2098 	add	r2, sp, #152	; 0x98
  104dd4:	e1a01004 	mov	r1, r4
  104dd8:	eb001e53 	bl	10c72c <__sprint_r>
  104ddc:	e3500000 	cmp	r0, #0
  104de0:	0afff9bb 	beq	1034d4 <_vfprintf_r+0x434>
  104de4:	e1d430fc 	ldrsh	r3, [r4, #12]
  104de8:	eafff9bb 	b	1034dc <_vfprintf_r+0x43c>
  104dec:	e3540006 	cmp	r4, #6
  104df0:	e30f35bc 	movw	r3, #62908	; 0xf5bc
  104df4:	e58d6020 	str	r6, [sp, #32]
  104df8:	e3403010 	movt	r3, #16
  104dfc:	31a07004 	movcc	r7, r4
  104e00:	23a07006 	movcs	r7, #6
  104e04:	e1a01002 	mov	r1, r2
  104e08:	e1a04002 	mov	r4, r2
  104e0c:	e58d2024 	str	r2, [sp, #36]	; 0x24
  104e10:	e58d701c 	str	r7, [sp, #28]
  104e14:	e58d2044 	str	r2, [sp, #68]	; 0x44
  104e18:	e58d2040 	str	r2, [sp, #64]	; 0x40
  104e1c:	e58d2038 	str	r2, [sp, #56]	; 0x38
  104e20:	e58d3010 	str	r3, [sp, #16]
  104e24:	eafff9eb 	b	1035d8 <_vfprintf_r+0x538>
  104e28:	e3530061 	cmp	r3, #97	; 0x61
  104e2c:	e3a03030 	mov	r3, #48	; 0x30
  104e30:	e5cd3070 	strb	r3, [sp, #112]	; 0x70
  104e34:	13a02058 	movne	r2, #88	; 0x58
  104e38:	03a02078 	moveq	r2, #120	; 0x78
  104e3c:	e3540063 	cmp	r4, #99	; 0x63
  104e40:	e5cd2071 	strb	r2, [sp, #113]	; 0x71
  104e44:	e59d2008 	ldr	r2, [sp, #8]
  104e48:	e3821002 	orr	r1, r2, #2
  104e4c:	e58d1028 	str	r1, [sp, #40]	; 0x28
  104e50:	ca000257 	bgt	1057b4 <_vfprintf_r+0x2714>
  104e54:	e3823c01 	orr	r3, r2, #256	; 0x100
  104e58:	e1a02003 	mov	r2, r3
  104e5c:	ee183a90 	vmov	r3, s17
  104e60:	e3822002 	orr	r2, r2, #2
  104e64:	e58d2008 	str	r2, [sp, #8]
  104e68:	e3a02000 	mov	r2, #0
  104e6c:	e58d2024 	str	r2, [sp, #36]	; 0x24
  104e70:	e28d20e4 	add	r2, sp, #228	; 0xe4
  104e74:	e58d2010 	str	r2, [sp, #16]
  104e78:	eafffea9 	b	104924 <_vfprintf_r+0x1884>
  104e7c:	e5d26000 	ldrb	r6, [r2]
  104e80:	e3a07000 	mov	r7, #0
  104e84:	e58d3020 	str	r3, [sp, #32]
  104e88:	eafffb16 	b	103ae8 <_vfprintf_r+0xa48>
  104e8c:	e5d26000 	ldrb	r6, [r2]
  104e90:	e3a07000 	mov	r7, #0
  104e94:	e3a02001 	mov	r2, #1
  104e98:	e58d3020 	str	r3, [sp, #32]
  104e9c:	eafffabf 	b	1039a0 <_vfprintf_r+0x900>
  104ea0:	e1d260d0 	ldrsb	r6, [r2]
  104ea4:	e58d3020 	str	r3, [sp, #32]
  104ea8:	e1a07fc6 	asr	r7, r6, #31
  104eac:	e1a02006 	mov	r2, r6
  104eb0:	e1a03007 	mov	r3, r7
  104eb4:	eafff99e 	b	103534 <_vfprintf_r+0x494>
  104eb8:	e5d26000 	ldrb	r6, [r2]
  104ebc:	e3a07000 	mov	r7, #0
  104ec0:	e58d3020 	str	r3, [sp, #32]
  104ec4:	eafffab2 	b	103994 <_vfprintf_r+0x8f4>
  104ec8:	e59d2014 	ldr	r2, [sp, #20]
  104ecc:	e1c320b0 	strh	r2, [r3]
  104ed0:	eafffb2d 	b	103b8c <_vfprintf_r+0xaec>
  104ed4:	e28d2098 	add	r2, sp, #152	; 0x98
  104ed8:	e59d100c 	ldr	r1, [sp, #12]
  104edc:	e1a0000b 	mov	r0, fp
  104ee0:	eb001e11 	bl	10c72c <__sprint_r>
  104ee4:	e3500000 	cmp	r0, #0
  104ee8:	1afff973 	bne	1034bc <_vfprintf_r+0x41c>
  104eec:	e59d3074 	ldr	r3, [sp, #116]	; 0x74
  104ef0:	e28d90a4 	add	r9, sp, #164	; 0xa4
  104ef4:	e59d103c 	ldr	r1, [sp, #60]	; 0x3c
  104ef8:	e59d20a0 	ldr	r2, [sp, #160]	; 0xa0
  104efc:	e0413003 	sub	r3, r1, r3
  104f00:	eafffdd7 	b	104664 <_vfprintf_r+0x15c4>
  104f04:	e59d0010 	ldr	r0, [sp, #16]
  104f08:	e59d4038 	ldr	r4, [sp, #56]	; 0x38
  104f0c:	fafff82b 	blx	102fc0 <strlen>
  104f10:	e58d6020 	str	r6, [sp, #32]
  104f14:	e5dd106f 	ldrb	r1, [sp, #111]	; 0x6f
  104f18:	e58d4044 	str	r4, [sp, #68]	; 0x44
  104f1c:	e58d4040 	str	r4, [sp, #64]	; 0x40
  104f20:	e58d4024 	str	r4, [sp, #36]	; 0x24
  104f24:	e58d001c 	str	r0, [sp, #28]
  104f28:	e1c07fc0 	bic	r7, r0, r0, asr #31
  104f2c:	eafff9a9 	b	1035d8 <_vfprintf_r+0x538>
  104f30:	e59d3040 	ldr	r3, [sp, #64]	; 0x40
  104f34:	e59d5044 	ldr	r5, [sp, #68]	; 0x44
  104f38:	e59d103c 	ldr	r1, [sp, #60]	; 0x3c
  104f3c:	e3530000 	cmp	r3, #0
  104f40:	d3550000 	cmple	r5, #0
  104f44:	e59d3010 	ldr	r3, [sp, #16]
  104f48:	e0833001 	add	r3, r3, r1
  104f4c:	da00029c 	ble	1059c4 <_vfprintf_r+0x2924>
  104f50:	e58d7030 	str	r7, [sp, #48]	; 0x30
  104f54:	e59d7060 	ldr	r7, [sp, #96]	; 0x60
  104f58:	e58d3028 	str	r3, [sp, #40]	; 0x28
  104f5c:	e58d802c 	str	r8, [sp, #44]	; 0x2c
  104f60:	e3550000 	cmp	r5, #0
  104f64:	e59d1054 	ldr	r1, [sp, #84]	; 0x54
  104f68:	e59d0058 	ldr	r0, [sp, #88]	; 0x58
  104f6c:	12455001 	subne	r5, r5, #1
  104f70:	059d3040 	ldreq	r3, [sp, #64]	; 0x40
  104f74:	02477001 	subeq	r7, r7, #1
  104f78:	e0822001 	add	r2, r2, r1
  104f7c:	e5891004 	str	r1, [r9, #4]
  104f80:	02433001 	subeq	r3, r3, #1
  104f84:	e5890000 	str	r0, [r9]
  104f88:	058d3040 	streq	r3, [sp, #64]	; 0x40
  104f8c:	e59d309c 	ldr	r3, [sp, #156]	; 0x9c
  104f90:	e58d20a0 	str	r2, [sp, #160]	; 0xa0
  104f94:	e2833001 	add	r3, r3, #1
  104f98:	e58d309c 	str	r3, [sp, #156]	; 0x9c
  104f9c:	e3530007 	cmp	r3, #7
  104fa0:	d2899008 	addle	r9, r9, #8
  104fa4:	ca000052 	bgt	1050f4 <_vfprintf_r+0x2054>
  104fa8:	e59d1028 	ldr	r1, [sp, #40]	; 0x28
  104fac:	e5d73000 	ldrb	r3, [r7]
  104fb0:	e0414006 	sub	r4, r1, r6
  104fb4:	e1530004 	cmp	r3, r4
  104fb8:	e58d101c 	str	r1, [sp, #28]
  104fbc:	b1a04003 	movlt	r4, r3
  104fc0:	e3540000 	cmp	r4, #0
  104fc4:	da00000a 	ble	104ff4 <_vfprintf_r+0x1f54>
  104fc8:	e59d309c 	ldr	r3, [sp, #156]	; 0x9c
  104fcc:	e0822004 	add	r2, r2, r4
  104fd0:	e5896000 	str	r6, [r9]
  104fd4:	e2833001 	add	r3, r3, #1
  104fd8:	e58d20a0 	str	r2, [sp, #160]	; 0xa0
  104fdc:	e3530007 	cmp	r3, #7
  104fe0:	e5894004 	str	r4, [r9, #4]
  104fe4:	e58d309c 	str	r3, [sp, #156]	; 0x9c
  104fe8:	ca00004a 	bgt	105118 <_vfprintf_r+0x2078>
  104fec:	e5d73000 	ldrb	r3, [r7]
  104ff0:	e2899008 	add	r9, r9, #8
  104ff4:	e3540000 	cmp	r4, #0
  104ff8:	a0434004 	subge	r4, r3, r4
  104ffc:	b1a04003 	movlt	r4, r3
  105000:	e3540000 	cmp	r4, #0
  105004:	da000023 	ble	105098 <_vfprintf_r+0x1ff8>
  105008:	e3540010 	cmp	r4, #16
  10500c:	e59d109c 	ldr	r1, [sp, #156]	; 0x9c
  105010:	da00002c 	ble	1050c8 <_vfprintf_r+0x2028>
  105014:	e3a08010 	mov	r8, #16
  105018:	ea000002 	b	105028 <_vfprintf_r+0x1f88>
  10501c:	e2444010 	sub	r4, r4, #16
  105020:	e3540010 	cmp	r4, #16
  105024:	da000027 	ble	1050c8 <_vfprintf_r+0x2028>
  105028:	e2811001 	add	r1, r1, #1
  10502c:	e51f3ecc 	ldr	r3, [pc, #-3788]	; 104168 <_vfprintf_r+0x10c8>
  105030:	e3510007 	cmp	r1, #7
  105034:	e2822010 	add	r2, r2, #16
  105038:	e58d109c 	str	r1, [sp, #156]	; 0x9c
  10503c:	e8890108 	stm	r9, {r3, r8}
  105040:	d2899008 	addle	r9, r9, #8
  105044:	e58d20a0 	str	r2, [sp, #160]	; 0xa0
  105048:	dafffff3 	ble	10501c <_vfprintf_r+0x1f7c>
  10504c:	e28d2098 	add	r2, sp, #152	; 0x98
  105050:	e59d100c 	ldr	r1, [sp, #12]
  105054:	e1a0000b 	mov	r0, fp
  105058:	e28d90a4 	add	r9, sp, #164	; 0xa4
  10505c:	eb001db2 	bl	10c72c <__sprint_r>
  105060:	e3500000 	cmp	r0, #0
  105064:	1afff914 	bne	1034bc <_vfprintf_r+0x41c>
  105068:	e59d20a0 	ldr	r2, [sp, #160]	; 0xa0
  10506c:	e59d109c 	ldr	r1, [sp, #156]	; 0x9c
  105070:	eaffffe9 	b	10501c <_vfprintf_r+0x1f7c>
  105074:	e28d2098 	add	r2, sp, #152	; 0x98
  105078:	e59d100c 	ldr	r1, [sp, #12]
  10507c:	e1a0000b 	mov	r0, fp
  105080:	eb001da9 	bl	10c72c <__sprint_r>
  105084:	e3500000 	cmp	r0, #0
  105088:	1afff90b 	bne	1034bc <_vfprintf_r+0x41c>
  10508c:	e5d73000 	ldrb	r3, [r7]
  105090:	e28d90a4 	add	r9, sp, #164	; 0xa4
  105094:	e59d20a0 	ldr	r2, [sp, #160]	; 0xa0
  105098:	e59d1040 	ldr	r1, [sp, #64]	; 0x40
  10509c:	e0866003 	add	r6, r6, r3
  1050a0:	e3510000 	cmp	r1, #0
  1050a4:	d3550000 	cmple	r5, #0
  1050a8:	caffffac 	bgt	104f60 <_vfprintf_r+0x1ec0>
  1050ac:	e58d7060 	str	r7, [sp, #96]	; 0x60
  1050b0:	e59d802c 	ldr	r8, [sp, #44]	; 0x2c
  1050b4:	e59d7030 	ldr	r7, [sp, #48]	; 0x30
  1050b8:	e59d301c 	ldr	r3, [sp, #28]
  1050bc:	e1560003 	cmp	r6, r3
  1050c0:	21a06003 	movcs	r6, r3
  1050c4:	eafffd4c 	b	1045fc <_vfprintf_r+0x155c>
  1050c8:	e2811001 	add	r1, r1, #1
  1050cc:	e51f3f6c 	ldr	r3, [pc, #-3948]	; 104168 <_vfprintf_r+0x10c8>
  1050d0:	e3510007 	cmp	r1, #7
  1050d4:	e0822004 	add	r2, r2, r4
  1050d8:	e58d109c 	str	r1, [sp, #156]	; 0x9c
  1050dc:	e58d20a0 	str	r2, [sp, #160]	; 0xa0
  1050e0:	e8890018 	stm	r9, {r3, r4}
  1050e4:	caffffe2 	bgt	105074 <_vfprintf_r+0x1fd4>
  1050e8:	e2899008 	add	r9, r9, #8
  1050ec:	e5d73000 	ldrb	r3, [r7]
  1050f0:	eaffffe8 	b	105098 <_vfprintf_r+0x1ff8>
  1050f4:	e28d2098 	add	r2, sp, #152	; 0x98
  1050f8:	e59d100c 	ldr	r1, [sp, #12]
  1050fc:	e1a0000b 	mov	r0, fp
  105100:	eb001d89 	bl	10c72c <__sprint_r>
  105104:	e3500000 	cmp	r0, #0
  105108:	1afff8eb 	bne	1034bc <_vfprintf_r+0x41c>
  10510c:	e59d20a0 	ldr	r2, [sp, #160]	; 0xa0
  105110:	e28d90a4 	add	r9, sp, #164	; 0xa4
  105114:	eaffffa3 	b	104fa8 <_vfprintf_r+0x1f08>
  105118:	e28d2098 	add	r2, sp, #152	; 0x98
  10511c:	e59d100c 	ldr	r1, [sp, #12]
  105120:	e1a0000b 	mov	r0, fp
  105124:	eb001d80 	bl	10c72c <__sprint_r>
  105128:	e3500000 	cmp	r0, #0
  10512c:	1afff8e2 	bne	1034bc <_vfprintf_r+0x41c>
  105130:	e5d73000 	ldrb	r3, [r7]
  105134:	e28d90a4 	add	r9, sp, #164	; 0xa4
  105138:	e59d20a0 	ldr	r2, [sp, #160]	; 0xa0
  10513c:	eaffffac 	b	104ff4 <_vfprintf_r+0x1f54>
  105140:	e3a0102d 	mov	r1, #45	; 0x2d
  105144:	e3a04000 	mov	r4, #0
  105148:	e5cd106f 	strb	r1, [sp, #111]	; 0x6f
  10514c:	eafff923 	b	1035e0 <_vfprintf_r+0x540>
  105150:	e3730003 	cmn	r3, #3
  105154:	a1540003 	cmpge	r4, r3
  105158:	aa00004c 	bge	105290 <_vfprintf_r+0x21f0>
  10515c:	e59d3030 	ldr	r3, [sp, #48]	; 0x30
  105160:	e2433002 	sub	r3, r3, #2
  105164:	e58d3030 	str	r3, [sp, #48]	; 0x30
  105168:	e3c36020 	bic	r6, r3, #32
  10516c:	e5dd2030 	ldrb	r2, [sp, #48]	; 0x30
  105170:	e3560041 	cmp	r6, #65	; 0x41
  105174:	e59d3038 	ldr	r3, [sp, #56]	; 0x38
  105178:	0282200f 	addeq	r2, r2, #15
  10517c:	e2433001 	sub	r3, r3, #1
  105180:	e58d3074 	str	r3, [sp, #116]	; 0x74
  105184:	06ef2072 	uxtbeq	r2, r2
  105188:	e3530000 	cmp	r3, #0
  10518c:	e5cd2080 	strb	r2, [sp, #128]	; 0x80
  105190:	b59d3038 	ldrlt	r3, [sp, #56]	; 0x38
  105194:	b3a0202d 	movlt	r2, #45	; 0x2d
  105198:	a3a0202b 	movge	r2, #43	; 0x2b
  10519c:	e5cd2081 	strb	r2, [sp, #129]	; 0x81
  1051a0:	b2633001 	rsblt	r3, r3, #1
  1051a4:	e3530009 	cmp	r3, #9
  1051a8:	da0001cf 	ble	1058ec <_vfprintf_r+0x284c>
  1051ac:	e28d4097 	add	r4, sp, #151	; 0x97
  1051b0:	e3a0e00a 	mov	lr, #10
  1051b4:	e59d5064 	ldr	r5, [sp, #100]	; 0x64
  1051b8:	e1a0c004 	mov	ip, r4
  1051bc:	ea000000 	b	1051c4 <_vfprintf_r+0x2124>
  1051c0:	e1a0c000 	mov	ip, r0
  1051c4:	e0876593 	umull	r6, r7, r3, r5
  1051c8:	e24c0001 	sub	r0, ip, #1
  1051cc:	e1a011a7 	lsr	r1, r7, #3
  1051d0:	e3510009 	cmp	r1, #9
  1051d4:	e062319e 	mls	r2, lr, r1, r3
  1051d8:	e1a03001 	mov	r3, r1
  1051dc:	e2822030 	add	r2, r2, #48	; 0x30
  1051e0:	e54c2001 	strb	r2, [ip, #-1]
  1051e4:	cafffff5 	bgt	1051c0 <_vfprintf_r+0x2120>
  1051e8:	e24c2002 	sub	r2, ip, #2
  1051ec:	e2813030 	add	r3, r1, #48	; 0x30
  1051f0:	e1520004 	cmp	r2, r4
  1051f4:	e6ef1073 	uxtb	r1, r3
  1051f8:	e5401001 	strb	r1, [r0, #-1]
  1051fc:	2a0001f2 	bcs	1059cc <_vfprintf_r+0x292c>
  105200:	e28de09b 	add	lr, sp, #155	; 0x9b
  105204:	e28d3080 	add	r3, sp, #128	; 0x80
  105208:	e04ec00c 	sub	ip, lr, ip
  10520c:	e28de082 	add	lr, sp, #130	; 0x82
  105210:	e083c00c 	add	ip, r3, ip
  105214:	ea000000 	b	10521c <_vfprintf_r+0x217c>
  105218:	e5f21001 	ldrb	r1, [r2, #1]!
  10521c:	e4ce1001 	strb	r1, [lr], #1
  105220:	e15c000e 	cmp	ip, lr
  105224:	1afffffb 	bne	105218 <_vfprintf_r+0x2178>
  105228:	e28d2098 	add	r2, sp, #152	; 0x98
  10522c:	e28d1082 	add	r1, sp, #130	; 0x82
  105230:	e0422000 	sub	r2, r2, r0
  105234:	e0812002 	add	r2, r1, r2
  105238:	e59d103c 	ldr	r1, [sp, #60]	; 0x3c
  10523c:	e0423003 	sub	r3, r2, r3
  105240:	e58d305c 	str	r3, [sp, #92]	; 0x5c
  105244:	e3510001 	cmp	r1, #1
  105248:	e0813003 	add	r3, r1, r3
  10524c:	e58d301c 	str	r3, [sp, #28]
  105250:	da0001bf 	ble	105954 <_vfprintf_r+0x28b4>
  105254:	e59d301c 	ldr	r3, [sp, #28]
  105258:	e59d2048 	ldr	r2, [sp, #72]	; 0x48
  10525c:	e0833002 	add	r3, r3, r2
  105260:	e58d301c 	str	r3, [sp, #28]
  105264:	e59d3028 	ldr	r3, [sp, #40]	; 0x28
  105268:	e3a02000 	mov	r2, #0
  10526c:	e58d2044 	str	r2, [sp, #68]	; 0x44
  105270:	e3c33b01 	bic	r3, r3, #1024	; 0x400
  105274:	e58d2040 	str	r2, [sp, #64]	; 0x40
  105278:	e3833c01 	orr	r3, r3, #256	; 0x100
  10527c:	e58d3008 	str	r3, [sp, #8]
  105280:	e59d301c 	ldr	r3, [sp, #28]
  105284:	e58d2038 	str	r2, [sp, #56]	; 0x38
  105288:	e1c37fc3 	bic	r7, r3, r3, asr #31
  10528c:	eafffde8 	b	104a34 <_vfprintf_r+0x1994>
  105290:	e59d203c 	ldr	r2, [sp, #60]	; 0x3c
  105294:	e59d3038 	ldr	r3, [sp, #56]	; 0x38
  105298:	e1520003 	cmp	r2, r3
  10529c:	ca0000aa 	bgt	10554c <_vfprintf_r+0x24ac>
  1052a0:	e59d2028 	ldr	r2, [sp, #40]	; 0x28
  1052a4:	e3120001 	tst	r2, #1
  1052a8:	0a000184 	beq	1058c0 <_vfprintf_r+0x2820>
  1052ac:	e59d2048 	ldr	r2, [sp, #72]	; 0x48
  1052b0:	e0833002 	add	r3, r3, r2
  1052b4:	e58d301c 	str	r3, [sp, #28]
  1052b8:	e59d3028 	ldr	r3, [sp, #40]	; 0x28
  1052bc:	e3130b01 	tst	r3, #1024	; 0x400
  1052c0:	0a000002 	beq	1052d0 <_vfprintf_r+0x2230>
  1052c4:	e59d3038 	ldr	r3, [sp, #56]	; 0x38
  1052c8:	e3530000 	cmp	r3, #0
  1052cc:	ca0000d0 	bgt	105614 <_vfprintf_r+0x2574>
  1052d0:	e59d301c 	ldr	r3, [sp, #28]
  1052d4:	e1c37fc3 	bic	r7, r3, r3, asr #31
  1052d8:	e3a03067 	mov	r3, #103	; 0x67
  1052dc:	e58d3030 	str	r3, [sp, #48]	; 0x30
  1052e0:	eafffdd0 	b	104a28 <_vfprintf_r+0x1988>
  1052e4:	e28d2098 	add	r2, sp, #152	; 0x98
  1052e8:	e59d100c 	ldr	r1, [sp, #12]
  1052ec:	e1a0000b 	mov	r0, fp
  1052f0:	eb001d0d 	bl	10c72c <__sprint_r>
  1052f4:	e3500000 	cmp	r0, #0
  1052f8:	1afff86f 	bne	1034bc <_vfprintf_r+0x41c>
  1052fc:	e59d20a0 	ldr	r2, [sp, #160]	; 0xa0
  105300:	e28d90a4 	add	r9, sp, #164	; 0xa4
  105304:	eafffc3a 	b	1043f4 <_vfprintf_r+0x1354>
  105308:	e3a0102d 	mov	r1, #45	; 0x2d
  10530c:	e5cd106f 	strb	r1, [sp, #111]	; 0x6f
  105310:	eafffaa6 	b	103db0 <_vfprintf_r+0xd10>
  105314:	e59d301c 	ldr	r3, [sp, #28]
  105318:	e58d6020 	str	r6, [sp, #32]
  10531c:	e5dd106f 	ldrb	r1, [sp, #111]	; 0x6f
  105320:	e1a07003 	mov	r7, r3
  105324:	e1a04003 	mov	r4, r3
  105328:	e58d3044 	str	r3, [sp, #68]	; 0x44
  10532c:	e58d3040 	str	r3, [sp, #64]	; 0x40
  105330:	e58d3038 	str	r3, [sp, #56]	; 0x38
  105334:	e58d3024 	str	r3, [sp, #36]	; 0x24
  105338:	eafff8a6 	b	1035d8 <_vfprintf_r+0x538>
  10533c:	e59d3008 	ldr	r3, [sp, #8]
  105340:	e58d2008 	str	r2, [sp, #8]
  105344:	e58d3028 	str	r3, [sp, #40]	; 0x28
  105348:	e3a03000 	mov	r3, #0
  10534c:	e58d3024 	str	r3, [sp, #36]	; 0x24
  105350:	e3a0302d 	mov	r3, #45	; 0x2d
  105354:	eeb1cb48 	vneg.f64	d12, d8
  105358:	e58d302c 	str	r3, [sp, #44]	; 0x2c
  10535c:	eafffd75 	b	104938 <_vfprintf_r+0x1898>
  105360:	e28d3090 	add	r3, sp, #144	; 0x90
  105364:	e28d207c 	add	r2, sp, #124	; 0x7c
  105368:	e58d3004 	str	r3, [sp, #4]
  10536c:	e3a01003 	mov	r1, #3
  105370:	e28d3074 	add	r3, sp, #116	; 0x74
  105374:	e58d2000 	str	r2, [sp]
  105378:	eeb00b4c 	vmov.f64	d0, d12
  10537c:	e1a02004 	mov	r2, r4
  105380:	e1a0000b 	mov	r0, fp
  105384:	eb00046c 	bl	10653c <_dtoa_r>
  105388:	eeb5cb40 	vcmp.f64	d12, #0.0
  10538c:	eef1fa10 	vmrs	APSR_nzcv, fpscr
  105390:	e5d02000 	ldrb	r2, [r0]
  105394:	e1a03000 	mov	r3, r0
  105398:	13a03001 	movne	r3, #1
  10539c:	03a03000 	moveq	r3, #0
  1053a0:	e3520030 	cmp	r2, #48	; 0x30
  1053a4:	13a03000 	movne	r3, #0
  1053a8:	02033001 	andeq	r3, r3, #1
  1053ac:	e58d0010 	str	r0, [sp, #16]
  1053b0:	e3530000 	cmp	r3, #0
  1053b4:	059d3074 	ldreq	r3, [sp, #116]	; 0x74
  1053b8:	1a00017e 	bne	1059b8 <_vfprintf_r+0x2918>
  1053bc:	e0835004 	add	r5, r3, r4
  1053c0:	eafffd6e 	b	104980 <_vfprintf_r+0x18e0>
  1053c4:	e28d2098 	add	r2, sp, #152	; 0x98
  1053c8:	e59d100c 	ldr	r1, [sp, #12]
  1053cc:	e1a0000b 	mov	r0, fp
  1053d0:	eb001cd5 	bl	10c72c <__sprint_r>
  1053d4:	e3500000 	cmp	r0, #0
  1053d8:	1afff837 	bne	1034bc <_vfprintf_r+0x41c>
  1053dc:	e59d4074 	ldr	r4, [sp, #116]	; 0x74
  1053e0:	e28d90a4 	add	r9, sp, #164	; 0xa4
  1053e4:	e59d20a0 	ldr	r2, [sp, #160]	; 0xa0
  1053e8:	eafffdac 	b	104aa0 <_vfprintf_r+0x1a00>
  1053ec:	e28d0074 	add	r0, sp, #116	; 0x74
  1053f0:	eeb00b4c 	vmov.f64	d0, d12
  1053f4:	eb001997 	bl	10ba58 <frexp>
  1053f8:	e59d2030 	ldr	r2, [sp, #48]	; 0x30
  1053fc:	e30f05a8 	movw	r0, #62888	; 0xf5a8
  105400:	e2444001 	sub	r4, r4, #1
  105404:	e3400010 	movt	r0, #16
  105408:	ee200b0b 	vmul.f64	d0, d0, d11
  10540c:	eeb50b40 	vcmp.f64	d0, #0.0
  105410:	eef1fa10 	vmrs	APSR_nzcv, fpscr
  105414:	03a03001 	moveq	r3, #1
  105418:	058d3074 	streq	r3, [sp, #116]	; 0x74
  10541c:	e3520061 	cmp	r2, #97	; 0x61
  105420:	e30f3594 	movw	r3, #62868	; 0xf594
  105424:	e3403010 	movt	r3, #16
  105428:	e59d2010 	ldr	r2, [sp, #16]
  10542c:	01a00003 	moveq	r0, r3
  105430:	ea000003 	b	105444 <_vfprintf_r+0x23a4>
  105434:	eeb50b40 	vcmp.f64	d0, #0.0
  105438:	eef1fa10 	vmrs	APSR_nzcv, fpscr
  10543c:	0a00000c 	beq	105474 <_vfprintf_r+0x23d4>
  105440:	e1a02003 	mov	r2, r3
  105444:	ee200b09 	vmul.f64	d0, d0, d9
  105448:	e3740001 	cmn	r4, #1
  10544c:	e1a03002 	mov	r3, r2
  105450:	e1a0c004 	mov	ip, r4
  105454:	e2444001 	sub	r4, r4, #1
  105458:	eefd6bc0 	vcvt.s32.f64	s13, d0
  10545c:	ee161a90 	vmov	r1, s13
  105460:	eeb87be6 	vcvt.f64.s32	d7, s13
  105464:	ee300b47 	vsub.f64	d0, d0, d7
  105468:	e7d01001 	ldrb	r1, [r0, r1]
  10546c:	e4c31001 	strb	r1, [r3], #1
  105470:	1affffef 	bne	105434 <_vfprintf_r+0x2394>
  105474:	eeb40bca 	vcmpe.f64	d0, d10
  105478:	eef1fa10 	vmrs	APSR_nzcv, fpscr
  10547c:	ca000050 	bgt	1055c4 <_vfprintf_r+0x2524>
  105480:	eeb40b4a 	vcmp.f64	d0, d10
  105484:	eef1fa10 	vmrs	APSR_nzcv, fpscr
  105488:	1a000002 	bne	105498 <_vfprintf_r+0x23f8>
  10548c:	ee161a90 	vmov	r1, s13
  105490:	e3110001 	tst	r1, #1
  105494:	1a00004a 	bne	1055c4 <_vfprintf_r+0x2524>
  105498:	e35c0000 	cmp	ip, #0
  10549c:	a28c2001 	addge	r2, ip, #1
  1054a0:	a3a01030 	movge	r1, #48	; 0x30
  1054a4:	a0832002 	addge	r2, r3, r2
  1054a8:	ba000002 	blt	1054b8 <_vfprintf_r+0x2418>
  1054ac:	e4c31001 	strb	r1, [r3], #1
  1054b0:	e1520003 	cmp	r2, r3
  1054b4:	1afffffc 	bne	1054ac <_vfprintf_r+0x240c>
  1054b8:	e59d2010 	ldr	r2, [sp, #16]
  1054bc:	e0433002 	sub	r3, r3, r2
  1054c0:	e58d303c 	str	r3, [sp, #60]	; 0x3c
  1054c4:	e59d3074 	ldr	r3, [sp, #116]	; 0x74
  1054c8:	e58d3038 	str	r3, [sp, #56]	; 0x38
  1054cc:	eaffff26 	b	10516c <_vfprintf_r+0x20cc>
  1054d0:	e3a03000 	mov	r3, #0
  1054d4:	e28d2090 	add	r2, sp, #144	; 0x90
  1054d8:	e1a01003 	mov	r1, r3
  1054dc:	e58d2000 	str	r2, [sp]
  1054e0:	e1a0000b 	mov	r0, fp
  1054e4:	e28d207c 	add	r2, sp, #124	; 0x7c
  1054e8:	eb000203 	bl	105cfc <_wcsrtombs_r>
  1054ec:	e3700001 	cmn	r0, #1
  1054f0:	e58d001c 	str	r0, [sp, #28]
  1054f4:	0a0000bc 	beq	1057ec <_vfprintf_r+0x274c>
  1054f8:	e59d3010 	ldr	r3, [sp, #16]
  1054fc:	e58d307c 	str	r3, [sp, #124]	; 0x7c
  105500:	eafffda6 	b	104ba0 <_vfprintf_r+0x1b00>
  105504:	e3e03000 	mvn	r3, #0
  105508:	e58d3014 	str	r3, [sp, #20]
  10550c:	eafff7f4 	b	1034e4 <_vfprintf_r+0x444>
  105510:	e28d2098 	add	r2, sp, #152	; 0x98
  105514:	e59d100c 	ldr	r1, [sp, #12]
  105518:	e1a0000b 	mov	r0, fp
  10551c:	eb001c82 	bl	10c72c <__sprint_r>
  105520:	e3500000 	cmp	r0, #0
  105524:	1afff7e4 	bne	1034bc <_vfprintf_r+0x41c>
  105528:	e59d4074 	ldr	r4, [sp, #116]	; 0x74
  10552c:	e28d90a4 	add	r9, sp, #164	; 0xa4
  105530:	e59d20a0 	ldr	r2, [sp, #160]	; 0xa0
  105534:	e59d309c 	ldr	r3, [sp, #156]	; 0x9c
  105538:	eafffd67 	b	104adc <_vfprintf_r+0x1a3c>
  10553c:	e59d3008 	ldr	r3, [sp, #8]
  105540:	e3130001 	tst	r3, #1
  105544:	0afff8bf 	beq	103848 <_vfprintf_r+0x7a8>
  105548:	eafffd57 	b	104aac <_vfprintf_r+0x1a0c>
  10554c:	e59d3038 	ldr	r3, [sp, #56]	; 0x38
  105550:	e59d2048 	ldr	r2, [sp, #72]	; 0x48
  105554:	e3530000 	cmp	r3, #0
  105558:	e59d303c 	ldr	r3, [sp, #60]	; 0x3c
  10555c:	e0833002 	add	r3, r3, r2
  105560:	e58d301c 	str	r3, [sp, #28]
  105564:	c3a03067 	movgt	r3, #103	; 0x67
  105568:	c58d3030 	strgt	r3, [sp, #48]	; 0x30
  10556c:	cafffd28 	bgt	104a14 <_vfprintf_r+0x1974>
  105570:	e59d3038 	ldr	r3, [sp, #56]	; 0x38
  105574:	e3a02067 	mov	r2, #103	; 0x67
  105578:	e58d2030 	str	r2, [sp, #48]	; 0x30
  10557c:	e59d201c 	ldr	r2, [sp, #28]
  105580:	e2633001 	rsb	r3, r3, #1
  105584:	e0823003 	add	r3, r2, r3
  105588:	e58d301c 	str	r3, [sp, #28]
  10558c:	e1c37fc3 	bic	r7, r3, r3, asr #31
  105590:	eafffd24 	b	104a28 <_vfprintf_r+0x1988>
  105594:	e59d3054 	ldr	r3, [sp, #84]	; 0x54
  105598:	e3a05000 	mov	r5, #0
  10559c:	e59d1058 	ldr	r1, [sp, #88]	; 0x58
  1055a0:	e0488003 	sub	r8, r8, r3
  1055a4:	e1a02003 	mov	r2, r3
  1055a8:	e1a00008 	mov	r0, r8
  1055ac:	eb001b87 	bl	10c3d0 <strncpy>
  1055b0:	e5db3001 	ldrb	r3, [fp, #1]
  1055b4:	e1530005 	cmp	r3, r5
  1055b8:	128bb001 	addne	fp, fp, #1
  1055bc:	01a05003 	moveq	r5, r3
  1055c0:	eafffdc1 	b	104ccc <_vfprintf_r+0x1c2c>
  1055c4:	e58d2090 	str	r2, [sp, #144]	; 0x90
  1055c8:	e1a02003 	mov	r2, r3
  1055cc:	e5d0c00f 	ldrb	ip, [r0, #15]
  1055d0:	e5531001 	ldrb	r1, [r3, #-1]
  1055d4:	e15c0001 	cmp	ip, r1
  1055d8:	1a000007 	bne	1055fc <_vfprintf_r+0x255c>
  1055dc:	e3a0e030 	mov	lr, #48	; 0x30
  1055e0:	e542e001 	strb	lr, [r2, #-1]
  1055e4:	e59d2090 	ldr	r2, [sp, #144]	; 0x90
  1055e8:	e2421001 	sub	r1, r2, #1
  1055ec:	e58d1090 	str	r1, [sp, #144]	; 0x90
  1055f0:	e5521001 	ldrb	r1, [r2, #-1]
  1055f4:	e15c0001 	cmp	ip, r1
  1055f8:	0afffff8 	beq	1055e0 <_vfprintf_r+0x2540>
  1055fc:	e3510039 	cmp	r1, #57	; 0x39
  105600:	12811001 	addne	r1, r1, #1
  105604:	05d0100a 	ldrbeq	r1, [r0, #10]
  105608:	16ef1071 	uxtbne	r1, r1
  10560c:	e5421001 	strb	r1, [r2, #-1]
  105610:	eaffffa8 	b	1054b8 <_vfprintf_r+0x2418>
  105614:	e3a03067 	mov	r3, #103	; 0x67
  105618:	e58d3030 	str	r3, [sp, #48]	; 0x30
  10561c:	e59d0060 	ldr	r0, [sp, #96]	; 0x60
  105620:	e3a02000 	mov	r2, #0
  105624:	e58d2044 	str	r2, [sp, #68]	; 0x44
  105628:	e58d2040 	str	r2, [sp, #64]	; 0x40
  10562c:	e5d03000 	ldrb	r3, [r0]
  105630:	e59d2038 	ldr	r2, [sp, #56]	; 0x38
  105634:	ea00000c 	b	10566c <_vfprintf_r+0x25cc>
  105638:	e1530002 	cmp	r3, r2
  10563c:	aa00000c 	bge	105674 <_vfprintf_r+0x25d4>
  105640:	e5d01001 	ldrb	r1, [r0, #1]
  105644:	e0422003 	sub	r2, r2, r3
  105648:	e3510000 	cmp	r1, #0
  10564c:	12800001 	addne	r0, r0, #1
  105650:	159d3040 	ldrne	r3, [sp, #64]	; 0x40
  105654:	059d1044 	ldreq	r1, [sp, #68]	; 0x44
  105658:	12833001 	addne	r3, r3, #1
  10565c:	158d3040 	strne	r3, [sp, #64]	; 0x40
  105660:	11a03001 	movne	r3, r1
  105664:	02811001 	addeq	r1, r1, #1
  105668:	058d1044 	streq	r1, [sp, #68]	; 0x44
  10566c:	e35300ff 	cmp	r3, #255	; 0xff
  105670:	1afffff0 	bne	105638 <_vfprintf_r+0x2598>
  105674:	e58d2038 	str	r2, [sp, #56]	; 0x38
  105678:	e1cd24d0 	ldrd	r2, [sp, #64]	; 0x40
  10567c:	e59d101c 	ldr	r1, [sp, #28]
  105680:	e0833002 	add	r3, r3, r2
  105684:	e59d2054 	ldr	r2, [sp, #84]	; 0x54
  105688:	e58d0060 	str	r0, [sp, #96]	; 0x60
  10568c:	e0231392 	mla	r3, r2, r3, r1
  105690:	e58d301c 	str	r3, [sp, #28]
  105694:	e1c37fc3 	bic	r7, r3, r3, asr #31
  105698:	eafffce5 	b	104a34 <_vfprintf_r+0x1994>
  10569c:	e3740010 	cmn	r4, #16
  1056a0:	e2644000 	rsb	r4, r4, #0
  1056a4:	aa000055 	bge	105800 <_vfprintf_r+0x2760>
  1056a8:	e3a05010 	mov	r5, #16
  1056ac:	e59d600c 	ldr	r6, [sp, #12]
  1056b0:	ea000002 	b	1056c0 <_vfprintf_r+0x2620>
  1056b4:	e2444010 	sub	r4, r4, #16
  1056b8:	e3540010 	cmp	r4, #16
  1056bc:	da00004f 	ble	105800 <_vfprintf_r+0x2760>
  1056c0:	e2833001 	add	r3, r3, #1
  1056c4:	e59f130c 	ldr	r1, [pc, #780]	; 1059d8 <_vfprintf_r+0x2938>
  1056c8:	e3530007 	cmp	r3, #7
  1056cc:	e2822010 	add	r2, r2, #16
  1056d0:	e58d309c 	str	r3, [sp, #156]	; 0x9c
  1056d4:	e8890022 	stm	r9, {r1, r5}
  1056d8:	d2899008 	addle	r9, r9, #8
  1056dc:	e58d20a0 	str	r2, [sp, #160]	; 0xa0
  1056e0:	dafffff3 	ble	1056b4 <_vfprintf_r+0x2614>
  1056e4:	e28d2098 	add	r2, sp, #152	; 0x98
  1056e8:	e1a01006 	mov	r1, r6
  1056ec:	e1a0000b 	mov	r0, fp
  1056f0:	e28d90a4 	add	r9, sp, #164	; 0xa4
  1056f4:	eb001c0c 	bl	10c72c <__sprint_r>
  1056f8:	e3500000 	cmp	r0, #0
  1056fc:	1afff76e 	bne	1034bc <_vfprintf_r+0x41c>
  105700:	e59d20a0 	ldr	r2, [sp, #160]	; 0xa0
  105704:	e59d309c 	ldr	r3, [sp, #156]	; 0x9c
  105708:	eaffffe9 	b	1056b4 <_vfprintf_r+0x2614>
  10570c:	e3a03000 	mov	r3, #0
  105710:	e58d3024 	str	r3, [sp, #36]	; 0x24
  105714:	e28d30e4 	add	r3, sp, #228	; 0xe4
  105718:	e58d3010 	str	r3, [sp, #16]
  10571c:	eafffd2c 	b	104bd4 <_vfprintf_r+0x1b34>
  105720:	e3530000 	cmp	r3, #0
  105724:	baffff04 	blt	10533c <_vfprintf_r+0x229c>
  105728:	e59d1008 	ldr	r1, [sp, #8]
  10572c:	e3a03000 	mov	r3, #0
  105730:	e58d2008 	str	r2, [sp, #8]
  105734:	eeb0cb48 	vmov.f64	d12, d8
  105738:	e58d302c 	str	r3, [sp, #44]	; 0x2c
  10573c:	e58d1028 	str	r1, [sp, #40]	; 0x28
  105740:	e58d3024 	str	r3, [sp, #36]	; 0x24
  105744:	eafffc7d 	b	104940 <_vfprintf_r+0x18a0>
  105748:	e59d1008 	ldr	r1, [sp, #8]
  10574c:	e3a04006 	mov	r4, #6
  105750:	e58d2008 	str	r2, [sp, #8]
  105754:	e58d1028 	str	r1, [sp, #40]	; 0x28
  105758:	e3a01000 	mov	r1, #0
  10575c:	e58d1024 	str	r1, [sp, #36]	; 0x24
  105760:	eafffc6f 	b	104924 <_vfprintf_r+0x1884>
  105764:	e28d3090 	add	r3, sp, #144	; 0x90
  105768:	e28d207c 	add	r2, sp, #124	; 0x7c
  10576c:	e58d3004 	str	r3, [sp, #4]
  105770:	e3a01002 	mov	r1, #2
  105774:	e58d2000 	str	r2, [sp]
  105778:	e28d3074 	add	r3, sp, #116	; 0x74
  10577c:	e1a02004 	mov	r2, r4
  105780:	eeb00b4c 	vmov.f64	d0, d12
  105784:	e1a0000b 	mov	r0, fp
  105788:	eb00036b 	bl	10653c <_dtoa_r>
  10578c:	e3560047 	cmp	r6, #71	; 0x47
  105790:	e58d0010 	str	r0, [sp, #16]
  105794:	1a000074 	bne	10596c <_vfprintf_r+0x28cc>
  105798:	e59d3028 	ldr	r3, [sp, #40]	; 0x28
  10579c:	e3130001 	tst	r3, #1
  1057a0:	059d3090 	ldreq	r3, [sp, #144]	; 0x90
  1057a4:	0afffc85 	beq	1049c0 <_vfprintf_r+0x1920>
  1057a8:	e59d3010 	ldr	r3, [sp, #16]
  1057ac:	e0835004 	add	r5, r3, r4
  1057b0:	eafffc74 	b	104988 <_vfprintf_r+0x18e8>
  1057b4:	e2841001 	add	r1, r4, #1
  1057b8:	e1a0000b 	mov	r0, fp
  1057bc:	eb000f6f 	bl	109580 <_malloc_r>
  1057c0:	e2502000 	subs	r2, r0, #0
  1057c4:	e58d2010 	str	r2, [sp, #16]
  1057c8:	0a000007 	beq	1057ec <_vfprintf_r+0x274c>
  1057cc:	e59d3008 	ldr	r3, [sp, #8]
  1057d0:	e58d2024 	str	r2, [sp, #36]	; 0x24
  1057d4:	e3833c01 	orr	r3, r3, #256	; 0x100
  1057d8:	e1a01003 	mov	r1, r3
  1057dc:	ee183a90 	vmov	r3, s17
  1057e0:	e3811002 	orr	r1, r1, #2
  1057e4:	e58d1008 	str	r1, [sp, #8]
  1057e8:	eafffc4d 	b	104924 <_vfprintf_r+0x1884>
  1057ec:	e59d200c 	ldr	r2, [sp, #12]
  1057f0:	e1d230fc 	ldrsh	r3, [r2, #12]
  1057f4:	e3833040 	orr	r3, r3, #64	; 0x40
  1057f8:	e1c230bc 	strh	r3, [r2, #12]
  1057fc:	eafff736 	b	1034dc <_vfprintf_r+0x43c>
  105800:	e2833001 	add	r3, r3, #1
  105804:	e59f11cc 	ldr	r1, [pc, #460]	; 1059d8 <_vfprintf_r+0x2938>
  105808:	e3530007 	cmp	r3, #7
  10580c:	e0822004 	add	r2, r2, r4
  105810:	e58d309c 	str	r3, [sp, #156]	; 0x9c
  105814:	e8890012 	stm	r9, {r1, r4}
  105818:	d2899008 	addle	r9, r9, #8
  10581c:	e58d20a0 	str	r2, [sp, #160]	; 0xa0
  105820:	dafffcaf 	ble	104ae4 <_vfprintf_r+0x1a44>
  105824:	e28d2098 	add	r2, sp, #152	; 0x98
  105828:	e59d100c 	ldr	r1, [sp, #12]
  10582c:	e1a0000b 	mov	r0, fp
  105830:	eb001bbd 	bl	10c72c <__sprint_r>
  105834:	e3500000 	cmp	r0, #0
  105838:	1afff71f 	bne	1034bc <_vfprintf_r+0x41c>
  10583c:	e59d20a0 	ldr	r2, [sp, #160]	; 0xa0
  105840:	e28d90a4 	add	r9, sp, #164	; 0xa4
  105844:	e59d309c 	ldr	r3, [sp, #156]	; 0x9c
  105848:	eafffca5 	b	104ae4 <_vfprintf_r+0x1a44>
  10584c:	e59d1008 	ldr	r1, [sp, #8]
  105850:	e3a03000 	mov	r3, #0
  105854:	e1a04003 	mov	r4, r3
  105858:	e58d3024 	str	r3, [sp, #36]	; 0x24
  10585c:	e3c11080 	bic	r1, r1, #128	; 0x80
  105860:	e58d1008 	str	r1, [sp, #8]
  105864:	e59d1030 	ldr	r1, [sp, #48]	; 0x30
  105868:	e30f358c 	movw	r3, #62860	; 0xf58c
  10586c:	e3403010 	movt	r3, #16
  105870:	e30f2590 	movw	r2, #62864	; 0xf590
  105874:	e3510047 	cmp	r1, #71	; 0x47
  105878:	e3402010 	movt	r2, #16
  10587c:	e3a07003 	mov	r7, #3
  105880:	e58d4044 	str	r4, [sp, #68]	; 0x44
  105884:	d1a02003 	movle	r2, r3
  105888:	e58d4040 	str	r4, [sp, #64]	; 0x40
  10588c:	e58d4038 	str	r4, [sp, #56]	; 0x38
  105890:	e58d2010 	str	r2, [sp, #16]
  105894:	e58d701c 	str	r7, [sp, #28]
  105898:	e5dd106f 	ldrb	r1, [sp, #111]	; 0x6f
  10589c:	eafff74d 	b	1035d8 <_vfprintf_r+0x538>
  1058a0:	e1a07004 	mov	r7, r4
  1058a4:	e58d401c 	str	r4, [sp, #28]
  1058a8:	e58d6020 	str	r6, [sp, #32]
  1058ac:	e1a04003 	mov	r4, r3
  1058b0:	e58d3044 	str	r3, [sp, #68]	; 0x44
  1058b4:	e58d3040 	str	r3, [sp, #64]	; 0x40
  1058b8:	e5dd106f 	ldrb	r1, [sp, #111]	; 0x6f
  1058bc:	eafff745 	b	1035d8 <_vfprintf_r+0x538>
  1058c0:	e59d3038 	ldr	r3, [sp, #56]	; 0x38
  1058c4:	e58d301c 	str	r3, [sp, #28]
  1058c8:	eafffe7a 	b	1052b8 <_vfprintf_r+0x2218>
  1058cc:	e59d3038 	ldr	r3, [sp, #56]	; 0x38
  1058d0:	e59d2048 	ldr	r2, [sp, #72]	; 0x48
  1058d4:	e0837002 	add	r7, r3, r2
  1058d8:	e3a03066 	mov	r3, #102	; 0x66
  1058dc:	e58d3030 	str	r3, [sp, #48]	; 0x30
  1058e0:	e0873004 	add	r3, r7, r4
  1058e4:	e58d301c 	str	r3, [sp, #28]
  1058e8:	eafffc49 	b	104a14 <_vfprintf_r+0x1974>
  1058ec:	e3560041 	cmp	r6, #65	; 0x41
  1058f0:	e2833030 	add	r3, r3, #48	; 0x30
  1058f4:	028d2082 	addeq	r2, sp, #130	; 0x82
  1058f8:	13a02030 	movne	r2, #48	; 0x30
  1058fc:	15cd2082 	strbne	r2, [sp, #130]	; 0x82
  105900:	128d2083 	addne	r2, sp, #131	; 0x83
  105904:	e2822001 	add	r2, r2, #1
  105908:	e5423001 	strb	r3, [r2, #-1]
  10590c:	e28d3080 	add	r3, sp, #128	; 0x80
  105910:	eafffe48 	b	105238 <_vfprintf_r+0x2198>
  105914:	e3540000 	cmp	r4, #0
  105918:	1a000015 	bne	105974 <_vfprintf_r+0x28d4>
  10591c:	e59d3028 	ldr	r3, [sp, #40]	; 0x28
  105920:	e3130001 	tst	r3, #1
  105924:	1a000012 	bne	105974 <_vfprintf_r+0x28d4>
  105928:	e3a07001 	mov	r7, #1
  10592c:	e3a03066 	mov	r3, #102	; 0x66
  105930:	e58d701c 	str	r7, [sp, #28]
  105934:	e58d3030 	str	r3, [sp, #48]	; 0x30
  105938:	eafffc3a 	b	104a28 <_vfprintf_r+0x1988>
  10593c:	e59d1008 	ldr	r1, [sp, #8]
  105940:	e58d4024 	str	r4, [sp, #36]	; 0x24
  105944:	e3a04001 	mov	r4, #1
  105948:	e58d2008 	str	r2, [sp, #8]
  10594c:	e58d1028 	str	r1, [sp, #40]	; 0x28
  105950:	eafffbf3 	b	104924 <_vfprintf_r+0x1884>
  105954:	e59d3028 	ldr	r3, [sp, #40]	; 0x28
  105958:	e3130001 	tst	r3, #1
  10595c:	0afffe40 	beq	105264 <_vfprintf_r+0x21c4>
  105960:	eafffe3b 	b	105254 <_vfprintf_r+0x21b4>
  105964:	e1a03009 	mov	r3, r9
  105968:	eafffcfb 	b	104d5c <_vfprintf_r+0x1cbc>
  10596c:	e1a05004 	mov	r5, r4
  105970:	eafffc02 	b	104980 <_vfprintf_r+0x18e0>
  105974:	e59d3048 	ldr	r3, [sp, #72]	; 0x48
  105978:	e2837001 	add	r7, r3, #1
  10597c:	e3a03066 	mov	r3, #102	; 0x66
  105980:	e58d3030 	str	r3, [sp, #48]	; 0x30
  105984:	e0873004 	add	r3, r7, r4
  105988:	e58d301c 	str	r3, [sp, #28]
  10598c:	e1c37fc3 	bic	r7, r3, r3, asr #31
  105990:	eafffc24 	b	104a28 <_vfprintf_r+0x1988>
  105994:	e59d3020 	ldr	r3, [sp, #32]
  105998:	e2833004 	add	r3, r3, #4
  10599c:	e5134004 	ldr	r4, [r3, #-4]
  1059a0:	e58d3020 	str	r3, [sp, #32]
  1059a4:	e1540006 	cmp	r4, r6
  1059a8:	e5d83001 	ldrb	r3, [r8, #1]
  1059ac:	e1a08001 	mov	r8, r1
  1059b0:	b1a04006 	movlt	r4, r6
  1059b4:	eafff64c 	b	1032ec <_vfprintf_r+0x24c>
  1059b8:	e2643001 	rsb	r3, r4, #1
  1059bc:	e58d3074 	str	r3, [sp, #116]	; 0x74
  1059c0:	eafffe7d 	b	1053bc <_vfprintf_r+0x231c>
  1059c4:	e58d301c 	str	r3, [sp, #28]
  1059c8:	eafffdba 	b	1050b8 <_vfprintf_r+0x2018>
  1059cc:	e28d2082 	add	r2, sp, #130	; 0x82
  1059d0:	e28d3080 	add	r3, sp, #128	; 0x80
  1059d4:	eafffe17 	b	105238 <_vfprintf_r+0x2198>
  1059d8:	0010f21c 	.word	0x0010f21c

001059dc <vfprintf>:
  1059dc:	e30fc740 	movw	ip, #63296	; 0xf740
  1059e0:	e340c010 	movt	ip, #16
  1059e4:	e1a03002 	mov	r3, r2
  1059e8:	e1a02001 	mov	r2, r1
  1059ec:	e1a01000 	mov	r1, r0
  1059f0:	e59c0000 	ldr	r0, [ip]
  1059f4:	eafff5a9 	b	1030a0 <_vfprintf_r>

001059f8 <__sbprintf>:
  1059f8:	e92d40f0 	push	{r4, r5, r6, r7, lr}
  1059fc:	e1a04001 	mov	r4, r1
  105a00:	e24dde46 	sub	sp, sp, #1120	; 0x460
  105a04:	e1d4e0be 	ldrh	lr, [r4, #14]
  105a08:	e24dd00c 	sub	sp, sp, #12
  105a0c:	e5946064 	ldr	r6, [r4, #100]	; 0x64
  105a10:	e1d4c0bc 	ldrh	ip, [r4, #12]
  105a14:	e1a07000 	mov	r7, r0
  105a18:	e1a0500d 	mov	r5, sp
  105a1c:	e1c5e0be 	strh	lr, [r5, #14]
  105a20:	e1a01005 	mov	r1, r5
  105a24:	e594e01c 	ldr	lr, [r4, #28]
  105a28:	e3ccc002 	bic	ip, ip, #2
  105a2c:	e58d6064 	str	r6, [sp, #100]	; 0x64
  105a30:	e5946024 	ldr	r6, [r4, #36]	; 0x24
  105a34:	e1c5c0bc 	strh	ip, [r5, #12]
  105a38:	e3a0cb01 	mov	ip, #1024	; 0x400
  105a3c:	e58de01c 	str	lr, [sp, #28]
  105a40:	e28de068 	add	lr, sp, #104	; 0x68
  105a44:	e58d6024 	str	r6, [sp, #36]	; 0x24
  105a48:	e58de000 	str	lr, [sp]
  105a4c:	e58de010 	str	lr, [sp, #16]
  105a50:	e3a0e000 	mov	lr, #0
  105a54:	e58dc008 	str	ip, [sp, #8]
  105a58:	e58dc014 	str	ip, [sp, #20]
  105a5c:	e58de018 	str	lr, [sp, #24]
  105a60:	ebfff58e 	bl	1030a0 <_vfprintf_r>
  105a64:	e2506000 	subs	r6, r0, #0
  105a68:	ba000004 	blt	105a80 <__sbprintf+0x88>
  105a6c:	e1a01005 	mov	r1, r5
  105a70:	e1a00007 	mov	r0, r7
  105a74:	eb0007c4 	bl	10798c <_fflush_r>
  105a78:	e3500000 	cmp	r0, #0
  105a7c:	13e06000 	mvnne	r6, #0
  105a80:	e1dd30bc 	ldrh	r3, [sp, #12]
  105a84:	e1a00006 	mov	r0, r6
  105a88:	e3130040 	tst	r3, #64	; 0x40
  105a8c:	11d430bc 	ldrhne	r3, [r4, #12]
  105a90:	13833040 	orrne	r3, r3, #64	; 0x40
  105a94:	11c430bc 	strhne	r3, [r4, #12]
  105a98:	e28dde46 	add	sp, sp, #1120	; 0x460
  105a9c:	e28dd00c 	add	sp, sp, #12
  105aa0:	e8bd80f0 	pop	{r4, r5, r6, r7, pc}

00105aa4 <__swbuf_r>:
  105aa4:	e92d41f0 	push	{r4, r5, r6, r7, r8, lr}
  105aa8:	e2506000 	subs	r6, r0, #0
  105aac:	e1a05001 	mov	r5, r1
  105ab0:	e1a04002 	mov	r4, r2
  105ab4:	0a000002 	beq	105ac4 <__swbuf_r+0x20>
  105ab8:	e5963038 	ldr	r3, [r6, #56]	; 0x38
  105abc:	e3530000 	cmp	r3, #0
  105ac0:	0a000030 	beq	105b88 <__swbuf_r+0xe4>
  105ac4:	e1d420fc 	ldrsh	r2, [r4, #12]
  105ac8:	e5943018 	ldr	r3, [r4, #24]
  105acc:	e6ff1072 	uxth	r1, r2
  105ad0:	e3110008 	tst	r1, #8
  105ad4:	e5843008 	str	r3, [r4, #8]
  105ad8:	0a000021 	beq	105b64 <__swbuf_r+0xc0>
  105adc:	e5943010 	ldr	r3, [r4, #16]
  105ae0:	e3530000 	cmp	r3, #0
  105ae4:	0a00001e 	beq	105b64 <__swbuf_r+0xc0>
  105ae8:	e3110a02 	tst	r1, #8192	; 0x2000
  105aec:	e6ef5075 	uxtb	r5, r5
  105af0:	03822a02 	orreq	r2, r2, #8192	; 0x2000
  105af4:	01c420bc 	strheq	r2, [r4, #12]
  105af8:	05941064 	ldreq	r1, [r4, #100]	; 0x64
  105afc:	e1a07005 	mov	r7, r5
  105b00:	03c12a02 	biceq	r2, r1, #8192	; 0x2000
  105b04:	05842064 	streq	r2, [r4, #100]	; 0x64
  105b08:	e5942000 	ldr	r2, [r4]
  105b0c:	e5941014 	ldr	r1, [r4, #20]
  105b10:	e0423003 	sub	r3, r2, r3
  105b14:	e1510003 	cmp	r1, r3
  105b18:	c2833001 	addgt	r3, r3, #1
  105b1c:	da000022 	ble	105bac <__swbuf_r+0x108>
  105b20:	e5941008 	ldr	r1, [r4, #8]
  105b24:	e2820001 	add	r0, r2, #1
  105b28:	e5840000 	str	r0, [r4]
  105b2c:	e2411001 	sub	r1, r1, #1
  105b30:	e5841008 	str	r1, [r4, #8]
  105b34:	e5c25000 	strb	r5, [r2]
  105b38:	e5942014 	ldr	r2, [r4, #20]
  105b3c:	e1520003 	cmp	r2, r3
  105b40:	0a000012 	beq	105b90 <__swbuf_r+0xec>
  105b44:	e1d430bc 	ldrh	r3, [r4, #12]
  105b48:	e355000a 	cmp	r5, #10
  105b4c:	13a05000 	movne	r5, #0
  105b50:	02035001 	andeq	r5, r3, #1
  105b54:	e3550000 	cmp	r5, #0
  105b58:	1a00000c 	bne	105b90 <__swbuf_r+0xec>
  105b5c:	e1a00007 	mov	r0, r7
  105b60:	e8bd81f0 	pop	{r4, r5, r6, r7, r8, pc}
  105b64:	e1a01004 	mov	r1, r4
  105b68:	e1a00006 	mov	r0, r6
  105b6c:	eb000157 	bl	1060d0 <__swsetup_r>
  105b70:	e3500000 	cmp	r0, #0
  105b74:	1a00000a 	bne	105ba4 <__swbuf_r+0x100>
  105b78:	e1d420fc 	ldrsh	r2, [r4, #12]
  105b7c:	e5943010 	ldr	r3, [r4, #16]
  105b80:	e6ff1072 	uxth	r1, r2
  105b84:	eaffffd7 	b	105ae8 <__swbuf_r+0x44>
  105b88:	eb00084c 	bl	107cc0 <__sinit>
  105b8c:	eaffffcc 	b	105ac4 <__swbuf_r+0x20>
  105b90:	e1a01004 	mov	r1, r4
  105b94:	e1a00006 	mov	r0, r6
  105b98:	eb00077b 	bl	10798c <_fflush_r>
  105b9c:	e3500000 	cmp	r0, #0
  105ba0:	0affffed 	beq	105b5c <__swbuf_r+0xb8>
  105ba4:	e3e07000 	mvn	r7, #0
  105ba8:	eaffffeb 	b	105b5c <__swbuf_r+0xb8>
  105bac:	e1a01004 	mov	r1, r4
  105bb0:	e1a00006 	mov	r0, r6
  105bb4:	eb000774 	bl	10798c <_fflush_r>
  105bb8:	e3500000 	cmp	r0, #0
  105bbc:	1afffff8 	bne	105ba4 <__swbuf_r+0x100>
  105bc0:	e5942000 	ldr	r2, [r4]
  105bc4:	e3a03001 	mov	r3, #1
  105bc8:	eaffffd4 	b	105b20 <__swbuf_r+0x7c>

00105bcc <__swbuf>:
  105bcc:	e30f3740 	movw	r3, #63296	; 0xf740
  105bd0:	e3403010 	movt	r3, #16
  105bd4:	e1a02001 	mov	r2, r1
  105bd8:	e1a01000 	mov	r1, r0
  105bdc:	e5930000 	ldr	r0, [r3]
  105be0:	eaffffaf 	b	105aa4 <__swbuf_r>

00105be4 <_wcrtomb_r>:
  105be4:	e92d41f0 	push	{r4, r5, r6, r7, r8, lr}
  105be8:	e2536000 	subs	r6, r3, #0
  105bec:	02806f45 	addeq	r6, r0, #276	; 0x114
  105bf0:	e30f3b70 	movw	r3, #64368	; 0xfb70
  105bf4:	e3510000 	cmp	r1, #0
  105bf8:	e3403010 	movt	r3, #16
  105bfc:	e24dd018 	sub	sp, sp, #24
  105c00:	e1a05000 	mov	r5, r0
  105c04:	e1a04001 	mov	r4, r1
  105c08:	e1a08002 	mov	r8, r2
  105c0c:	e5937000 	ldr	r7, [r3]
  105c10:	0a00000d 	beq	105c4c <_wcrtomb_r+0x68>
  105c14:	eb000de1 	bl	1093a0 <__locale_charset>
  105c18:	e58d6000 	str	r6, [sp]
  105c1c:	e1a02008 	mov	r2, r8
  105c20:	e1a01004 	mov	r1, r4
  105c24:	e1a03000 	mov	r3, r0
  105c28:	e1a00005 	mov	r0, r5
  105c2c:	e12fff37 	blx	r7
  105c30:	e3700001 	cmn	r0, #1
  105c34:	03a02000 	moveq	r2, #0
  105c38:	03a0308a 	moveq	r3, #138	; 0x8a
  105c3c:	05862000 	streq	r2, [r6]
  105c40:	05853000 	streq	r3, [r5]
  105c44:	e28dd018 	add	sp, sp, #24
  105c48:	e8bd81f0 	pop	{r4, r5, r6, r7, r8, pc}
  105c4c:	eb000dd3 	bl	1093a0 <__locale_charset>
  105c50:	e58d6000 	str	r6, [sp]
  105c54:	e1a02004 	mov	r2, r4
  105c58:	e28d100c 	add	r1, sp, #12
  105c5c:	e1a03000 	mov	r3, r0
  105c60:	e1a00005 	mov	r0, r5
  105c64:	e12fff37 	blx	r7
  105c68:	eafffff0 	b	105c30 <_wcrtomb_r+0x4c>

00105c6c <wcrtomb>:
  105c6c:	e30f3740 	movw	r3, #63296	; 0xf740
  105c70:	e3403010 	movt	r3, #16
  105c74:	e92d41f0 	push	{r4, r5, r6, r7, r8, lr}
  105c78:	e2526000 	subs	r6, r2, #0
  105c7c:	e5935000 	ldr	r5, [r3]
  105c80:	e30f3b70 	movw	r3, #64368	; 0xfb70
  105c84:	e3403010 	movt	r3, #16
  105c88:	e24dd018 	sub	sp, sp, #24
  105c8c:	02856f45 	addeq	r6, r5, #276	; 0x114
  105c90:	e3500000 	cmp	r0, #0
  105c94:	e1a04000 	mov	r4, r0
  105c98:	e1a08001 	mov	r8, r1
  105c9c:	e5937000 	ldr	r7, [r3]
  105ca0:	0a00000d 	beq	105cdc <wcrtomb+0x70>
  105ca4:	eb000dbd 	bl	1093a0 <__locale_charset>
  105ca8:	e58d6000 	str	r6, [sp]
  105cac:	e1a02008 	mov	r2, r8
  105cb0:	e1a01004 	mov	r1, r4
  105cb4:	e1a03000 	mov	r3, r0
  105cb8:	e1a00005 	mov	r0, r5
  105cbc:	e12fff37 	blx	r7
  105cc0:	e3700001 	cmn	r0, #1
  105cc4:	03a02000 	moveq	r2, #0
  105cc8:	03a0308a 	moveq	r3, #138	; 0x8a
  105ccc:	05862000 	streq	r2, [r6]
  105cd0:	05853000 	streq	r3, [r5]
  105cd4:	e28dd018 	add	sp, sp, #24
  105cd8:	e8bd81f0 	pop	{r4, r5, r6, r7, r8, pc}
  105cdc:	eb000daf 	bl	1093a0 <__locale_charset>
  105ce0:	e58d6000 	str	r6, [sp]
  105ce4:	e1a02004 	mov	r2, r4
  105ce8:	e28d100c 	add	r1, sp, #12
  105cec:	e1a03000 	mov	r3, r0
  105cf0:	e1a00005 	mov	r0, r5
  105cf4:	e12fff37 	blx	r7
  105cf8:	eafffff0 	b	105cc0 <wcrtomb+0x54>

00105cfc <_wcsrtombs_r>:
  105cfc:	e52de004 	push	{lr}		; (str lr, [sp, #-4]!)
  105d00:	e24dd00c 	sub	sp, sp, #12
  105d04:	e59dc010 	ldr	ip, [sp, #16]
  105d08:	e58d3000 	str	r3, [sp]
  105d0c:	e3e03000 	mvn	r3, #0
  105d10:	e58dc004 	str	ip, [sp, #4]
  105d14:	eb002065 	bl	10deb0 <_wcsnrtombs_r>
  105d18:	e28dd00c 	add	sp, sp, #12
  105d1c:	e49df004 	pop	{pc}		; (ldr pc, [sp], #4)

00105d20 <wcsrtombs>:
  105d20:	e52de004 	push	{lr}		; (str lr, [sp, #-4]!)
  105d24:	e30fc740 	movw	ip, #63296	; 0xf740
  105d28:	e24dd00c 	sub	sp, sp, #12
  105d2c:	e340c010 	movt	ip, #16
  105d30:	e58d2000 	str	r2, [sp]
  105d34:	e1a02001 	mov	r2, r1
  105d38:	e59cc000 	ldr	ip, [ip]
  105d3c:	e1a01000 	mov	r1, r0
  105d40:	e58d3004 	str	r3, [sp, #4]
  105d44:	e3e03000 	mvn	r3, #0
  105d48:	e1a0000c 	mov	r0, ip
  105d4c:	eb002057 	bl	10deb0 <_wcsnrtombs_r>
  105d50:	e28dd00c 	add	sp, sp, #12
  105d54:	e49df004 	pop	{pc}		; (ldr pc, [sp], #4)

00105d58 <__ascii_wctomb>:
  105d58:	e3510000 	cmp	r1, #0
  105d5c:	0a000005 	beq	105d78 <__ascii_wctomb+0x20>
  105d60:	e35200ff 	cmp	r2, #255	; 0xff
  105d64:	95c12000 	strbls	r2, [r1]
  105d68:	83e01000 	mvnhi	r1, #0
  105d6c:	93a01001 	movls	r1, #1
  105d70:	83a0308a 	movhi	r3, #138	; 0x8a
  105d74:	85803000 	strhi	r3, [r0]
  105d78:	e1a00001 	mov	r0, r1
  105d7c:	e12fff1e 	bx	lr

00105d80 <_wctomb_r>:
  105d80:	e30fcb70 	movw	ip, #64368	; 0xfb70
  105d84:	e340c010 	movt	ip, #16
  105d88:	e92d41f0 	push	{r4, r5, r6, r7, r8, lr}
  105d8c:	e24dd008 	sub	sp, sp, #8
  105d90:	e1a08003 	mov	r8, r3
  105d94:	e1a05000 	mov	r5, r0
  105d98:	e1a06001 	mov	r6, r1
  105d9c:	e1a07002 	mov	r7, r2
  105da0:	e59c4000 	ldr	r4, [ip]
  105da4:	eb000d7d 	bl	1093a0 <__locale_charset>
  105da8:	e58d8000 	str	r8, [sp]
  105dac:	e1a02007 	mov	r2, r7
  105db0:	e1a01006 	mov	r1, r6
  105db4:	e1a03000 	mov	r3, r0
  105db8:	e1a00005 	mov	r0, r5
  105dbc:	e12fff34 	blx	r4
  105dc0:	e28dd008 	add	sp, sp, #8
  105dc4:	e8bd81f0 	pop	{r4, r5, r6, r7, r8, pc}

00105dc8 <__utf8_wctomb>:
  105dc8:	e3510000 	cmp	r1, #0
  105dcc:	0a00001d 	beq	105e48 <__utf8_wctomb+0x80>
  105dd0:	e352007f 	cmp	r2, #127	; 0x7f
  105dd4:	95c12000 	strbls	r2, [r1]
  105dd8:	93a03001 	movls	r3, #1
  105ddc:	9a00001a 	bls	105e4c <__utf8_wctomb+0x84>
  105de0:	e2423080 	sub	r3, r2, #128	; 0x80
  105de4:	e3530d1e 	cmp	r3, #1920	; 0x780
  105de8:	3a000025 	bcc	105e84 <__utf8_wctomb+0xbc>
  105dec:	e2423b02 	sub	r3, r2, #2048	; 0x800
  105df0:	e3530b3e 	cmp	r3, #63488	; 0xf800
  105df4:	3a000016 	bcc	105e54 <__utf8_wctomb+0x8c>
  105df8:	e2423801 	sub	r3, r2, #65536	; 0x10000
  105dfc:	e3530601 	cmp	r3, #1048576	; 0x100000
  105e00:	2a000029 	bcs	105eac <__utf8_wctomb+0xe4>
  105e04:	e52de004 	push	{lr}		; (str lr, [sp, #-4]!)
  105e08:	e7e5c652 	ubfx	ip, r2, #12, #6
  105e0c:	e202e03f 	and	lr, r2, #63	; 0x3f
  105e10:	e7e50352 	ubfx	r0, r2, #6, #6
  105e14:	e3e0307f 	mvn	r3, #127	; 0x7f
  105e18:	e183c00c 	orr	ip, r3, ip
  105e1c:	e1830000 	orr	r0, r3, r0
  105e20:	e183300e 	orr	r3, r3, lr
  105e24:	e5c13003 	strb	r3, [r1, #3]
  105e28:	e3a03004 	mov	r3, #4
  105e2c:	e5c10002 	strb	r0, [r1, #2]
  105e30:	e3e0000f 	mvn	r0, #15
  105e34:	e5c1c001 	strb	ip, [r1, #1]
  105e38:	e1802922 	orr	r2, r0, r2, lsr #18
  105e3c:	e1a00003 	mov	r0, r3
  105e40:	e5c12000 	strb	r2, [r1]
  105e44:	e49df004 	pop	{pc}		; (ldr pc, [sp], #4)
  105e48:	e1a03001 	mov	r3, r1
  105e4c:	e1a00003 	mov	r0, r3
  105e50:	e12fff1e 	bx	lr
  105e54:	e7e50352 	ubfx	r0, r2, #6, #6
  105e58:	e202c03f 	and	ip, r2, #63	; 0x3f
  105e5c:	e3e0307f 	mvn	r3, #127	; 0x7f
  105e60:	e1830000 	orr	r0, r3, r0
  105e64:	e183300c 	orr	r3, r3, ip
  105e68:	e5c10001 	strb	r0, [r1, #1]
  105e6c:	e5c13002 	strb	r3, [r1, #2]
  105e70:	e3e0001f 	mvn	r0, #31
  105e74:	e3a03003 	mov	r3, #3
  105e78:	e1802622 	orr	r2, r0, r2, lsr #12
  105e7c:	e5c12000 	strb	r2, [r1]
  105e80:	eafffff1 	b	105e4c <__utf8_wctomb+0x84>
  105e84:	e202003f 	and	r0, r2, #63	; 0x3f
  105e88:	e3a03002 	mov	r3, #2
  105e8c:	e3e0c03f 	mvn	ip, #63	; 0x3f
  105e90:	e18c2322 	orr	r2, ip, r2, lsr #6
  105e94:	e1e00c80 	mvn	r0, r0, lsl #25
  105e98:	e5c12000 	strb	r2, [r1]
  105e9c:	e1e00ca0 	mvn	r0, r0, lsr #25
  105ea0:	e5c10001 	strb	r0, [r1, #1]
  105ea4:	e1a00003 	mov	r0, r3
  105ea8:	e12fff1e 	bx	lr
  105eac:	e3a0208a 	mov	r2, #138	; 0x8a
  105eb0:	e3e03000 	mvn	r3, #0
  105eb4:	e5802000 	str	r2, [r0]
  105eb8:	eaffffe3 	b	105e4c <__utf8_wctomb+0x84>

00105ebc <__sjis_wctomb>:
  105ebc:	e3510000 	cmp	r1, #0
  105ec0:	0a000019 	beq	105f2c <__sjis_wctomb+0x70>
  105ec4:	e7e73452 	ubfx	r3, r2, #8, #8
  105ec8:	e6ef2072 	uxtb	r2, r2
  105ecc:	e3530000 	cmp	r3, #0
  105ed0:	0a000011 	beq	105f1c <__sjis_wctomb+0x60>
  105ed4:	e52de004 	push	{lr}		; (str lr, [sp, #-4]!)
  105ed8:	e283c020 	add	ip, r3, #32
  105edc:	e283e07f 	add	lr, r3, #127	; 0x7f
  105ee0:	e6efc07c 	uxtb	ip, ip
  105ee4:	e6efe07e 	uxtb	lr, lr
  105ee8:	e35c000f 	cmp	ip, #15
  105eec:	835e001e 	cmphi	lr, #30
  105ef0:	8a000010 	bhi	105f38 <__sjis_wctomb+0x7c>
  105ef4:	e242c040 	sub	ip, r2, #64	; 0x40
  105ef8:	e222e080 	eor	lr, r2, #128	; 0x80
  105efc:	e35e007c 	cmp	lr, #124	; 0x7c
  105f00:	835c003e 	cmphi	ip, #62	; 0x3e
  105f04:	8a00000b 	bhi	105f38 <__sjis_wctomb+0x7c>
  105f08:	e5c13000 	strb	r3, [r1]
  105f0c:	e3a03002 	mov	r3, #2
  105f10:	e5c12001 	strb	r2, [r1, #1]
  105f14:	e1a00003 	mov	r0, r3
  105f18:	e49df004 	pop	{pc}		; (ldr pc, [sp], #4)
  105f1c:	e3a03001 	mov	r3, #1
  105f20:	e5c12000 	strb	r2, [r1]
  105f24:	e1a00003 	mov	r0, r3
  105f28:	e12fff1e 	bx	lr
  105f2c:	e1a03001 	mov	r3, r1
  105f30:	e1a00003 	mov	r0, r3
  105f34:	e12fff1e 	bx	lr
  105f38:	e3a0208a 	mov	r2, #138	; 0x8a
  105f3c:	e3e03000 	mvn	r3, #0
  105f40:	e5802000 	str	r2, [r0]
  105f44:	eafffff2 	b	105f14 <__sjis_wctomb+0x58>

00105f48 <__eucjp_wctomb>:
  105f48:	e3510000 	cmp	r1, #0
  105f4c:	0a000024 	beq	105fe4 <__eucjp_wctomb+0x9c>
  105f50:	e7e73452 	ubfx	r3, r2, #8, #8
  105f54:	e6ef2072 	uxtb	r2, r2
  105f58:	e3530000 	cmp	r3, #0
  105f5c:	1a000003 	bne	105f70 <__eucjp_wctomb+0x28>
  105f60:	e3a03001 	mov	r3, #1
  105f64:	e5c12000 	strb	r2, [r1]
  105f68:	e1a00003 	mov	r0, r3
  105f6c:	e12fff1e 	bx	lr
  105f70:	e52de004 	push	{lr}		; (str lr, [sp, #-4]!)
  105f74:	e283c05f 	add	ip, r3, #95	; 0x5f
  105f78:	e283e072 	add	lr, r3, #114	; 0x72
  105f7c:	e6efc07c 	uxtb	ip, ip
  105f80:	e6efe07e 	uxtb	lr, lr
  105f84:	e35c005d 	cmp	ip, #93	; 0x5d
  105f88:	835e0001 	cmphi	lr, #1
  105f8c:	8a000017 	bhi	105ff0 <__eucjp_wctomb+0xa8>
  105f90:	e282e05f 	add	lr, r2, #95	; 0x5f
  105f94:	e6efe07e 	uxtb	lr, lr
  105f98:	e35e005d 	cmp	lr, #93	; 0x5d
  105f9c:	95c13000 	strbls	r3, [r1]
  105fa0:	95c12001 	strbls	r2, [r1, #1]
  105fa4:	93a03002 	movls	r3, #2
  105fa8:	9a00000b 	bls	105fdc <__eucjp_wctomb+0x94>
  105fac:	e35c005d 	cmp	ip, #93	; 0x5d
  105fb0:	8a00000e 	bhi	105ff0 <__eucjp_wctomb+0xa8>
  105fb4:	e3822080 	orr	r2, r2, #128	; 0x80
  105fb8:	e282c05f 	add	ip, r2, #95	; 0x5f
  105fbc:	e6efc07c 	uxtb	ip, ip
  105fc0:	e35c005d 	cmp	ip, #93	; 0x5d
  105fc4:	8a000009 	bhi	105ff0 <__eucjp_wctomb+0xa8>
  105fc8:	e5c13001 	strb	r3, [r1, #1]
  105fcc:	e3a03003 	mov	r3, #3
  105fd0:	e3e00070 	mvn	r0, #112	; 0x70
  105fd4:	e5c12002 	strb	r2, [r1, #2]
  105fd8:	e5c10000 	strb	r0, [r1]
  105fdc:	e1a00003 	mov	r0, r3
  105fe0:	e49df004 	pop	{pc}		; (ldr pc, [sp], #4)
  105fe4:	e1a03001 	mov	r3, r1
  105fe8:	e1a00003 	mov	r0, r3
  105fec:	e12fff1e 	bx	lr
  105ff0:	e3a0208a 	mov	r2, #138	; 0x8a
  105ff4:	e3e03000 	mvn	r3, #0
  105ff8:	e5802000 	str	r2, [r0]
  105ffc:	eafffff6 	b	105fdc <__eucjp_wctomb+0x94>

00106000 <__jis_wctomb>:
  106000:	e3510000 	cmp	r1, #0
  106004:	e52de004 	push	{lr}		; (str lr, [sp, #-4]!)
  106008:	e59dc004 	ldr	ip, [sp, #4]
  10600c:	0a000029 	beq	1060b8 <__jis_wctomb+0xb8>
  106010:	e7e73452 	ubfx	r3, r2, #8, #8
  106014:	e6ef2072 	uxtb	r2, r2
  106018:	e3530000 	cmp	r3, #0
  10601c:	0a000017 	beq	106080 <__jis_wctomb+0x80>
  106020:	e1a0e000 	mov	lr, r0
  106024:	e2430021 	sub	r0, r3, #33	; 0x21
  106028:	e350005d 	cmp	r0, #93	; 0x5d
  10602c:	8a000023 	bhi	1060c0 <__jis_wctomb+0xc0>
  106030:	e2420021 	sub	r0, r2, #33	; 0x21
  106034:	e350005d 	cmp	r0, #93	; 0x5d
  106038:	8a000020 	bhi	1060c0 <__jis_wctomb+0xc0>
  10603c:	e59c0000 	ldr	r0, [ip]
  106040:	e3500000 	cmp	r0, #0
  106044:	13a00002 	movne	r0, #2
  106048:	1a000009 	bne	106074 <__jis_wctomb+0x74>
  10604c:	e3a00001 	mov	r0, #1
  106050:	e2811003 	add	r1, r1, #3
  106054:	e58c0000 	str	r0, [ip]
  106058:	e3a0c01b 	mov	ip, #27
  10605c:	e3a00024 	mov	r0, #36	; 0x24
  106060:	e541c003 	strb	ip, [r1, #-3]
  106064:	e5410002 	strb	r0, [r1, #-2]
  106068:	e3a0c042 	mov	ip, #66	; 0x42
  10606c:	e541c001 	strb	ip, [r1, #-1]
  106070:	e3a00005 	mov	r0, #5
  106074:	e5c13000 	strb	r3, [r1]
  106078:	e5c12001 	strb	r2, [r1, #1]
  10607c:	e49df004 	pop	{pc}		; (ldr pc, [sp], #4)
  106080:	e59c0000 	ldr	r0, [ip]
  106084:	e3500000 	cmp	r0, #0
  106088:	158c3000 	strne	r3, [ip]
  10608c:	13a0001b 	movne	r0, #27
  106090:	13a03028 	movne	r3, #40	; 0x28
  106094:	15c10000 	strbne	r0, [r1]
  106098:	03a00001 	moveq	r0, #1
  10609c:	15c13001 	strbne	r3, [r1, #1]
  1060a0:	13a03042 	movne	r3, #66	; 0x42
  1060a4:	15c13002 	strbne	r3, [r1, #2]
  1060a8:	12811003 	addne	r1, r1, #3
  1060ac:	13a00004 	movne	r0, #4
  1060b0:	e5c12000 	strb	r2, [r1]
  1060b4:	e49df004 	pop	{pc}		; (ldr pc, [sp], #4)
  1060b8:	e3a00001 	mov	r0, #1
  1060bc:	e49df004 	pop	{pc}		; (ldr pc, [sp], #4)
  1060c0:	e3a0308a 	mov	r3, #138	; 0x8a
  1060c4:	e3e00000 	mvn	r0, #0
  1060c8:	e58e3000 	str	r3, [lr]
  1060cc:	e49df004 	pop	{pc}		; (ldr pc, [sp], #4)

001060d0 <__swsetup_r>:
  1060d0:	e30f3740 	movw	r3, #63296	; 0xf740
  1060d4:	e3403010 	movt	r3, #16
  1060d8:	e92d4070 	push	{r4, r5, r6, lr}
  1060dc:	e1a05000 	mov	r5, r0
  1060e0:	e5930000 	ldr	r0, [r3]
  1060e4:	e1a04001 	mov	r4, r1
  1060e8:	e3500000 	cmp	r0, #0
  1060ec:	0a000002 	beq	1060fc <__swsetup_r+0x2c>
  1060f0:	e5903038 	ldr	r3, [r0, #56]	; 0x38
  1060f4:	e3530000 	cmp	r3, #0
  1060f8:	0a000033 	beq	1061cc <__swsetup_r+0xfc>
  1060fc:	e1d420fc 	ldrsh	r2, [r4, #12]
  106100:	e6ff3072 	uxth	r3, r2
  106104:	e3130008 	tst	r3, #8
  106108:	15940010 	ldrne	r0, [r4, #16]
  10610c:	1a000016 	bne	10616c <__swsetup_r+0x9c>
  106110:	e3130010 	tst	r3, #16
  106114:	0a000037 	beq	1061f8 <__swsetup_r+0x128>
  106118:	e3130004 	tst	r3, #4
  10611c:	05940010 	ldreq	r0, [r4, #16]
  106120:	0a00000e 	beq	106160 <__swsetup_r+0x90>
  106124:	e5941030 	ldr	r1, [r4, #48]	; 0x30
  106128:	e3510000 	cmp	r1, #0
  10612c:	0a000007 	beq	106150 <__swsetup_r+0x80>
  106130:	e2843040 	add	r3, r4, #64	; 0x40
  106134:	e1510003 	cmp	r1, r3
  106138:	0a000002 	beq	106148 <__swsetup_r+0x78>
  10613c:	e1a00005 	mov	r0, r5
  106140:	eb000731 	bl	107e0c <_free_r>
  106144:	e1d420fc 	ldrsh	r2, [r4, #12]
  106148:	e3a03000 	mov	r3, #0
  10614c:	e5843030 	str	r3, [r4, #48]	; 0x30
  106150:	e5940010 	ldr	r0, [r4, #16]
  106154:	e3c22024 	bic	r2, r2, #36	; 0x24
  106158:	e3a03000 	mov	r3, #0
  10615c:	e8840009 	stm	r4, {r0, r3}
  106160:	e3823008 	orr	r3, r2, #8
  106164:	e1c430bc 	strh	r3, [r4, #12]
  106168:	e6ff3073 	uxth	r3, r3
  10616c:	e3500000 	cmp	r0, #0
  106170:	0a000017 	beq	1061d4 <__swsetup_r+0x104>
  106174:	e2132001 	ands	r2, r3, #1
  106178:	1a000006 	bne	106198 <__swsetup_r+0xc8>
  10617c:	e3130002 	tst	r3, #2
  106180:	05942014 	ldreq	r2, [r4, #20]
  106184:	e3500000 	cmp	r0, #0
  106188:	e5842008 	str	r2, [r4, #8]
  10618c:	0a000008 	beq	1061b4 <__swsetup_r+0xe4>
  106190:	e3a00000 	mov	r0, #0
  106194:	e8bd8070 	pop	{r4, r5, r6, pc}
  106198:	e5943014 	ldr	r3, [r4, #20]
  10619c:	e3500000 	cmp	r0, #0
  1061a0:	e3a02000 	mov	r2, #0
  1061a4:	e5842008 	str	r2, [r4, #8]
  1061a8:	e2633000 	rsb	r3, r3, #0
  1061ac:	e5843018 	str	r3, [r4, #24]
  1061b0:	1afffff6 	bne	106190 <__swsetup_r+0xc0>
  1061b4:	e1d430fc 	ldrsh	r3, [r4, #12]
  1061b8:	e3130080 	tst	r3, #128	; 0x80
  1061bc:	13833040 	orrne	r3, r3, #64	; 0x40
  1061c0:	11c430bc 	strhne	r3, [r4, #12]
  1061c4:	13e00000 	mvnne	r0, #0
  1061c8:	e8bd8070 	pop	{r4, r5, r6, pc}
  1061cc:	eb0006bb 	bl	107cc0 <__sinit>
  1061d0:	eaffffc9 	b	1060fc <__swsetup_r+0x2c>
  1061d4:	e2032d0a 	and	r2, r3, #640	; 0x280
  1061d8:	e3520c02 	cmp	r2, #512	; 0x200
  1061dc:	0affffe4 	beq	106174 <__swsetup_r+0xa4>
  1061e0:	e1a00005 	mov	r0, r5
  1061e4:	e1a01004 	mov	r1, r4
  1061e8:	eb000cab 	bl	10949c <__smakebuf_r>
  1061ec:	e1d430bc 	ldrh	r3, [r4, #12]
  1061f0:	e5940010 	ldr	r0, [r4, #16]
  1061f4:	eaffffde 	b	106174 <__swsetup_r+0xa4>
  1061f8:	e3822040 	orr	r2, r2, #64	; 0x40
  1061fc:	e3a03009 	mov	r3, #9
  106200:	e3e00000 	mvn	r0, #0
  106204:	e5853000 	str	r3, [r5]
  106208:	e1c420bc 	strh	r2, [r4, #12]
  10620c:	e8bd8070 	pop	{r4, r5, r6, pc}

00106210 <__call_exitprocs>:
  106210:	e30f3208 	movw	r3, #61960	; 0xf208
  106214:	e3403010 	movt	r3, #16
  106218:	e92d4ff0 	push	{r4, r5, r6, r7, r8, r9, sl, fp, lr}
  10621c:	e24dd014 	sub	sp, sp, #20
  106220:	e5933000 	ldr	r3, [r3]
  106224:	e1a07001 	mov	r7, r1
  106228:	e3002000 	movw	r2, #0
  10622c:	e58d000c 	str	r0, [sp, #12]
  106230:	e3402000 	movt	r2, #0
  106234:	e58d2008 	str	r2, [sp, #8]
  106238:	e58d3000 	str	r3, [sp]
  10623c:	e2833f52 	add	r3, r3, #328	; 0x148
  106240:	e58d3004 	str	r3, [sp, #4]
  106244:	e59d3000 	ldr	r3, [sp]
  106248:	e5936148 	ldr	r6, [r3, #328]	; 0x148
  10624c:	e3560000 	cmp	r6, #0
  106250:	0a000038 	beq	106338 <__call_exitprocs+0x128>
  106254:	e59da004 	ldr	sl, [sp, #4]
  106258:	e3a08001 	mov	r8, #1
  10625c:	e5964004 	ldr	r4, [r6, #4]
  106260:	e2545001 	subs	r5, r4, #1
  106264:	4a000024 	bmi	1062fc <__call_exitprocs+0xec>
  106268:	e2844001 	add	r4, r4, #1
  10626c:	e3a09000 	mov	r9, #0
  106270:	e0864104 	add	r4, r6, r4, lsl #2
  106274:	ea000003 	b	106288 <__call_exitprocs+0x78>
  106278:	e2455001 	sub	r5, r5, #1
  10627c:	e2444004 	sub	r4, r4, #4
  106280:	e3750001 	cmn	r5, #1
  106284:	0a00001c 	beq	1062fc <__call_exitprocs+0xec>
  106288:	e3570000 	cmp	r7, #0
  10628c:	0a000002 	beq	10629c <__call_exitprocs+0x8c>
  106290:	e5943100 	ldr	r3, [r4, #256]	; 0x100
  106294:	e1530007 	cmp	r3, r7
  106298:	1afffff6 	bne	106278 <__call_exitprocs+0x68>
  10629c:	e5963004 	ldr	r3, [r6, #4]
  1062a0:	e5942000 	ldr	r2, [r4]
  1062a4:	e2433001 	sub	r3, r3, #1
  1062a8:	e1530005 	cmp	r3, r5
  1062ac:	05865004 	streq	r5, [r6, #4]
  1062b0:	15849000 	strne	r9, [r4]
  1062b4:	e3520000 	cmp	r2, #0
  1062b8:	0affffee 	beq	106278 <__call_exitprocs+0x68>
  1062bc:	e5961188 	ldr	r1, [r6, #392]	; 0x188
  1062c0:	e1a03518 	lsl	r3, r8, r5
  1062c4:	e596b004 	ldr	fp, [r6, #4]
  1062c8:	e1130001 	tst	r3, r1
  1062cc:	1a00001b 	bne	106340 <__call_exitprocs+0x130>
  1062d0:	e12fff32 	blx	r2
  1062d4:	e5963004 	ldr	r3, [r6, #4]
  1062d8:	e153000b 	cmp	r3, fp
  1062dc:	1affffd8 	bne	106244 <__call_exitprocs+0x34>
  1062e0:	e59a3000 	ldr	r3, [sl]
  1062e4:	e1530006 	cmp	r3, r6
  1062e8:	1affffd5 	bne	106244 <__call_exitprocs+0x34>
  1062ec:	e2455001 	sub	r5, r5, #1
  1062f0:	e2444004 	sub	r4, r4, #4
  1062f4:	e3750001 	cmn	r5, #1
  1062f8:	1affffe2 	bne	106288 <__call_exitprocs+0x78>
  1062fc:	e59d3008 	ldr	r3, [sp, #8]
  106300:	e3530000 	cmp	r3, #0
  106304:	0a00000b 	beq	106338 <__call_exitprocs+0x128>
  106308:	e5962004 	ldr	r2, [r6, #4]
  10630c:	e5963000 	ldr	r3, [r6]
  106310:	e3520000 	cmp	r2, #0
  106314:	1a000010 	bne	10635c <__call_exitprocs+0x14c>
  106318:	e3530000 	cmp	r3, #0
  10631c:	0a00000e 	beq	10635c <__call_exitprocs+0x14c>
  106320:	e1a00006 	mov	r0, r6
  106324:	e58a3000 	str	r3, [sl]
  106328:	e320f000 	nop	{0}
  10632c:	e59a6000 	ldr	r6, [sl]
  106330:	e3560000 	cmp	r6, #0
  106334:	1affffc8 	bne	10625c <__call_exitprocs+0x4c>
  106338:	e28dd014 	add	sp, sp, #20
  10633c:	e8bd8ff0 	pop	{r4, r5, r6, r7, r8, r9, sl, fp, pc}
  106340:	e596018c 	ldr	r0, [r6, #396]	; 0x18c
  106344:	e5941080 	ldr	r1, [r4, #128]	; 0x80
  106348:	e1130000 	tst	r3, r0
  10634c:	1a000005 	bne	106368 <__call_exitprocs+0x158>
  106350:	e59d000c 	ldr	r0, [sp, #12]
  106354:	e12fff32 	blx	r2
  106358:	eaffffdd 	b	1062d4 <__call_exitprocs+0xc4>
  10635c:	e1a0a006 	mov	sl, r6
  106360:	e1a06003 	mov	r6, r3
  106364:	eafffff1 	b	106330 <__call_exitprocs+0x120>
  106368:	e1a00001 	mov	r0, r1
  10636c:	e12fff32 	blx	r2
  106370:	eaffffd7 	b	1062d4 <__call_exitprocs+0xc4>
  106374:	00000000 	andeq	r0, r0, r0

00106378 <quorem>:
  106378:	e92d4ff0 	push	{r4, r5, r6, r7, r8, r9, sl, fp, lr}
  10637c:	e24dd00c 	sub	sp, sp, #12
  106380:	e5903010 	ldr	r3, [r0, #16]
  106384:	e5914010 	ldr	r4, [r1, #16]
  106388:	e1530004 	cmp	r3, r4
  10638c:	b3a00000 	movlt	r0, #0
  106390:	ba000067 	blt	106534 <quorem+0x1bc>
  106394:	e2444001 	sub	r4, r4, #1
  106398:	e2815014 	add	r5, r1, #20
  10639c:	e58d1000 	str	r1, [sp]
  1063a0:	e2807014 	add	r7, r0, #20
  1063a4:	e7951104 	ldr	r1, [r5, r4, lsl #2]
  1063a8:	e1a0a104 	lsl	sl, r4, #2
  1063ac:	e1a08000 	mov	r8, r0
  1063b0:	e7970104 	ldr	r0, [r7, r4, lsl #2]
  1063b4:	e2811001 	add	r1, r1, #1
  1063b8:	e087300a 	add	r3, r7, sl
  1063bc:	e58d3004 	str	r3, [sp, #4]
  1063c0:	eb00212f 	bl	10e884 <__udivsi3>
  1063c4:	e085900a 	add	r9, r5, sl
  1063c8:	e2506000 	subs	r6, r0, #0
  1063cc:	0a00002c 	beq	106484 <quorem+0x10c>
  1063d0:	e3a0b000 	mov	fp, #0
  1063d4:	e1a0e005 	mov	lr, r5
  1063d8:	e1a0300b 	mov	r3, fp
  1063dc:	e1a0c007 	mov	ip, r7
  1063e0:	e49e2004 	ldr	r2, [lr], #4
  1063e4:	e59c1000 	ldr	r1, [ip]
  1063e8:	e159000e 	cmp	r9, lr
  1063ec:	e6ff0072 	uxth	r0, r2
  1063f0:	e1a02822 	lsr	r2, r2, #16
  1063f4:	e02bb096 	mla	fp, r6, r0, fp
  1063f8:	e1a0082b 	lsr	r0, fp, #16
  1063fc:	e6ffb07b 	uxth	fp, fp
  106400:	e043300b 	sub	r3, r3, fp
  106404:	e02b0296 	mla	fp, r6, r2, r0
  106408:	e6f33071 	uxtah	r3, r3, r1
  10640c:	e6ff0073 	uxth	r0, r3
  106410:	e6ff207b 	uxth	r2, fp
  106414:	e1a0b82b 	lsr	fp, fp, #16
  106418:	e0622821 	rsb	r2, r2, r1, lsr #16
  10641c:	e0823843 	add	r3, r2, r3, asr #16
  106420:	e1800803 	orr	r0, r0, r3, lsl #16
  106424:	e1a03843 	asr	r3, r3, #16
  106428:	e48c0004 	str	r0, [ip], #4
  10642c:	2affffeb 	bcs	1063e0 <quorem+0x68>
  106430:	e797300a 	ldr	r3, [r7, sl]
  106434:	e3530000 	cmp	r3, #0
  106438:	1a000011 	bne	106484 <quorem+0x10c>
  10643c:	e59d2004 	ldr	r2, [sp, #4]
  106440:	e2423004 	sub	r3, r2, #4
  106444:	e1570003 	cmp	r7, r3
  106448:	2a00000c 	bcs	106480 <quorem+0x108>
  10644c:	e5123004 	ldr	r3, [r2, #-4]
  106450:	e3530000 	cmp	r3, #0
  106454:	1a000009 	bne	106480 <quorem+0x108>
  106458:	e2423008 	sub	r3, r2, #8
  10645c:	ea000002 	b	10646c <quorem+0xf4>
  106460:	e5922000 	ldr	r2, [r2]
  106464:	e3520000 	cmp	r2, #0
  106468:	1a000004 	bne	106480 <quorem+0x108>
  10646c:	e1570003 	cmp	r7, r3
  106470:	e1a02003 	mov	r2, r3
  106474:	e2444001 	sub	r4, r4, #1
  106478:	e2433004 	sub	r3, r3, #4
  10647c:	3afffff7 	bcc	106460 <quorem+0xe8>
  106480:	e5884010 	str	r4, [r8, #16]
  106484:	e59d1000 	ldr	r1, [sp]
  106488:	e1a00008 	mov	r0, r8
  10648c:	eb001273 	bl	10ae60 <__mcmp>
  106490:	e3500000 	cmp	r0, #0
  106494:	ba000025 	blt	106530 <quorem+0x1b8>
  106498:	e2866001 	add	r6, r6, #1
  10649c:	e1a0c007 	mov	ip, r7
  1064a0:	e3a03000 	mov	r3, #0
  1064a4:	e4951004 	ldr	r1, [r5], #4
  1064a8:	e59c2000 	ldr	r2, [ip]
  1064ac:	e1590005 	cmp	r9, r5
  1064b0:	e6ff0071 	uxth	r0, r1
  1064b4:	e1a01821 	lsr	r1, r1, #16
  1064b8:	e0430000 	sub	r0, r3, r0
  1064bc:	e0613822 	rsb	r3, r1, r2, lsr #16
  1064c0:	e6f02072 	uxtah	r2, r0, r2
  1064c4:	e0833842 	add	r3, r3, r2, asr #16
  1064c8:	e6ff2072 	uxth	r2, r2
  1064cc:	e1822803 	orr	r2, r2, r3, lsl #16
  1064d0:	e1a03843 	asr	r3, r3, #16
  1064d4:	e48c2004 	str	r2, [ip], #4
  1064d8:	2afffff1 	bcs	1064a4 <quorem+0x12c>
  1064dc:	e7972104 	ldr	r2, [r7, r4, lsl #2]
  1064e0:	e0873104 	add	r3, r7, r4, lsl #2
  1064e4:	e3520000 	cmp	r2, #0
  1064e8:	1a000010 	bne	106530 <quorem+0x1b8>
  1064ec:	e2432004 	sub	r2, r3, #4
  1064f0:	e1570002 	cmp	r7, r2
  1064f4:	2a00000c 	bcs	10652c <quorem+0x1b4>
  1064f8:	e5132004 	ldr	r2, [r3, #-4]
  1064fc:	e3520000 	cmp	r2, #0
  106500:	1a000009 	bne	10652c <quorem+0x1b4>
  106504:	e2433008 	sub	r3, r3, #8
  106508:	ea000002 	b	106518 <quorem+0x1a0>
  10650c:	e5922000 	ldr	r2, [r2]
  106510:	e3520000 	cmp	r2, #0
  106514:	1a000004 	bne	10652c <quorem+0x1b4>
  106518:	e1570003 	cmp	r7, r3
  10651c:	e1a02003 	mov	r2, r3
  106520:	e2444001 	sub	r4, r4, #1
  106524:	e2433004 	sub	r3, r3, #4
  106528:	3afffff7 	bcc	10650c <quorem+0x194>
  10652c:	e5884010 	str	r4, [r8, #16]
  106530:	e1a00006 	mov	r0, r6
  106534:	e28dd00c 	add	sp, sp, #12
  106538:	e8bd8ff0 	pop	{r4, r5, r6, r7, r8, r9, sl, fp, pc}

0010653c <_dtoa_r>:
  10653c:	e92d4ff0 	push	{r4, r5, r6, r7, r8, r9, sl, fp, lr}
  106540:	e24dd04c 	sub	sp, sp, #76	; 0x4c
  106544:	ec576b10 	vmov	r6, r7, d0
  106548:	e1a04000 	mov	r4, r0
  10654c:	e590c040 	ldr	ip, [r0, #64]	; 0x40
  106550:	e1a09001 	mov	r9, r1
  106554:	e1a08002 	mov	r8, r2
  106558:	e58d3010 	str	r3, [sp, #16]
  10655c:	e35c0000 	cmp	ip, #0
  106560:	e1cd60f0 	strd	r6, [sp]
  106564:	0a000007 	beq	106588 <_dtoa_r+0x4c>
  106568:	e5902044 	ldr	r2, [r0, #68]	; 0x44
  10656c:	e3a03001 	mov	r3, #1
  106570:	e1a0100c 	mov	r1, ip
  106574:	e1a03213 	lsl	r3, r3, r2
  106578:	e1cc20f4 	strd	r2, [ip, #4]
  10657c:	eb001086 	bl	10a79c <_Bfree>
  106580:	e3a03000 	mov	r3, #0
  106584:	e5843040 	str	r3, [r4, #64]	; 0x40
  106588:	e2575000 	subs	r5, r7, #0
  10658c:	b3c55102 	biclt	r5, r5, #-2147483648	; 0x80000000
  106590:	b58d5004 	strlt	r5, [sp, #4]
  106594:	b59d2070 	ldrlt	r2, [sp, #112]	; 0x70
  106598:	b3a03001 	movlt	r3, #1
  10659c:	a59d2070 	ldrge	r2, [sp, #112]	; 0x70
  1065a0:	a3a03000 	movge	r3, #0
  1065a4:	b5823000 	strlt	r3, [r2]
  1065a8:	a5823000 	strge	r3, [r2]
  1065ac:	e3a03000 	mov	r3, #0
  1065b0:	e3473ff0 	movt	r3, #32752	; 0x7ff0
  1065b4:	e1d33005 	bics	r3, r3, r5
  1065b8:	0a000074 	beq	106790 <_dtoa_r+0x254>
  1065bc:	ed9d7b00 	vldr	d7, [sp]
  1065c0:	eeb57b40 	vcmp.f64	d7, #0.0
  1065c4:	ed8d7b02 	vstr	d7, [sp, #8]
  1065c8:	eef1fa10 	vmrs	APSR_nzcv, fpscr
  1065cc:	1a00000c 	bne	106604 <_dtoa_r+0xc8>
  1065d0:	e59d3074 	ldr	r3, [sp, #116]	; 0x74
  1065d4:	e59d2010 	ldr	r2, [sp, #16]
  1065d8:	e3530000 	cmp	r3, #0
  1065dc:	e3a03001 	mov	r3, #1
  1065e0:	e5823000 	str	r3, [r2]
  1065e4:	0a00008b 	beq	106818 <_dtoa_r+0x2dc>
  1065e8:	e59f3420 	ldr	r3, [pc, #1056]	; 106a10 <_dtoa_r+0x4d4>
  1065ec:	e2438001 	sub	r8, r3, #1
  1065f0:	e59d2074 	ldr	r2, [sp, #116]	; 0x74
  1065f4:	e5823000 	str	r3, [r2]
  1065f8:	e1a00008 	mov	r0, r8
  1065fc:	e28dd04c 	add	sp, sp, #76	; 0x4c
  106600:	e8bd8ff0 	pop	{r4, r5, r6, r7, r8, r9, sl, fp, pc}
  106604:	e28d2040 	add	r2, sp, #64	; 0x40
  106608:	e28d1044 	add	r1, sp, #68	; 0x44
  10660c:	ed9d0b02 	vldr	d0, [sp, #8]
  106610:	e1a00004 	mov	r0, r4
  106614:	eb0012d8 	bl	10b17c <__d2b>
  106618:	e1b0ba25 	lsrs	fp, r5, #20
  10661c:	e1a07000 	mov	r7, r0
  106620:	1a000071 	bne	1067ec <_dtoa_r+0x2b0>
  106624:	e59db040 	ldr	fp, [sp, #64]	; 0x40
  106628:	e59d1044 	ldr	r1, [sp, #68]	; 0x44
  10662c:	e08b1001 	add	r1, fp, r1
  106630:	e2813e43 	add	r3, r1, #1072	; 0x430
  106634:	e2833002 	add	r3, r3, #2
  106638:	e3530020 	cmp	r3, #32
  10663c:	c2812e41 	addgt	r2, r1, #1040	; 0x410
  106640:	c2633040 	rsbgt	r3, r3, #64	; 0x40
  106644:	c59d0000 	ldrgt	r0, [sp]
  106648:	c2822002 	addgt	r2, r2, #2
  10664c:	d59d2000 	ldrle	r2, [sp]
  106650:	d2633020 	rsble	r3, r3, #32
  106654:	e2411001 	sub	r1, r1, #1
  106658:	c1a02230 	lsrgt	r2, r0, r2
  10665c:	c1823315 	orrgt	r3, r2, r5, lsl r3
  106660:	d1a03312 	lslle	r3, r2, r3
  106664:	ee073a90 	vmov	s15, r3
  106668:	e3a03001 	mov	r3, #1
  10666c:	e58d3030 	str	r3, [sp, #48]	; 0x30
  106670:	eeb87b67 	vcvt.f64.u32	d7, s15
  106674:	ed8d7b02 	vstr	d7, [sp, #8]
  106678:	e59d000c 	ldr	r0, [sp, #12]
  10667c:	e1cd20d8 	ldrd	r2, [sp, #8]
  106680:	e240361f 	sub	r3, r0, #32505856	; 0x1f00000
  106684:	eeb76b08 	vmov.f64	d6, #120	; 0x3fc00000  1.5
  106688:	ec432b13 	vmov	d3, r2, r3
  10668c:	ed9f4bd9 	vldr	d4, [pc, #868]	; 1069f8 <_dtoa_r+0x4bc>
  106690:	ed9f7bda 	vldr	d7, [pc, #872]	; 106a00 <_dtoa_r+0x4c4>
  106694:	ed9f5bdb 	vldr	d5, [pc, #876]	; 106a08 <_dtoa_r+0x4cc>
  106698:	ee336b46 	vsub.f64	d6, d3, d6
  10669c:	ee067b04 	vmla.f64	d7, d6, d4
  1066a0:	ee061a90 	vmov	s13, r1
  1066a4:	eeb86be6 	vcvt.f64.s32	d6, s13
  1066a8:	ee067b05 	vmla.f64	d7, d6, d5
  1066ac:	eefd6bc7 	vcvt.s32.f64	s13, d7
  1066b0:	eeb57bc0 	vcmpe.f64	d7, #0.0
  1066b4:	edcd6a02 	vstr	s13, [sp, #8]
  1066b8:	eef1fa10 	vmrs	APSR_nzcv, fpscr
  1066bc:	5a000005 	bpl	1066d8 <_dtoa_r+0x19c>
  1066c0:	eeb86be6 	vcvt.f64.s32	d6, s13
  1066c4:	eeb46b47 	vcmp.f64	d6, d7
  1066c8:	eef1fa10 	vmrs	APSR_nzcv, fpscr
  1066cc:	159d3008 	ldrne	r3, [sp, #8]
  1066d0:	12433001 	subne	r3, r3, #1
  1066d4:	158d3008 	strne	r3, [sp, #8]
  1066d8:	e59d2008 	ldr	r2, [sp, #8]
  1066dc:	e3520016 	cmp	r2, #22
  1066e0:	83a03001 	movhi	r3, #1
  1066e4:	858d302c 	strhi	r3, [sp, #44]	; 0x2c
  1066e8:	8a00000a 	bhi	106718 <_dtoa_r+0x1dc>
  1066ec:	e30f32e8 	movw	r3, #62184	; 0xf2e8
  1066f0:	e3403010 	movt	r3, #16
  1066f4:	e0833182 	add	r3, r3, r2, lsl #3
  1066f8:	ed9d6b00 	vldr	d6, [sp]
  1066fc:	ed937b00 	vldr	d7, [r3]
  106700:	eeb47bc6 	vcmpe.f64	d7, d6
  106704:	eef1fa10 	vmrs	APSR_nzcv, fpscr
  106708:	c2423001 	subgt	r3, r2, #1
  10670c:	c58d3008 	strgt	r3, [sp, #8]
  106710:	e3a03000 	mov	r3, #0
  106714:	e58d302c 	str	r3, [sp, #44]	; 0x2c
  106718:	e04bb001 	sub	fp, fp, r1
  10671c:	e25b3001 	subs	r3, fp, #1
  106720:	e58d3014 	str	r3, [sp, #20]
  106724:	426b5001 	rsbmi	r5, fp, #1
  106728:	43a03000 	movmi	r3, #0
  10672c:	458d3014 	strmi	r3, [sp, #20]
  106730:	e59d3008 	ldr	r3, [sp, #8]
  106734:	53a05000 	movpl	r5, #0
  106738:	e3530000 	cmp	r3, #0
  10673c:	ba000136 	blt	106c1c <_dtoa_r+0x6e0>
  106740:	e59d2014 	ldr	r2, [sp, #20]
  106744:	e58d3028 	str	r3, [sp, #40]	; 0x28
  106748:	e0822003 	add	r2, r2, r3
  10674c:	e3a03000 	mov	r3, #0
  106750:	e58d2014 	str	r2, [sp, #20]
  106754:	e58d3024 	str	r3, [sp, #36]	; 0x24
  106758:	e3590009 	cmp	r9, #9
  10675c:	8a000032 	bhi	10682c <_dtoa_r+0x2f0>
  106760:	e3590005 	cmp	r9, #5
  106764:	c2499004 	subgt	r9, r9, #4
  106768:	c3a06000 	movgt	r6, #0
  10676c:	d3a06001 	movle	r6, #1
  106770:	e2493002 	sub	r3, r9, #2
  106774:	e3530003 	cmp	r3, #3
  106778:	979ff103 	ldrls	pc, [pc, r3, lsl #2]
  10677c:	ea00012d 	b	106c38 <_dtoa_r+0x6fc>
  106780:	00106dac 	.word	0x00106dac
  106784:	00106d44 	.word	0x00106d44
  106788:	00106dcc 	.word	0x00106dcc
  10678c:	00107340 	.word	0x00107340
  106790:	e59d3000 	ldr	r3, [sp]
  106794:	e59d2010 	ldr	r2, [sp, #16]
  106798:	e3530000 	cmp	r3, #0
  10679c:	e302370f 	movw	r3, #9999	; 0x270f
  1067a0:	e5823000 	str	r3, [r2]
  1067a4:	1a000009 	bne	1067d0 <_dtoa_r+0x294>
  1067a8:	e7f35055 	ubfx	r5, r5, #0, #20
  1067ac:	e3550000 	cmp	r5, #0
  1067b0:	1a000006 	bne	1067d0 <_dtoa_r+0x294>
  1067b4:	e59d3074 	ldr	r3, [sp, #116]	; 0x74
  1067b8:	e30f85c8 	movw	r8, #62920	; 0xf5c8
  1067bc:	e3408010 	movt	r8, #16
  1067c0:	e3530000 	cmp	r3, #0
  1067c4:	12883008 	addne	r3, r8, #8
  1067c8:	1affff88 	bne	1065f0 <_dtoa_r+0xb4>
  1067cc:	eaffff89 	b	1065f8 <_dtoa_r+0xbc>
  1067d0:	e59d3074 	ldr	r3, [sp, #116]	; 0x74
  1067d4:	e30f85d4 	movw	r8, #62932	; 0xf5d4
  1067d8:	e3408010 	movt	r8, #16
  1067dc:	e3530000 	cmp	r3, #0
  1067e0:	0affff84 	beq	1065f8 <_dtoa_r+0xbc>
  1067e4:	e2883003 	add	r3, r8, #3
  1067e8:	eaffff80 	b	1065f0 <_dtoa_r+0xb4>
  1067ec:	e59d000c 	ldr	r0, [sp, #12]
  1067f0:	e24b1fff 	sub	r1, fp, #1020	; 0x3fc
  1067f4:	e1cd20d8 	ldrd	r2, [sp, #8]
  1067f8:	e2411003 	sub	r1, r1, #3
  1067fc:	e7f30050 	ubfx	r0, r0, #0, #20
  106800:	e59db040 	ldr	fp, [sp, #64]	; 0x40
  106804:	e38035ff 	orr	r3, r0, #1069547520	; 0x3fc00000
  106808:	e3a00000 	mov	r0, #0
  10680c:	e3833603 	orr	r3, r3, #3145728	; 0x300000
  106810:	e58d0030 	str	r0, [sp, #48]	; 0x30
  106814:	eaffff9a 	b	106684 <_dtoa_r+0x148>
  106818:	e30f85c4 	movw	r8, #62916	; 0xf5c4
  10681c:	e3408010 	movt	r8, #16
  106820:	e1a00008 	mov	r0, r8
  106824:	e28dd04c 	add	sp, sp, #76	; 0x4c
  106828:	e8bd8ff0 	pop	{r4, r5, r6, r7, r8, r9, sl, fp, pc}
  10682c:	e3a09000 	mov	r9, #0
  106830:	e3e0a000 	mvn	sl, #0
  106834:	e1a06009 	mov	r6, r9
  106838:	e1a08009 	mov	r8, r9
  10683c:	e3a03001 	mov	r3, #1
  106840:	e58d3020 	str	r3, [sp, #32]
  106844:	e3a01000 	mov	r1, #0
  106848:	e58da034 	str	sl, [sp, #52]	; 0x34
  10684c:	e5841044 	str	r1, [r4, #68]	; 0x44
  106850:	e1a00004 	mov	r0, r4
  106854:	eb000fae 	bl	10a714 <_Balloc>
  106858:	e3560000 	cmp	r6, #0
  10685c:	e1a0b000 	mov	fp, r0
  106860:	e5840040 	str	r0, [r4, #64]	; 0x40
  106864:	0a00006c 	beq	106a1c <_dtoa_r+0x4e0>
  106868:	e59d2008 	ldr	r2, [sp, #8]
  10686c:	ed9d7b00 	vldr	d7, [sp]
  106870:	e3520000 	cmp	r2, #0
  106874:	ed8d7b06 	vstr	d7, [sp, #24]
  106878:	da00021a 	ble	1070e8 <_dtoa_r+0xbac>
  10687c:	e202100f 	and	r1, r2, #15
  106880:	e30f32e8 	movw	r3, #62184	; 0xf2e8
  106884:	e1a02242 	asr	r2, r2, #4
  106888:	e3403010 	movt	r3, #16
  10688c:	e0833181 	add	r3, r3, r1, lsl #3
  106890:	e3120010 	tst	r2, #16
  106894:	ed936b00 	vldr	d6, [r3]
  106898:	1a000121 	bne	106d24 <_dtoa_r+0x7e8>
  10689c:	e3a01002 	mov	r1, #2
  1068a0:	ed9d4b06 	vldr	d4, [sp, #24]
  1068a4:	e3520000 	cmp	r2, #0
  1068a8:	130f33d8 	movwne	r3, #62424	; 0xf3d8
  1068ac:	13403010 	movtne	r3, #16
  1068b0:	0a000006 	beq	1068d0 <_dtoa_r+0x394>
  1068b4:	e3120001 	tst	r2, #1
  1068b8:	e2833008 	add	r3, r3, #8
  1068bc:	12811001 	addne	r1, r1, #1
  1068c0:	1d137b02 	vldrne	d7, [r3, #-8]
  1068c4:	1e266b07 	vmulne.f64	d6, d6, d7
  1068c8:	e1b020c2 	asrs	r2, r2, #1
  1068cc:	1afffff8 	bne	1068b4 <_dtoa_r+0x378>
  1068d0:	ee845b06 	vdiv.f64	d5, d4, d6
  1068d4:	e59d302c 	ldr	r3, [sp, #44]	; 0x2c
  1068d8:	e3530000 	cmp	r3, #0
  1068dc:	0a000003 	beq	1068f0 <_dtoa_r+0x3b4>
  1068e0:	eeb77b00 	vmov.f64	d7, #112	; 0x3f800000  1.0
  1068e4:	eeb45bc7 	vcmpe.f64	d5, d7
  1068e8:	eef1fa10 	vmrs	APSR_nzcv, fpscr
  1068ec:	4a0002d8 	bmi	107454 <_dtoa_r+0xf18>
  1068f0:	eeb17b0c 	vmov.f64	d7, #28	; 0x40e00000  7.0
  1068f4:	e35a0000 	cmp	sl, #0
  1068f8:	ee061a90 	vmov	s13, r1
  1068fc:	eeb86be6 	vcvt.f64.s32	d6, s13
  106900:	ee067b05 	vmla.f64	d7, d6, d5
  106904:	ed8d7b00 	vstr	d7, [sp]
  106908:	e59d1004 	ldr	r1, [sp, #4]
  10690c:	e1cd20d0 	ldrd	r2, [sp]
  106910:	e241350d 	sub	r3, r1, #54525952	; 0x3400000
  106914:	0a000137 	beq	106df8 <_dtoa_r+0x8bc>
  106918:	e59d1008 	ldr	r1, [sp, #8]
  10691c:	e58d1000 	str	r1, [sp]
  106920:	e1a0100a 	mov	r1, sl
  106924:	eefd7bc5 	vcvt.s32.f64	s15, d5
  106928:	e59dc020 	ldr	ip, [sp, #32]
  10692c:	ec432b14 	vmov	d4, r2, r3
  106930:	e30f02e8 	movw	r0, #62184	; 0xf2e8
  106934:	e3400010 	movt	r0, #16
  106938:	e35c0000 	cmp	ip, #0
  10693c:	e0800181 	add	r0, r0, r1, lsl #3
  106940:	e28b3001 	add	r3, fp, #1
  106944:	ed103b02 	vldr	d3, [r0, #-8]
  106948:	ee172a90 	vmov	r2, s15
  10694c:	eeb86be7 	vcvt.f64.s32	d6, s15
  106950:	ee357b46 	vsub.f64	d7, d5, d6
  106954:	e2822030 	add	r2, r2, #48	; 0x30
  106958:	e6ef2072 	uxtb	r2, r2
  10695c:	0a000258 	beq	1072c4 <_dtoa_r+0xd88>
  106960:	eeb65b00 	vmov.f64	d5, #96	; 0x3f000000  0.5
  106964:	e5cb2000 	strb	r2, [fp]
  106968:	ee856b03 	vdiv.f64	d6, d5, d3
  10696c:	ee366b44 	vsub.f64	d6, d6, d4
  106970:	eeb46bc7 	vcmpe.f64	d6, d7
  106974:	eef1fa10 	vmrs	APSR_nzcv, fpscr
  106978:	ca00001b 	bgt	1069ec <_dtoa_r+0x4b0>
  10697c:	eeb72b00 	vmov.f64	d2, #112	; 0x3f800000  1.0
  106980:	ee325b47 	vsub.f64	d5, d2, d7
  106984:	eeb45bc6 	vcmpe.f64	d5, d6
  106988:	eef1fa10 	vmrs	APSR_nzcv, fpscr
  10698c:	4a0000dc 	bmi	106d04 <_dtoa_r+0x7c8>
  106990:	e3510001 	cmp	r1, #1
  106994:	0a00001e 	beq	106a14 <_dtoa_r+0x4d8>
  106998:	e08b1001 	add	r1, fp, r1
  10699c:	eeb24b04 	vmov.f64	d4, #36	; 0x41200000  10.0
  1069a0:	ea000005 	b	1069bc <_dtoa_r+0x480>
  1069a4:	ee325b47 	vsub.f64	d5, d2, d7
  1069a8:	eeb45bc6 	vcmpe.f64	d5, d6
  1069ac:	eef1fa10 	vmrs	APSR_nzcv, fpscr
  1069b0:	4a0000d3 	bmi	106d04 <_dtoa_r+0x7c8>
  1069b4:	e1530001 	cmp	r3, r1
  1069b8:	0a000015 	beq	106a14 <_dtoa_r+0x4d8>
  1069bc:	ee275b04 	vmul.f64	d5, d7, d4
  1069c0:	ee266b04 	vmul.f64	d6, d6, d4
  1069c4:	eefd7bc5 	vcvt.s32.f64	s15, d5
  1069c8:	ee172a90 	vmov	r2, s15
  1069cc:	eeb83be7 	vcvt.f64.s32	d3, s15
  1069d0:	ee357b43 	vsub.f64	d7, d5, d3
  1069d4:	eeb47bc6 	vcmpe.f64	d7, d6
  1069d8:	e2822030 	add	r2, r2, #48	; 0x30
  1069dc:	eef1fa10 	vmrs	APSR_nzcv, fpscr
  1069e0:	e6ef2072 	uxtb	r2, r2
  1069e4:	e4c32001 	strb	r2, [r3], #1
  1069e8:	5affffed 	bpl	1069a4 <_dtoa_r+0x468>
  1069ec:	e1a0800b 	mov	r8, fp
  1069f0:	e1a0b003 	mov	fp, r3
  1069f4:	ea000077 	b	106bd8 <_dtoa_r+0x69c>
  1069f8:	636f4361 	.word	0x636f4361
  1069fc:	3fd287a7 	.word	0x3fd287a7
  106a00:	8b60c8b3 	.word	0x8b60c8b3
  106a04:	3fc68a28 	.word	0x3fc68a28
  106a08:	509f79fb 	.word	0x509f79fb
  106a0c:	3fd34413 	.word	0x3fd34413
  106a10:	0010f5c5 	.word	0x0010f5c5
  106a14:	e1cd21d8 	ldrd	r2, [sp, #24]
  106a18:	e1cd20f0 	strd	r2, [sp]
  106a1c:	e59d3044 	ldr	r3, [sp, #68]	; 0x44
  106a20:	e59d1008 	ldr	r1, [sp, #8]
  106a24:	e1e02003 	mvn	r2, r3
  106a28:	e351000e 	cmp	r1, #14
  106a2c:	e1a02fa2 	lsr	r2, r2, #31
  106a30:	c3a02000 	movgt	r2, #0
  106a34:	e3520000 	cmp	r2, #0
  106a38:	1a000104 	bne	106e50 <_dtoa_r+0x914>
  106a3c:	e59d2020 	ldr	r2, [sp, #32]
  106a40:	e3520000 	cmp	r2, #0
  106a44:	1a000090 	bne	106c8c <_dtoa_r+0x750>
  106a48:	e59d3020 	ldr	r3, [sp, #32]
  106a4c:	e59d6024 	ldr	r6, [sp, #36]	; 0x24
  106a50:	e58d5030 	str	r5, [sp, #48]	; 0x30
  106a54:	e58d3018 	str	r3, [sp, #24]
  106a58:	e59d2030 	ldr	r2, [sp, #48]	; 0x30
  106a5c:	e59d1014 	ldr	r1, [sp, #20]
  106a60:	e3520000 	cmp	r2, #0
  106a64:	c3a03001 	movgt	r3, #1
  106a68:	d3a03000 	movle	r3, #0
  106a6c:	e3510000 	cmp	r1, #0
  106a70:	c2033001 	andgt	r3, r3, #1
  106a74:	d3a03000 	movle	r3, #0
  106a78:	e3530000 	cmp	r3, #0
  106a7c:	0a000007 	beq	106aa0 <_dtoa_r+0x564>
  106a80:	e1520001 	cmp	r2, r1
  106a84:	b1a03002 	movlt	r3, r2
  106a88:	a1a03001 	movge	r3, r1
  106a8c:	e0422003 	sub	r2, r2, r3
  106a90:	e0455003 	sub	r5, r5, r3
  106a94:	e58d2030 	str	r2, [sp, #48]	; 0x30
  106a98:	e0413003 	sub	r3, r1, r3
  106a9c:	e58d3014 	str	r3, [sp, #20]
  106aa0:	e59d3024 	ldr	r3, [sp, #36]	; 0x24
  106aa4:	e3530000 	cmp	r3, #0
  106aa8:	0a00000a 	beq	106ad8 <_dtoa_r+0x59c>
  106aac:	e59d2020 	ldr	r2, [sp, #32]
  106ab0:	e3520000 	cmp	r2, #0
  106ab4:	0a00025d 	beq	107430 <_dtoa_r+0xef4>
  106ab8:	e3560000 	cmp	r6, #0
  106abc:	e0433006 	sub	r3, r3, r6
  106ac0:	1a000278 	bne	1074a8 <_dtoa_r+0xf6c>
  106ac4:	e1a01007 	mov	r1, r7
  106ac8:	e1a02003 	mov	r2, r3
  106acc:	e1a00004 	mov	r0, r4
  106ad0:	eb001066 	bl	10ac70 <__pow5mult>
  106ad4:	e1a07000 	mov	r7, r0
  106ad8:	e3a01001 	mov	r1, #1
  106adc:	e1a00004 	mov	r0, r4
  106ae0:	eb000fdc 	bl	10aa58 <__i2b>
  106ae4:	e59d2028 	ldr	r2, [sp, #40]	; 0x28
  106ae8:	e3520000 	cmp	r2, #0
  106aec:	e1a06000 	mov	r6, r0
  106af0:	1a0000f2 	bne	106ec0 <_dtoa_r+0x984>
  106af4:	e3590001 	cmp	r9, #1
  106af8:	da000315 	ble	107754 <_dtoa_r+0x1218>
  106afc:	e3a00001 	mov	r0, #1
  106b00:	e59d2014 	ldr	r2, [sp, #20]
  106b04:	e0800002 	add	r0, r0, r2
  106b08:	e210001f 	ands	r0, r0, #31
  106b0c:	0a0000c6 	beq	106e2c <_dtoa_r+0x8f0>
  106b10:	e2603020 	rsb	r3, r0, #32
  106b14:	e3530004 	cmp	r3, #4
  106b18:	da00030a 	ble	107748 <_dtoa_r+0x120c>
  106b1c:	e260001c 	rsb	r0, r0, #28
  106b20:	e59d3030 	ldr	r3, [sp, #48]	; 0x30
  106b24:	e0855000 	add	r5, r5, r0
  106b28:	e0833000 	add	r3, r3, r0
  106b2c:	e58d3030 	str	r3, [sp, #48]	; 0x30
  106b30:	e0823000 	add	r3, r2, r0
  106b34:	e58d3014 	str	r3, [sp, #20]
  106b38:	e3550000 	cmp	r5, #0
  106b3c:	da000004 	ble	106b54 <_dtoa_r+0x618>
  106b40:	e1a01007 	mov	r1, r7
  106b44:	e1a02005 	mov	r2, r5
  106b48:	e1a00004 	mov	r0, r4
  106b4c:	eb001085 	bl	10ad68 <__lshift>
  106b50:	e1a07000 	mov	r7, r0
  106b54:	e59d3014 	ldr	r3, [sp, #20]
  106b58:	e3530000 	cmp	r3, #0
  106b5c:	da000004 	ble	106b74 <_dtoa_r+0x638>
  106b60:	e1a01006 	mov	r1, r6
  106b64:	e1a02003 	mov	r2, r3
  106b68:	e1a00004 	mov	r0, r4
  106b6c:	eb00107d 	bl	10ad68 <__lshift>
  106b70:	e1a06000 	mov	r6, r0
  106b74:	e3590002 	cmp	r9, #2
  106b78:	e59d302c 	ldr	r3, [sp, #44]	; 0x2c
  106b7c:	d3a05000 	movle	r5, #0
  106b80:	c3a05001 	movgt	r5, #1
  106b84:	e3530000 	cmp	r3, #0
  106b88:	1a000173 	bne	10715c <_dtoa_r+0xc20>
  106b8c:	e35a0000 	cmp	sl, #0
  106b90:	c3a05000 	movgt	r5, #0
  106b94:	d2055001 	andle	r5, r5, #1
  106b98:	e3550000 	cmp	r5, #0
  106b9c:	0a0000e8 	beq	106f44 <_dtoa_r+0xa08>
  106ba0:	e35a0000 	cmp	sl, #0
  106ba4:	0a000215 	beq	107400 <_dtoa_r+0xec4>
  106ba8:	e1e03008 	mvn	r3, r8
  106bac:	e1a0800b 	mov	r8, fp
  106bb0:	e58d3000 	str	r3, [sp]
  106bb4:	e1a01006 	mov	r1, r6
  106bb8:	e1a00004 	mov	r0, r4
  106bbc:	eb000ef6 	bl	10a79c <_Bfree>
  106bc0:	e59d3018 	ldr	r3, [sp, #24]
  106bc4:	e3530000 	cmp	r3, #0
  106bc8:	0a000002 	beq	106bd8 <_dtoa_r+0x69c>
  106bcc:	e59d1018 	ldr	r1, [sp, #24]
  106bd0:	e1a00004 	mov	r0, r4
  106bd4:	eb000ef0 	bl	10a79c <_Bfree>
  106bd8:	e1a01007 	mov	r1, r7
  106bdc:	e1a00004 	mov	r0, r4
  106be0:	eb000eed 	bl	10a79c <_Bfree>
  106be4:	e59d3074 	ldr	r3, [sp, #116]	; 0x74
  106be8:	e3530000 	cmp	r3, #0
  106bec:	e59d3000 	ldr	r3, [sp]
  106bf0:	e2837001 	add	r7, r3, #1
  106bf4:	e3a03000 	mov	r3, #0
  106bf8:	e5cb3000 	strb	r3, [fp]
  106bfc:	e59d3010 	ldr	r3, [sp, #16]
  106c00:	e5837000 	str	r7, [r3]
  106c04:	0afffe7b 	beq	1065f8 <_dtoa_r+0xbc>
  106c08:	e59d3074 	ldr	r3, [sp, #116]	; 0x74
  106c0c:	e1a00008 	mov	r0, r8
  106c10:	e583b000 	str	fp, [r3]
  106c14:	e28dd04c 	add	sp, sp, #76	; 0x4c
  106c18:	e8bd8ff0 	pop	{r4, r5, r6, r7, r8, r9, sl, fp, pc}
  106c1c:	e59d3008 	ldr	r3, [sp, #8]
  106c20:	e0455003 	sub	r5, r5, r3
  106c24:	e2633000 	rsb	r3, r3, #0
  106c28:	e58d3024 	str	r3, [sp, #36]	; 0x24
  106c2c:	e3a03000 	mov	r3, #0
  106c30:	e58d3028 	str	r3, [sp, #40]	; 0x28
  106c34:	eafffec7 	b	106758 <_dtoa_r+0x21c>
  106c38:	e3a08000 	mov	r8, #0
  106c3c:	e1a00004 	mov	r0, r4
  106c40:	e1a01008 	mov	r1, r8
  106c44:	e5848044 	str	r8, [r4, #68]	; 0x44
  106c48:	eb000eb1 	bl	10a714 <_Balloc>
  106c4c:	e59d3044 	ldr	r3, [sp, #68]	; 0x44
  106c50:	e59d1008 	ldr	r1, [sp, #8]
  106c54:	e3e0a000 	mvn	sl, #0
  106c58:	e1530008 	cmp	r3, r8
  106c5c:	b3a02000 	movlt	r2, #0
  106c60:	a3a02001 	movge	r2, #1
  106c64:	e351000e 	cmp	r1, #14
  106c68:	c3a02000 	movgt	r2, #0
  106c6c:	e1520008 	cmp	r2, r8
  106c70:	e1a0b000 	mov	fp, r0
  106c74:	e5840040 	str	r0, [r4, #64]	; 0x40
  106c78:	1a000074 	bne	106e50 <_dtoa_r+0x914>
  106c7c:	e1a08002 	mov	r8, r2
  106c80:	e58da034 	str	sl, [sp, #52]	; 0x34
  106c84:	e3a02001 	mov	r2, #1
  106c88:	e58d2020 	str	r2, [sp, #32]
  106c8c:	e3590001 	cmp	r9, #1
  106c90:	da000217 	ble	1074f4 <_dtoa_r+0xfb8>
  106c94:	e59d3024 	ldr	r3, [sp, #36]	; 0x24
  106c98:	e24a2001 	sub	r2, sl, #1
  106c9c:	e1530002 	cmp	r3, r2
  106ca0:	a0436002 	subge	r6, r3, r2
  106ca4:	b59d3024 	ldrlt	r3, [sp, #36]	; 0x24
  106ca8:	b3a06000 	movlt	r6, #0
  106cac:	b58d2024 	strlt	r2, [sp, #36]	; 0x24
  106cb0:	b0423003 	sublt	r3, r2, r3
  106cb4:	b59d2028 	ldrlt	r2, [sp, #40]	; 0x28
  106cb8:	b0823003 	addlt	r3, r2, r3
  106cbc:	b58d3028 	strlt	r3, [sp, #40]	; 0x28
  106cc0:	e35a0000 	cmp	sl, #0
  106cc4:	a58d5030 	strge	r5, [sp, #48]	; 0x30
  106cc8:	a085500a 	addge	r5, r5, sl
  106ccc:	b045300a 	sublt	r3, r5, sl
  106cd0:	a59d3014 	ldrge	r3, [sp, #20]
  106cd4:	b58d3030 	strlt	r3, [sp, #48]	; 0x30
  106cd8:	a083300a 	addge	r3, r3, sl
  106cdc:	a58d3014 	strge	r3, [sp, #20]
  106ce0:	e3a01001 	mov	r1, #1
  106ce4:	e1a00004 	mov	r0, r4
  106ce8:	eb000f5a 	bl	10aa58 <__i2b>
  106cec:	e58d0018 	str	r0, [sp, #24]
  106cf0:	eaffff58 	b	106a58 <_dtoa_r+0x51c>
  106cf4:	e151000b 	cmp	r1, fp
  106cf8:	0a000211 	beq	107544 <_dtoa_r+0x1008>
  106cfc:	e5512001 	ldrb	r2, [r1, #-1]
  106d00:	e1a03001 	mov	r3, r1
  106d04:	e3520039 	cmp	r2, #57	; 0x39
  106d08:	e2431001 	sub	r1, r3, #1
  106d0c:	0afffff8 	beq	106cf4 <_dtoa_r+0x7b8>
  106d10:	e2822001 	add	r2, r2, #1
  106d14:	e1a0800b 	mov	r8, fp
  106d18:	e5c12000 	strb	r2, [r1]
  106d1c:	e1a0b003 	mov	fp, r3
  106d20:	eaffffac 	b	106bd8 <_dtoa_r+0x69c>
  106d24:	e30f33d8 	movw	r3, #62424	; 0xf3d8
  106d28:	e3403010 	movt	r3, #16
  106d2c:	ed9d5b06 	vldr	d5, [sp, #24]
  106d30:	e202200f 	and	r2, r2, #15
  106d34:	e3a01003 	mov	r1, #3
  106d38:	ed937b08 	vldr	d7, [r3, #32]
  106d3c:	ee854b07 	vdiv.f64	d4, d5, d7
  106d40:	eafffed7 	b	1068a4 <_dtoa_r+0x368>
  106d44:	e3a03000 	mov	r3, #0
  106d48:	e58d3020 	str	r3, [sp, #32]
  106d4c:	e59d3008 	ldr	r3, [sp, #8]
  106d50:	e0833008 	add	r3, r3, r8
  106d54:	e58d3034 	str	r3, [sp, #52]	; 0x34
  106d58:	e283a001 	add	sl, r3, #1
  106d5c:	e35a0001 	cmp	sl, #1
  106d60:	a1a0c00a 	movge	ip, sl
  106d64:	b3a0c001 	movlt	ip, #1
  106d68:	e35a000e 	cmp	sl, #14
  106d6c:	83a06000 	movhi	r6, #0
  106d70:	92066001 	andls	r6, r6, #1
  106d74:	e35c0017 	cmp	ip, #23
  106d78:	e3a01000 	mov	r1, #0
  106d7c:	e5841044 	str	r1, [r4, #68]	; 0x44
  106d80:	dafffeb2 	ble	106850 <_dtoa_r+0x314>
  106d84:	e3a02001 	mov	r2, #1
  106d88:	e3a03004 	mov	r3, #4
  106d8c:	e1a03083 	lsl	r3, r3, #1
  106d90:	e1a01002 	mov	r1, r2
  106d94:	e2830014 	add	r0, r3, #20
  106d98:	e2822001 	add	r2, r2, #1
  106d9c:	e150000c 	cmp	r0, ip
  106da0:	9afffff9 	bls	106d8c <_dtoa_r+0x850>
  106da4:	e5841044 	str	r1, [r4, #68]	; 0x44
  106da8:	eafffea8 	b	106850 <_dtoa_r+0x314>
  106dac:	e3a03000 	mov	r3, #0
  106db0:	e58d3020 	str	r3, [sp, #32]
  106db4:	e3580000 	cmp	r8, #0
  106db8:	da00013b 	ble	1072ac <_dtoa_r+0xd70>
  106dbc:	e58d8034 	str	r8, [sp, #52]	; 0x34
  106dc0:	e1a0a008 	mov	sl, r8
  106dc4:	e1a0c008 	mov	ip, r8
  106dc8:	eaffffe6 	b	106d68 <_dtoa_r+0x82c>
  106dcc:	e3a03001 	mov	r3, #1
  106dd0:	e58d3020 	str	r3, [sp, #32]
  106dd4:	eafffff6 	b	106db4 <_dtoa_r+0x878>
  106dd8:	eeb17b0c 	vmov.f64	d7, #28	; 0x40e00000  7.0
  106ddc:	ee061a90 	vmov	s13, r1
  106de0:	eeb86be6 	vcvt.f64.s32	d6, s13
  106de4:	ee067b05 	vmla.f64	d7, d6, d5
  106de8:	ed8d7b00 	vstr	d7, [sp]
  106dec:	e59d1004 	ldr	r1, [sp, #4]
  106df0:	e1cd20d0 	ldrd	r2, [sp]
  106df4:	e241350d 	sub	r3, r1, #54525952	; 0x3400000
  106df8:	eeb17b04 	vmov.f64	d7, #20	; 0x40a00000  5.0
  106dfc:	ec432b16 	vmov	d6, r2, r3
  106e00:	ee357b47 	vsub.f64	d7, d5, d7
  106e04:	eeb47bc6 	vcmpe.f64	d7, d6
  106e08:	eef1fa10 	vmrs	APSR_nzcv, fpscr
  106e0c:	ca000129 	bgt	1072b8 <_dtoa_r+0xd7c>
  106e10:	eeb16b46 	vneg.f64	d6, d6
  106e14:	eeb47bc6 	vcmpe.f64	d7, d6
  106e18:	eef1fa10 	vmrs	APSR_nzcv, fpscr
  106e1c:	5afffefc 	bpl	106a14 <_dtoa_r+0x4d8>
  106e20:	e3a06000 	mov	r6, #0
  106e24:	e58d6018 	str	r6, [sp, #24]
  106e28:	eaffff5e 	b	106ba8 <_dtoa_r+0x66c>
  106e2c:	e3a0001c 	mov	r0, #28
  106e30:	e59d3030 	ldr	r3, [sp, #48]	; 0x30
  106e34:	e0855000 	add	r5, r5, r0
  106e38:	e0833000 	add	r3, r3, r0
  106e3c:	e58d3030 	str	r3, [sp, #48]	; 0x30
  106e40:	e59d3014 	ldr	r3, [sp, #20]
  106e44:	e0833000 	add	r3, r3, r0
  106e48:	e58d3014 	str	r3, [sp, #20]
  106e4c:	eaffff39 	b	106b38 <_dtoa_r+0x5fc>
  106e50:	e59d1008 	ldr	r1, [sp, #8]
  106e54:	e35a0000 	cmp	sl, #0
  106e58:	e30f32e8 	movw	r3, #62184	; 0xf2e8
  106e5c:	e3403010 	movt	r3, #16
  106e60:	c3a02000 	movgt	r2, #0
  106e64:	d3a02001 	movle	r2, #1
  106e68:	e0833181 	add	r3, r3, r1, lsl #3
  106e6c:	e0122fa8 	ands	r2, r2, r8, lsr #31
  106e70:	ed935b00 	vldr	d5, [r3]
  106e74:	0a000134 	beq	10734c <_dtoa_r+0xe10>
  106e78:	e35a0000 	cmp	sl, #0
  106e7c:	1affffe7 	bne	106e20 <_dtoa_r+0x8e4>
  106e80:	eeb17b04 	vmov.f64	d7, #20	; 0x40a00000  5.0
  106e84:	e1a0600a 	mov	r6, sl
  106e88:	e58da018 	str	sl, [sp, #24]
  106e8c:	ee255b07 	vmul.f64	d5, d5, d7
  106e90:	ed9d7b00 	vldr	d7, [sp]
  106e94:	eeb45bc7 	vcmpe.f64	d5, d7
  106e98:	eef1fa10 	vmrs	APSR_nzcv, fpscr
  106e9c:	aaffff41 	bge	106ba8 <_dtoa_r+0x66c>
  106ea0:	e59d3008 	ldr	r3, [sp, #8]
  106ea4:	e1a0800b 	mov	r8, fp
  106ea8:	e28bb001 	add	fp, fp, #1
  106eac:	e2833001 	add	r3, r3, #1
  106eb0:	e58d3000 	str	r3, [sp]
  106eb4:	e3a03031 	mov	r3, #49	; 0x31
  106eb8:	e54b3001 	strb	r3, [fp, #-1]
  106ebc:	eaffff3c 	b	106bb4 <_dtoa_r+0x678>
  106ec0:	e1a01000 	mov	r1, r0
  106ec4:	e1a00004 	mov	r0, r4
  106ec8:	eb000f68 	bl	10ac70 <__pow5mult>
  106ecc:	e3590001 	cmp	r9, #1
  106ed0:	e1a06000 	mov	r6, r0
  106ed4:	ca0000f1 	bgt	1072a0 <_dtoa_r+0xd64>
  106ed8:	e59d3000 	ldr	r3, [sp]
  106edc:	e3530000 	cmp	r3, #0
  106ee0:	1a0000ee 	bne	1072a0 <_dtoa_r+0xd64>
  106ee4:	e1cd00d0 	ldrd	r0, [sp]
  106ee8:	e7f33051 	ubfx	r3, r1, #0, #20
  106eec:	e3530000 	cmp	r3, #0
  106ef0:	13a03000 	movne	r3, #0
  106ef4:	1a000008 	bne	106f1c <_dtoa_r+0x9e0>
  106ef8:	e3c13102 	bic	r3, r1, #-2147483648	; 0x80000000
  106efc:	e1a03a23 	lsr	r3, r3, #20
  106f00:	e1a03a03 	lsl	r3, r3, #20
  106f04:	e3530000 	cmp	r3, #0
  106f08:	12855001 	addne	r5, r5, #1
  106f0c:	159d3014 	ldrne	r3, [sp, #20]
  106f10:	12833001 	addne	r3, r3, #1
  106f14:	158d3014 	strne	r3, [sp, #20]
  106f18:	13a03001 	movne	r3, #1
  106f1c:	e59d2028 	ldr	r2, [sp, #40]	; 0x28
  106f20:	e58d3028 	str	r3, [sp, #40]	; 0x28
  106f24:	e3520000 	cmp	r2, #0
  106f28:	0afffef3 	beq	106afc <_dtoa_r+0x5c0>
  106f2c:	e5963010 	ldr	r3, [r6, #16]
  106f30:	e0863103 	add	r3, r6, r3, lsl #2
  106f34:	e5930010 	ldr	r0, [r3, #16]
  106f38:	eb000e8a 	bl	10a968 <__hi0bits>
  106f3c:	e2600020 	rsb	r0, r0, #32
  106f40:	eafffeee 	b	106b00 <_dtoa_r+0x5c4>
  106f44:	e59d3020 	ldr	r3, [sp, #32]
  106f48:	e3530000 	cmp	r3, #0
  106f4c:	0a00009a 	beq	1071bc <_dtoa_r+0xc80>
  106f50:	e59d3030 	ldr	r3, [sp, #48]	; 0x30
  106f54:	e3530000 	cmp	r3, #0
  106f58:	da000004 	ble	106f70 <_dtoa_r+0xa34>
  106f5c:	e1a02003 	mov	r2, r3
  106f60:	e59d1018 	ldr	r1, [sp, #24]
  106f64:	e1a00004 	mov	r0, r4
  106f68:	eb000f7e 	bl	10ad68 <__lshift>
  106f6c:	e58d0018 	str	r0, [sp, #24]
  106f70:	e59d3028 	ldr	r3, [sp, #40]	; 0x28
  106f74:	e3530000 	cmp	r3, #0
  106f78:	059d3018 	ldreq	r3, [sp, #24]
  106f7c:	058d3028 	streq	r3, [sp, #40]	; 0x28
  106f80:	1a00019c 	bne	1075f8 <_dtoa_r+0x10bc>
  106f84:	e59d2000 	ldr	r2, [sp]
  106f88:	e24b3001 	sub	r3, fp, #1
  106f8c:	e083300a 	add	r3, r3, sl
  106f90:	e1a0800b 	mov	r8, fp
  106f94:	e2022001 	and	r2, r2, #1
  106f98:	e58db02c 	str	fp, [sp, #44]	; 0x2c
  106f9c:	e1a05006 	mov	r5, r6
  106fa0:	e1a0b009 	mov	fp, r9
  106fa4:	e58d2020 	str	r2, [sp, #32]
  106fa8:	e58d3024 	str	r3, [sp, #36]	; 0x24
  106fac:	e59d6018 	ldr	r6, [sp, #24]
  106fb0:	e59d9028 	ldr	r9, [sp, #40]	; 0x28
  106fb4:	ea000008 	b	106fdc <_dtoa_r+0xaa0>
  106fb8:	eb000dfe 	bl	10a7b8 <__multadd>
  106fbc:	e1a01009 	mov	r1, r9
  106fc0:	e3a03000 	mov	r3, #0
  106fc4:	e3a0200a 	mov	r2, #10
  106fc8:	e1a06000 	mov	r6, r0
  106fcc:	e1a00004 	mov	r0, r4
  106fd0:	eb000df8 	bl	10a7b8 <__multadd>
  106fd4:	e1a09000 	mov	r9, r0
  106fd8:	e1a0800a 	mov	r8, sl
  106fdc:	e1a01005 	mov	r1, r5
  106fe0:	e1a00007 	mov	r0, r7
  106fe4:	ebfffce3 	bl	106378 <quorem>
  106fe8:	e1a01006 	mov	r1, r6
  106fec:	e58d0014 	str	r0, [sp, #20]
  106ff0:	e1a00007 	mov	r0, r7
  106ff4:	eb000f99 	bl	10ae60 <__mcmp>
  106ff8:	e1a02009 	mov	r2, r9
  106ffc:	e1a01005 	mov	r1, r5
  107000:	e1a0a000 	mov	sl, r0
  107004:	e1a00004 	mov	r0, r4
  107008:	eb000fab 	bl	10aebc <__mdiff>
  10700c:	e59d1014 	ldr	r1, [sp, #20]
  107010:	e2811030 	add	r1, r1, #48	; 0x30
  107014:	e58d1000 	str	r1, [sp]
  107018:	e590200c 	ldr	r2, [r0, #12]
  10701c:	e1a03000 	mov	r3, r0
  107020:	e3520000 	cmp	r2, #0
  107024:	13a02001 	movne	r2, #1
  107028:	1a000005 	bne	107044 <_dtoa_r+0xb08>
  10702c:	e1a01000 	mov	r1, r0
  107030:	e58d0018 	str	r0, [sp, #24]
  107034:	e1a00007 	mov	r0, r7
  107038:	eb000f88 	bl	10ae60 <__mcmp>
  10703c:	e59d3018 	ldr	r3, [sp, #24]
  107040:	e1a02000 	mov	r2, r0
  107044:	e1a01003 	mov	r1, r3
  107048:	e1a00004 	mov	r0, r4
  10704c:	e58d2018 	str	r2, [sp, #24]
  107050:	eb000dd1 	bl	10a79c <_Bfree>
  107054:	e59d2018 	ldr	r2, [sp, #24]
  107058:	e192300b 	orrs	r3, r2, fp
  10705c:	1a000002 	bne	10706c <_dtoa_r+0xb30>
  107060:	e59d3020 	ldr	r3, [sp, #32]
  107064:	e3530000 	cmp	r3, #0
  107068:	0a00019c 	beq	1076e0 <_dtoa_r+0x11a4>
  10706c:	e35a0000 	cmp	sl, #0
  107070:	ba000151 	blt	1075bc <_dtoa_r+0x1080>
  107074:	e19a300b 	orrs	r3, sl, fp
  107078:	1a000002 	bne	107088 <_dtoa_r+0xb4c>
  10707c:	e59d3020 	ldr	r3, [sp, #32]
  107080:	e3530000 	cmp	r3, #0
  107084:	0a00014c 	beq	1075bc <_dtoa_r+0x1080>
  107088:	e3520000 	cmp	r2, #0
  10708c:	e288a001 	add	sl, r8, #1
  107090:	ca000169 	bgt	10763c <_dtoa_r+0x1100>
  107094:	e59d3024 	ldr	r3, [sp, #36]	; 0x24
  107098:	e1530008 	cmp	r3, r8
  10709c:	e59d3000 	ldr	r3, [sp]
  1070a0:	e5c83000 	strb	r3, [r8]
  1070a4:	0a000170 	beq	10766c <_dtoa_r+0x1130>
  1070a8:	e1a01007 	mov	r1, r7
  1070ac:	e3a03000 	mov	r3, #0
  1070b0:	e3a0200a 	mov	r2, #10
  1070b4:	e1a00004 	mov	r0, r4
  1070b8:	eb000dbe 	bl	10a7b8 <__multadd>
  1070bc:	e1560009 	cmp	r6, r9
  1070c0:	e1a01006 	mov	r1, r6
  1070c4:	e3a03000 	mov	r3, #0
  1070c8:	e3a0200a 	mov	r2, #10
  1070cc:	e1a07000 	mov	r7, r0
  1070d0:	e1a00004 	mov	r0, r4
  1070d4:	1affffb7 	bne	106fb8 <_dtoa_r+0xa7c>
  1070d8:	eb000db6 	bl	10a7b8 <__multadd>
  1070dc:	e1a06000 	mov	r6, r0
  1070e0:	e1a09000 	mov	r9, r0
  1070e4:	eaffffbb 	b	106fd8 <_dtoa_r+0xa9c>
  1070e8:	0a0000d6 	beq	107448 <_dtoa_r+0xf0c>
  1070ec:	e59d3008 	ldr	r3, [sp, #8]
  1070f0:	ed9d7b06 	vldr	d7, [sp, #24]
  1070f4:	e2632000 	rsb	r2, r3, #0
  1070f8:	e30f32e8 	movw	r3, #62184	; 0xf2e8
  1070fc:	e202100f 	and	r1, r2, #15
  107100:	e3403010 	movt	r3, #16
  107104:	e1b02242 	asrs	r2, r2, #4
  107108:	e0833181 	add	r3, r3, r1, lsl #3
  10710c:	03a01002 	moveq	r1, #2
  107110:	ed935b00 	vldr	d5, [r3]
  107114:	ee275b05 	vmul.f64	d5, d7, d5
  107118:	0afffded 	beq	1068d4 <_dtoa_r+0x398>
  10711c:	e30f33d8 	movw	r3, #62424	; 0xf3d8
  107120:	e3403010 	movt	r3, #16
  107124:	e3a00000 	mov	r0, #0
  107128:	e3a01002 	mov	r1, #2
  10712c:	eeb07b45 	vmov.f64	d7, d5
  107130:	e3120001 	tst	r2, #1
  107134:	e2833008 	add	r3, r3, #8
  107138:	12811001 	addne	r1, r1, #1
  10713c:	1d136b02 	vldrne	d6, [r3, #-8]
  107140:	11a00006 	movne	r0, r6
  107144:	1e277b06 	vmulne.f64	d7, d7, d6
  107148:	e1b020c2 	asrs	r2, r2, #1
  10714c:	1afffff7 	bne	107130 <_dtoa_r+0xbf4>
  107150:	e3500000 	cmp	r0, #0
  107154:	1eb05b47 	vmovne.f64	d5, d7
  107158:	eafffddd 	b	1068d4 <_dtoa_r+0x398>
  10715c:	e1a01006 	mov	r1, r6
  107160:	e1a00007 	mov	r0, r7
  107164:	eb000f3d 	bl	10ae60 <__mcmp>
  107168:	e3500000 	cmp	r0, #0
  10716c:	aafffe86 	bge	106b8c <_dtoa_r+0x650>
  107170:	e59dc034 	ldr	ip, [sp, #52]	; 0x34
  107174:	e3a03000 	mov	r3, #0
  107178:	e1a01007 	mov	r1, r7
  10717c:	e3a0200a 	mov	r2, #10
  107180:	e1a00004 	mov	r0, r4
  107184:	e15c0003 	cmp	ip, r3
  107188:	c3a05000 	movgt	r5, #0
  10718c:	d2055001 	andle	r5, r5, #1
  107190:	eb000d88 	bl	10a7b8 <__multadd>
  107194:	e59d3020 	ldr	r3, [sp, #32]
  107198:	e3530000 	cmp	r3, #0
  10719c:	e59d3008 	ldr	r3, [sp, #8]
  1071a0:	e2433001 	sub	r3, r3, #1
  1071a4:	e58d3008 	str	r3, [sp, #8]
  1071a8:	e1a07000 	mov	r7, r0
  1071ac:	1a000156 	bne	10770c <_dtoa_r+0x11d0>
  1071b0:	e3550000 	cmp	r5, #0
  1071b4:	e59da034 	ldr	sl, [sp, #52]	; 0x34
  1071b8:	1afffe78 	bne	106ba0 <_dtoa_r+0x664>
  1071bc:	e1a0500b 	mov	r5, fp
  1071c0:	ea000001 	b	1071cc <_dtoa_r+0xc90>
  1071c4:	eb000d7b 	bl	10a7b8 <__multadd>
  1071c8:	e1a07000 	mov	r7, r0
  1071cc:	e1a01006 	mov	r1, r6
  1071d0:	e1a00007 	mov	r0, r7
  1071d4:	ebfffc67 	bl	106378 <quorem>
  1071d8:	e3a03000 	mov	r3, #0
  1071dc:	e3a0200a 	mov	r2, #10
  1071e0:	e1a01007 	mov	r1, r7
  1071e4:	e280c030 	add	ip, r0, #48	; 0x30
  1071e8:	e4c5c001 	strb	ip, [r5], #1
  1071ec:	e045e00b 	sub	lr, r5, fp
  1071f0:	e1a00004 	mov	r0, r4
  1071f4:	e15e000a 	cmp	lr, sl
  1071f8:	bafffff1 	blt	1071c4 <_dtoa_r+0xc88>
  1071fc:	e3a0a000 	mov	sl, #0
  107200:	e58dc000 	str	ip, [sp]
  107204:	e1a01007 	mov	r1, r7
  107208:	e3a02001 	mov	r2, #1
  10720c:	e1a00004 	mov	r0, r4
  107210:	eb000ed4 	bl	10ad68 <__lshift>
  107214:	e1a01006 	mov	r1, r6
  107218:	e1a07000 	mov	r7, r0
  10721c:	eb000f0f 	bl	10ae60 <__mcmp>
  107220:	e5552001 	ldrb	r2, [r5, #-1]
  107224:	e3500000 	cmp	r0, #0
  107228:	ca000004 	bgt	107240 <_dtoa_r+0xd04>
  10722c:	ea0000d5 	b	107588 <_dtoa_r+0x104c>
  107230:	e153000b 	cmp	r3, fp
  107234:	0a0000ca 	beq	107564 <_dtoa_r+0x1028>
  107238:	e5532001 	ldrb	r2, [r3, #-1]
  10723c:	e1a05003 	mov	r5, r3
  107240:	e3520039 	cmp	r2, #57	; 0x39
  107244:	e2453001 	sub	r3, r5, #1
  107248:	0afffff8 	beq	107230 <_dtoa_r+0xcf4>
  10724c:	e59d1008 	ldr	r1, [sp, #8]
  107250:	e2822001 	add	r2, r2, #1
  107254:	e5c32000 	strb	r2, [r3]
  107258:	e58d1000 	str	r1, [sp]
  10725c:	e1a01006 	mov	r1, r6
  107260:	e1a00004 	mov	r0, r4
  107264:	eb000d4c 	bl	10a79c <_Bfree>
  107268:	e59d3018 	ldr	r3, [sp, #24]
  10726c:	e3530000 	cmp	r3, #0
  107270:	0a0000c1 	beq	10757c <_dtoa_r+0x1040>
  107274:	e35a0000 	cmp	sl, #0
  107278:	115a0003 	cmpne	sl, r3
  10727c:	01a0800b 	moveq	r8, fp
  107280:	01a0b005 	moveq	fp, r5
  107284:	0afffe50 	beq	106bcc <_dtoa_r+0x690>
  107288:	e1a0100a 	mov	r1, sl
  10728c:	e1a00004 	mov	r0, r4
  107290:	e1a0800b 	mov	r8, fp
  107294:	eb000d40 	bl	10a79c <_Bfree>
  107298:	e1a0b005 	mov	fp, r5
  10729c:	eafffe4a 	b	106bcc <_dtoa_r+0x690>
  1072a0:	e3a03000 	mov	r3, #0
  1072a4:	e58d3028 	str	r3, [sp, #40]	; 0x28
  1072a8:	eaffff1f 	b	106f2c <_dtoa_r+0x9f0>
  1072ac:	e3a08001 	mov	r8, #1
  1072b0:	e1a0a008 	mov	sl, r8
  1072b4:	eafffd62 	b	106844 <_dtoa_r+0x308>
  1072b8:	e3a06000 	mov	r6, #0
  1072bc:	e58d6018 	str	r6, [sp, #24]
  1072c0:	eafffef6 	b	106ea0 <_dtoa_r+0x964>
  1072c4:	e3510001 	cmp	r1, #1
  1072c8:	ee246b03 	vmul.f64	d6, d4, d3
  1072cc:	e5cb2000 	strb	r2, [fp]
  1072d0:	0a00000a 	beq	107300 <_dtoa_r+0xdc4>
  1072d4:	e08b1001 	add	r1, fp, r1
  1072d8:	eeb23b04 	vmov.f64	d3, #36	; 0x41200000  10.0
  1072dc:	ee275b03 	vmul.f64	d5, d7, d3
  1072e0:	eefd7bc5 	vcvt.s32.f64	s15, d5
  1072e4:	ee172a90 	vmov	r2, s15
  1072e8:	eeb84be7 	vcvt.f64.s32	d4, s15
  1072ec:	ee357b44 	vsub.f64	d7, d5, d4
  1072f0:	e2822030 	add	r2, r2, #48	; 0x30
  1072f4:	e4c32001 	strb	r2, [r3], #1
  1072f8:	e1530001 	cmp	r3, r1
  1072fc:	1afffff6 	bne	1072dc <_dtoa_r+0xda0>
  107300:	eeb65b00 	vmov.f64	d5, #96	; 0x3f000000  0.5
  107304:	ee364b05 	vadd.f64	d4, d6, d5
  107308:	eeb44bc7 	vcmpe.f64	d4, d7
  10730c:	eef1fa10 	vmrs	APSR_nzcv, fpscr
  107310:	4a000038 	bmi	1073f8 <_dtoa_r+0xebc>
  107314:	ee356b46 	vsub.f64	d6, d5, d6
  107318:	eeb46bc7 	vcmpe.f64	d6, d7
  10731c:	eef1fa10 	vmrs	APSR_nzcv, fpscr
  107320:	ca000001 	bgt	10732c <_dtoa_r+0xdf0>
  107324:	eafffdba 	b	106a14 <_dtoa_r+0x4d8>
  107328:	e1a03001 	mov	r3, r1
  10732c:	e5532001 	ldrb	r2, [r3, #-1]
  107330:	e2431001 	sub	r1, r3, #1
  107334:	e3520030 	cmp	r2, #48	; 0x30
  107338:	0afffffa 	beq	107328 <_dtoa_r+0xdec>
  10733c:	eafffdaa 	b	1069ec <_dtoa_r+0x4b0>
  107340:	e3a03001 	mov	r3, #1
  107344:	e58d3020 	str	r3, [sp, #32]
  107348:	eafffe7f 	b	106d4c <_dtoa_r+0x810>
  10734c:	ed9d7b00 	vldr	d7, [sp]
  107350:	e35a0001 	cmp	sl, #1
  107354:	e28b3001 	add	r3, fp, #1
  107358:	ee876b05 	vdiv.f64	d6, d7, d5
  10735c:	eebd6bc6 	vcvt.s32.f64	s12, d6
  107360:	ee162a10 	vmov	r2, s12
  107364:	eeb84bc6 	vcvt.f64.s32	d4, s12
  107368:	ee047b45 	vmls.f64	d7, d4, d5
  10736c:	e2822030 	add	r2, r2, #48	; 0x30
  107370:	e5cb2000 	strb	r2, [fp]
  107374:	0a000013 	beq	1073c8 <_dtoa_r+0xe8c>
  107378:	eeb23b04 	vmov.f64	d3, #36	; 0x41200000  10.0
  10737c:	ee277b03 	vmul.f64	d7, d7, d3
  107380:	eeb57b40 	vcmp.f64	d7, #0.0
  107384:	eef1fa10 	vmrs	APSR_nzcv, fpscr
  107388:	1a000004 	bne	1073a0 <_dtoa_r+0xe64>
  10738c:	ea000067 	b	107530 <_dtoa_r+0xff4>
  107390:	ee277b03 	vmul.f64	d7, d7, d3
  107394:	eeb57b40 	vcmp.f64	d7, #0.0
  107398:	eef1fa10 	vmrs	APSR_nzcv, fpscr
  10739c:	0a000063 	beq	107530 <_dtoa_r+0xff4>
  1073a0:	ee876b05 	vdiv.f64	d6, d7, d5
  1073a4:	eebd6bc6 	vcvt.s32.f64	s12, d6
  1073a8:	ee162a10 	vmov	r2, s12
  1073ac:	eeb84bc6 	vcvt.f64.s32	d4, s12
  1073b0:	ee047b45 	vmls.f64	d7, d4, d5
  1073b4:	e2822030 	add	r2, r2, #48	; 0x30
  1073b8:	e4c32001 	strb	r2, [r3], #1
  1073bc:	e043200b 	sub	r2, r3, fp
  1073c0:	e152000a 	cmp	r2, sl
  1073c4:	1afffff1 	bne	107390 <_dtoa_r+0xe54>
  1073c8:	ee377b07 	vadd.f64	d7, d7, d7
  1073cc:	eeb47bc5 	vcmpe.f64	d7, d5
  1073d0:	eef1fa10 	vmrs	APSR_nzcv, fpscr
  1073d4:	ca000005 	bgt	1073f0 <_dtoa_r+0xeb4>
  1073d8:	eeb47b45 	vcmp.f64	d7, d5
  1073dc:	eef1fa10 	vmrs	APSR_nzcv, fpscr
  1073e0:	1a000052 	bne	107530 <_dtoa_r+0xff4>
  1073e4:	ee162a10 	vmov	r2, s12
  1073e8:	e3120001 	tst	r2, #1
  1073ec:	0a00004f 	beq	107530 <_dtoa_r+0xff4>
  1073f0:	e59d2008 	ldr	r2, [sp, #8]
  1073f4:	e58d2000 	str	r2, [sp]
  1073f8:	e5532001 	ldrb	r2, [r3, #-1]
  1073fc:	eafffe40 	b	106d04 <_dtoa_r+0x7c8>
  107400:	e1a01006 	mov	r1, r6
  107404:	e1a0300a 	mov	r3, sl
  107408:	e3a02005 	mov	r2, #5
  10740c:	e1a00004 	mov	r0, r4
  107410:	eb000ce8 	bl	10a7b8 <__multadd>
  107414:	e1a01000 	mov	r1, r0
  107418:	e1a06000 	mov	r6, r0
  10741c:	e1a00007 	mov	r0, r7
  107420:	eb000e8e 	bl	10ae60 <__mcmp>
  107424:	e3500000 	cmp	r0, #0
  107428:	cafffe9c 	bgt	106ea0 <_dtoa_r+0x964>
  10742c:	eafffddd 	b	106ba8 <_dtoa_r+0x66c>
  107430:	e1a01007 	mov	r1, r7
  107434:	e59d2024 	ldr	r2, [sp, #36]	; 0x24
  107438:	e1a00004 	mov	r0, r4
  10743c:	eb000e0b 	bl	10ac70 <__pow5mult>
  107440:	e1a07000 	mov	r7, r0
  107444:	eafffda3 	b	106ad8 <_dtoa_r+0x59c>
  107448:	ed9d5b06 	vldr	d5, [sp, #24]
  10744c:	e3a01002 	mov	r1, #2
  107450:	eafffd1f 	b	1068d4 <_dtoa_r+0x398>
  107454:	e35a0000 	cmp	sl, #0
  107458:	0afffe5e 	beq	106dd8 <_dtoa_r+0x89c>
  10745c:	e59d3034 	ldr	r3, [sp, #52]	; 0x34
  107460:	e3530000 	cmp	r3, #0
  107464:	dafffd6a 	ble	106a14 <_dtoa_r+0x4d8>
  107468:	eeb26b04 	vmov.f64	d6, #36	; 0x41200000  10.0
  10746c:	e2812001 	add	r2, r1, #1
  107470:	e1a01003 	mov	r1, r3
  107474:	ee072a10 	vmov	s14, r2
  107478:	e59d2008 	ldr	r2, [sp, #8]
  10747c:	e2422001 	sub	r2, r2, #1
  107480:	e58d2000 	str	r2, [sp]
  107484:	ee255b06 	vmul.f64	d5, d5, d6
  107488:	eeb16b0c 	vmov.f64	d6, #28	; 0x40e00000  7.0
  10748c:	eeb87bc7 	vcvt.f64.s32	d7, s14
  107490:	ee076b05 	vmla.f64	d6, d7, d5
  107494:	ed8d6b0e 	vstr	d6, [sp, #56]	; 0x38
  107498:	e59d003c 	ldr	r0, [sp, #60]	; 0x3c
  10749c:	e1cd23d8 	ldrd	r2, [sp, #56]	; 0x38
  1074a0:	e240350d 	sub	r3, r0, #54525952	; 0x3400000
  1074a4:	eafffd1e 	b	106924 <_dtoa_r+0x3e8>
  1074a8:	e1a02006 	mov	r2, r6
  1074ac:	e59d1018 	ldr	r1, [sp, #24]
  1074b0:	e1a00004 	mov	r0, r4
  1074b4:	e58d3024 	str	r3, [sp, #36]	; 0x24
  1074b8:	eb000dec 	bl	10ac70 <__pow5mult>
  1074bc:	e1a02007 	mov	r2, r7
  1074c0:	e1a01000 	mov	r1, r0
  1074c4:	e58d0018 	str	r0, [sp, #24]
  1074c8:	e1a00004 	mov	r0, r4
  1074cc:	eb000d69 	bl	10aa78 <__multiply>
  1074d0:	e1a01007 	mov	r1, r7
  1074d4:	e1a06000 	mov	r6, r0
  1074d8:	e1a00004 	mov	r0, r4
  1074dc:	eb000cae 	bl	10a79c <_Bfree>
  1074e0:	e59d3024 	ldr	r3, [sp, #36]	; 0x24
  1074e4:	e1a07006 	mov	r7, r6
  1074e8:	e3530000 	cmp	r3, #0
  1074ec:	0afffd79 	beq	106ad8 <_dtoa_r+0x59c>
  1074f0:	eafffd73 	b	106ac4 <_dtoa_r+0x588>
  1074f4:	e59d2030 	ldr	r2, [sp, #48]	; 0x30
  1074f8:	e3520000 	cmp	r2, #0
  1074fc:	e59d2014 	ldr	r2, [sp, #20]
  107500:	12833e43 	addne	r3, r3, #1072	; 0x430
  107504:	158d5030 	strne	r5, [sp, #48]	; 0x30
  107508:	059d3040 	ldreq	r3, [sp, #64]	; 0x40
  10750c:	12833003 	addne	r3, r3, #3
  107510:	058d5030 	streq	r5, [sp, #48]	; 0x30
  107514:	02633036 	rsbeq	r3, r3, #54	; 0x36
  107518:	159d6024 	ldrne	r6, [sp, #36]	; 0x24
  10751c:	e0822003 	add	r2, r2, r3
  107520:	059d6024 	ldreq	r6, [sp, #36]	; 0x24
  107524:	e58d2014 	str	r2, [sp, #20]
  107528:	e0855003 	add	r5, r5, r3
  10752c:	eafffdeb 	b	106ce0 <_dtoa_r+0x7a4>
  107530:	e59d2008 	ldr	r2, [sp, #8]
  107534:	e1a0800b 	mov	r8, fp
  107538:	e1a0b003 	mov	fp, r3
  10753c:	e58d2000 	str	r2, [sp]
  107540:	eafffda4 	b	106bd8 <_dtoa_r+0x69c>
  107544:	e59d2000 	ldr	r2, [sp]
  107548:	e1a0100b 	mov	r1, fp
  10754c:	e2822001 	add	r2, r2, #1
  107550:	e58d2000 	str	r2, [sp]
  107554:	e3a02030 	mov	r2, #48	; 0x30
  107558:	e5cb2000 	strb	r2, [fp]
  10755c:	e5532001 	ldrb	r2, [r3, #-1]
  107560:	eafffdea 	b	106d10 <_dtoa_r+0x7d4>
  107564:	e59d3008 	ldr	r3, [sp, #8]
  107568:	e2833001 	add	r3, r3, #1
  10756c:	e58d3000 	str	r3, [sp]
  107570:	e3a03031 	mov	r3, #49	; 0x31
  107574:	e5cb3000 	strb	r3, [fp]
  107578:	eaffff37 	b	10725c <_dtoa_r+0xd20>
  10757c:	e1a0800b 	mov	r8, fp
  107580:	e1a0b005 	mov	fp, r5
  107584:	eafffd93 	b	106bd8 <_dtoa_r+0x69c>
  107588:	1a000005 	bne	1075a4 <_dtoa_r+0x1068>
  10758c:	e59d3000 	ldr	r3, [sp]
  107590:	e3130001 	tst	r3, #1
  107594:	1affff29 	bne	107240 <_dtoa_r+0xd04>
  107598:	ea000001 	b	1075a4 <_dtoa_r+0x1068>
  10759c:	e5552002 	ldrb	r2, [r5, #-2]
  1075a0:	e1a05003 	mov	r5, r3
  1075a4:	e3520030 	cmp	r2, #48	; 0x30
  1075a8:	e2453001 	sub	r3, r5, #1
  1075ac:	0afffffa 	beq	10759c <_dtoa_r+0x1060>
  1075b0:	e59d3008 	ldr	r3, [sp, #8]
  1075b4:	e58d3000 	str	r3, [sp]
  1075b8:	eaffff27 	b	10725c <_dtoa_r+0xd20>
  1075bc:	e3520000 	cmp	r2, #0
  1075c0:	e58d6018 	str	r6, [sp, #24]
  1075c4:	e59db02c 	ldr	fp, [sp, #44]	; 0x2c
  1075c8:	e1a06005 	mov	r6, r5
  1075cc:	e58d9028 	str	r9, [sp, #40]	; 0x28
  1075d0:	e2885001 	add	r5, r8, #1
  1075d4:	ca00002b 	bgt	107688 <_dtoa_r+0x114c>
  1075d8:	e59da018 	ldr	sl, [sp, #24]
  1075dc:	e59d3000 	ldr	r3, [sp]
  1075e0:	e5c83000 	strb	r3, [r8]
  1075e4:	e59d3028 	ldr	r3, [sp, #40]	; 0x28
  1075e8:	e58d3018 	str	r3, [sp, #24]
  1075ec:	e59d3008 	ldr	r3, [sp, #8]
  1075f0:	e58d3000 	str	r3, [sp]
  1075f4:	eaffff18 	b	10725c <_dtoa_r+0xd20>
  1075f8:	e59d8018 	ldr	r8, [sp, #24]
  1075fc:	e1a00004 	mov	r0, r4
  107600:	e5981004 	ldr	r1, [r8, #4]
  107604:	eb000c42 	bl	10a714 <_Balloc>
  107608:	e5982010 	ldr	r2, [r8, #16]
  10760c:	e288100c 	add	r1, r8, #12
  107610:	e2822002 	add	r2, r2, #2
  107614:	e1a02102 	lsl	r2, r2, #2
  107618:	e1a05000 	mov	r5, r0
  10761c:	e280000c 	add	r0, r0, #12
  107620:	ebffeba6 	bl	1024c0 <memcpy>
  107624:	e1a01005 	mov	r1, r5
  107628:	e3a02001 	mov	r2, #1
  10762c:	e1a00004 	mov	r0, r4
  107630:	eb000dcc 	bl	10ad68 <__lshift>
  107634:	e58d0028 	str	r0, [sp, #40]	; 0x28
  107638:	eafffe51 	b	106f84 <_dtoa_r+0xa48>
  10763c:	e59d3000 	ldr	r3, [sp]
  107640:	e58d6018 	str	r6, [sp, #24]
  107644:	e1a06005 	mov	r6, r5
  107648:	e3530039 	cmp	r3, #57	; 0x39
  10764c:	e59db02c 	ldr	fp, [sp, #44]	; 0x2c
  107650:	e58d9028 	str	r9, [sp, #40]	; 0x28
  107654:	e1a0500a 	mov	r5, sl
  107658:	0a00001a 	beq	1076c8 <_dtoa_r+0x118c>
  10765c:	e59d3000 	ldr	r3, [sp]
  107660:	e59da018 	ldr	sl, [sp, #24]
  107664:	e2833001 	add	r3, r3, #1
  107668:	eaffffdc 	b	1075e0 <_dtoa_r+0x10a4>
  10766c:	e1a03006 	mov	r3, r6
  107670:	e59db02c 	ldr	fp, [sp, #44]	; 0x2c
  107674:	e1a06005 	mov	r6, r5
  107678:	e58d9018 	str	r9, [sp, #24]
  10767c:	e1a0500a 	mov	r5, sl
  107680:	e1a0a003 	mov	sl, r3
  107684:	eafffede 	b	107204 <_dtoa_r+0xcc8>
  107688:	e1a01007 	mov	r1, r7
  10768c:	e3a02001 	mov	r2, #1
  107690:	e1a00004 	mov	r0, r4
  107694:	eb000db3 	bl	10ad68 <__lshift>
  107698:	e1a01006 	mov	r1, r6
  10769c:	e1a07000 	mov	r7, r0
  1076a0:	eb000dee 	bl	10ae60 <__mcmp>
  1076a4:	e3500000 	cmp	r0, #0
  1076a8:	da000021 	ble	107734 <_dtoa_r+0x11f8>
  1076ac:	e59d3000 	ldr	r3, [sp]
  1076b0:	e3530039 	cmp	r3, #57	; 0x39
  1076b4:	0a000003 	beq	1076c8 <_dtoa_r+0x118c>
  1076b8:	e59d3014 	ldr	r3, [sp, #20]
  1076bc:	e2833031 	add	r3, r3, #49	; 0x31
  1076c0:	e58d3000 	str	r3, [sp]
  1076c4:	eaffffc3 	b	1075d8 <_dtoa_r+0x109c>
  1076c8:	e59d3028 	ldr	r3, [sp, #40]	; 0x28
  1076cc:	e3a02039 	mov	r2, #57	; 0x39
  1076d0:	e59da018 	ldr	sl, [sp, #24]
  1076d4:	e5c82000 	strb	r2, [r8]
  1076d8:	e58d3018 	str	r3, [sp, #24]
  1076dc:	eafffed7 	b	107240 <_dtoa_r+0xd04>
  1076e0:	e59d3000 	ldr	r3, [sp]
  1076e4:	e58d6018 	str	r6, [sp, #24]
  1076e8:	e1a06005 	mov	r6, r5
  1076ec:	e3530039 	cmp	r3, #57	; 0x39
  1076f0:	e59db02c 	ldr	fp, [sp, #44]	; 0x2c
  1076f4:	e58d9028 	str	r9, [sp, #40]	; 0x28
  1076f8:	e2885001 	add	r5, r8, #1
  1076fc:	0afffff1 	beq	1076c8 <_dtoa_r+0x118c>
  107700:	e35a0000 	cmp	sl, #0
  107704:	caffffeb 	bgt	1076b8 <_dtoa_r+0x117c>
  107708:	eaffffb2 	b	1075d8 <_dtoa_r+0x109c>
  10770c:	e59d1018 	ldr	r1, [sp, #24]
  107710:	e3a03000 	mov	r3, #0
  107714:	e3a0200a 	mov	r2, #10
  107718:	e1a00004 	mov	r0, r4
  10771c:	eb000c25 	bl	10a7b8 <__multadd>
  107720:	e3550000 	cmp	r5, #0
  107724:	e59da034 	ldr	sl, [sp, #52]	; 0x34
  107728:	e58d0018 	str	r0, [sp, #24]
  10772c:	1afffd1b 	bne	106ba0 <_dtoa_r+0x664>
  107730:	eafffe06 	b	106f50 <_dtoa_r+0xa14>
  107734:	1affffa7 	bne	1075d8 <_dtoa_r+0x109c>
  107738:	e59d3000 	ldr	r3, [sp]
  10773c:	e3130001 	tst	r3, #1
  107740:	0affffa4 	beq	1075d8 <_dtoa_r+0x109c>
  107744:	eaffffd8 	b	1076ac <_dtoa_r+0x1170>
  107748:	1260003c 	rsbne	r0, r0, #60	; 0x3c
  10774c:	1afffdb7 	bne	106e30 <_dtoa_r+0x8f4>
  107750:	eafffcf8 	b	106b38 <_dtoa_r+0x5fc>
  107754:	e59d3000 	ldr	r3, [sp]
  107758:	e3530000 	cmp	r3, #0
  10775c:	0afffde0 	beq	106ee4 <_dtoa_r+0x9a8>
  107760:	eafffce5 	b	106afc <_dtoa_r+0x5c0>

00107764 <__sflush_r>:
  107764:	e1d130fc 	ldrsh	r3, [r1, #12]
  107768:	e92d41f0 	push	{r4, r5, r6, r7, r8, lr}
  10776c:	e1a04001 	mov	r4, r1
  107770:	e6ff2073 	uxth	r2, r3
  107774:	e1a07000 	mov	r7, r0
  107778:	e3120008 	tst	r2, #8
  10777c:	1a00003c 	bne	107874 <__sflush_r+0x110>
  107780:	e5912004 	ldr	r2, [r1, #4]
  107784:	e3833b02 	orr	r3, r3, #2048	; 0x800
  107788:	e1c130bc 	strh	r3, [r1, #12]
  10778c:	e3520000 	cmp	r2, #0
  107790:	da000055 	ble	1078ec <__sflush_r+0x188>
  107794:	e5946028 	ldr	r6, [r4, #40]	; 0x28
  107798:	e3560000 	cmp	r6, #0
  10779c:	0a000055 	beq	1078f8 <__sflush_r+0x194>
  1077a0:	e6ff3073 	uxth	r3, r3
  1077a4:	e5978000 	ldr	r8, [r7]
  1077a8:	e2135a01 	ands	r5, r3, #4096	; 0x1000
  1077ac:	e3a02000 	mov	r2, #0
  1077b0:	e594101c 	ldr	r1, [r4, #28]
  1077b4:	e5872000 	str	r2, [r7]
  1077b8:	15940050 	ldrne	r0, [r4, #80]	; 0x50
  1077bc:	1a000008 	bne	1077e4 <__sflush_r+0x80>
  1077c0:	e3a03001 	mov	r3, #1
  1077c4:	e1a02005 	mov	r2, r5
  1077c8:	e1a00007 	mov	r0, r7
  1077cc:	e12fff36 	blx	r6
  1077d0:	e3700001 	cmn	r0, #1
  1077d4:	0a000049 	beq	107900 <__sflush_r+0x19c>
  1077d8:	e1d430bc 	ldrh	r3, [r4, #12]
  1077dc:	e5946028 	ldr	r6, [r4, #40]	; 0x28
  1077e0:	e594101c 	ldr	r1, [r4, #28]
  1077e4:	e3130004 	tst	r3, #4
  1077e8:	0a000005 	beq	107804 <__sflush_r+0xa0>
  1077ec:	e5942030 	ldr	r2, [r4, #48]	; 0x30
  1077f0:	e5943004 	ldr	r3, [r4, #4]
  1077f4:	e3520000 	cmp	r2, #0
  1077f8:	e0400003 	sub	r0, r0, r3
  1077fc:	1594303c 	ldrne	r3, [r4, #60]	; 0x3c
  107800:	10400003 	subne	r0, r0, r3
  107804:	e1a02000 	mov	r2, r0
  107808:	e3a03000 	mov	r3, #0
  10780c:	e1a00007 	mov	r0, r7
  107810:	e12fff36 	blx	r6
  107814:	e3700001 	cmn	r0, #1
  107818:	0a000043 	beq	10792c <__sflush_r+0x1c8>
  10781c:	e1d430fc 	ldrsh	r3, [r4, #12]
  107820:	e3a02000 	mov	r2, #0
  107824:	e5842004 	str	r2, [r4, #4]
  107828:	e3c33b02 	bic	r3, r3, #2048	; 0x800
  10782c:	e5942010 	ldr	r2, [r4, #16]
  107830:	e3130a01 	tst	r3, #4096	; 0x1000
  107834:	e1c430bc 	strh	r3, [r4, #12]
  107838:	e5842000 	str	r2, [r4]
  10783c:	0a000000 	beq	107844 <__sflush_r+0xe0>
  107840:	e5840050 	str	r0, [r4, #80]	; 0x50
  107844:	e5941030 	ldr	r1, [r4, #48]	; 0x30
  107848:	e5878000 	str	r8, [r7]
  10784c:	e3510000 	cmp	r1, #0
  107850:	0a000028 	beq	1078f8 <__sflush_r+0x194>
  107854:	e2843040 	add	r3, r4, #64	; 0x40
  107858:	e1510003 	cmp	r1, r3
  10785c:	0a000001 	beq	107868 <__sflush_r+0x104>
  107860:	e1a00007 	mov	r0, r7
  107864:	eb000168 	bl	107e0c <_free_r>
  107868:	e3a00000 	mov	r0, #0
  10786c:	e5840030 	str	r0, [r4, #48]	; 0x30
  107870:	e8bd81f0 	pop	{r4, r5, r6, r7, r8, pc}
  107874:	e5916010 	ldr	r6, [r1, #16]
  107878:	e3560000 	cmp	r6, #0
  10787c:	0a00001d 	beq	1078f8 <__sflush_r+0x194>
  107880:	e3120003 	tst	r2, #3
  107884:	e5915000 	ldr	r5, [r1]
  107888:	e5816000 	str	r6, [r1]
  10788c:	05913014 	ldreq	r3, [r1, #20]
  107890:	e0455006 	sub	r5, r5, r6
  107894:	13a03000 	movne	r3, #0
  107898:	e3550000 	cmp	r5, #0
  10789c:	e5813008 	str	r3, [r1, #8]
  1078a0:	ca000002 	bgt	1078b0 <__sflush_r+0x14c>
  1078a4:	ea000013 	b	1078f8 <__sflush_r+0x194>
  1078a8:	e3550000 	cmp	r5, #0
  1078ac:	da000011 	ble	1078f8 <__sflush_r+0x194>
  1078b0:	e1a03005 	mov	r3, r5
  1078b4:	e1a02006 	mov	r2, r6
  1078b8:	e5948024 	ldr	r8, [r4, #36]	; 0x24
  1078bc:	e1a00007 	mov	r0, r7
  1078c0:	e594101c 	ldr	r1, [r4, #28]
  1078c4:	e12fff38 	blx	r8
  1078c8:	e3500000 	cmp	r0, #0
  1078cc:	e0455000 	sub	r5, r5, r0
  1078d0:	e0866000 	add	r6, r6, r0
  1078d4:	cafffff3 	bgt	1078a8 <__sflush_r+0x144>
  1078d8:	e1d430bc 	ldrh	r3, [r4, #12]
  1078dc:	e3e00000 	mvn	r0, #0
  1078e0:	e3833040 	orr	r3, r3, #64	; 0x40
  1078e4:	e1c430bc 	strh	r3, [r4, #12]
  1078e8:	e8bd81f0 	pop	{r4, r5, r6, r7, r8, pc}
  1078ec:	e591203c 	ldr	r2, [r1, #60]	; 0x3c
  1078f0:	e3520000 	cmp	r2, #0
  1078f4:	caffffa6 	bgt	107794 <__sflush_r+0x30>
  1078f8:	e3a00000 	mov	r0, #0
  1078fc:	e8bd81f0 	pop	{r4, r5, r6, r7, r8, pc}
  107900:	e5973000 	ldr	r3, [r7]
  107904:	e3530000 	cmp	r3, #0
  107908:	0affffb2 	beq	1077d8 <__sflush_r+0x74>
  10790c:	e3530016 	cmp	r3, #22
  107910:	1353001d 	cmpne	r3, #29
  107914:	05878000 	streq	r8, [r7]
  107918:	11d430bc 	ldrhne	r3, [r4, #12]
  10791c:	01a00005 	moveq	r0, r5
  107920:	13833040 	orrne	r3, r3, #64	; 0x40
  107924:	11c430bc 	strhne	r3, [r4, #12]
  107928:	e8bd81f0 	pop	{r4, r5, r6, r7, r8, pc}
  10792c:	e5971000 	ldr	r1, [r7]
  107930:	e351001d 	cmp	r1, #29
  107934:	81d420fc 	ldrshhi	r2, [r4, #12]
  107938:	8a00000f 	bhi	10797c <__sflush_r+0x218>
  10793c:	e3a03001 	mov	r3, #1
  107940:	e3423040 	movt	r3, #8256	; 0x2040
  107944:	e1d420fc 	ldrsh	r2, [r4, #12]
  107948:	e1e03133 	mvn	r3, r3, lsr r1
  10794c:	e2133001 	ands	r3, r3, #1
  107950:	1a000009 	bne	10797c <__sflush_r+0x218>
  107954:	e3c22b02 	bic	r2, r2, #2048	; 0x800
  107958:	e594c010 	ldr	ip, [r4, #16]
  10795c:	e3120a01 	tst	r2, #4096	; 0x1000
  107960:	e1c420bc 	strh	r2, [r4, #12]
  107964:	e5843004 	str	r3, [r4, #4]
  107968:	e584c000 	str	ip, [r4]
  10796c:	0affffb4 	beq	107844 <__sflush_r+0xe0>
  107970:	e3510000 	cmp	r1, #0
  107974:	1affffb2 	bne	107844 <__sflush_r+0xe0>
  107978:	eaffffb0 	b	107840 <__sflush_r+0xdc>
  10797c:	e3822040 	orr	r2, r2, #64	; 0x40
  107980:	e3e00000 	mvn	r0, #0
  107984:	e1c420bc 	strh	r2, [r4, #12]
  107988:	e8bd81f0 	pop	{r4, r5, r6, r7, r8, pc}

0010798c <_fflush_r>:
  10798c:	e92d4010 	push	{r4, lr}
  107990:	e2504000 	subs	r4, r0, #0
  107994:	e24dd008 	sub	sp, sp, #8
  107998:	0a000002 	beq	1079a8 <_fflush_r+0x1c>
  10799c:	e5943038 	ldr	r3, [r4, #56]	; 0x38
  1079a0:	e3530000 	cmp	r3, #0
  1079a4:	0a000004 	beq	1079bc <_fflush_r+0x30>
  1079a8:	e1d100fc 	ldrsh	r0, [r1, #12]
  1079ac:	e3500000 	cmp	r0, #0
  1079b0:	1a000007 	bne	1079d4 <_fflush_r+0x48>
  1079b4:	e28dd008 	add	sp, sp, #8
  1079b8:	e8bd8010 	pop	{r4, pc}
  1079bc:	e58d1004 	str	r1, [sp, #4]
  1079c0:	eb0000be 	bl	107cc0 <__sinit>
  1079c4:	e59d1004 	ldr	r1, [sp, #4]
  1079c8:	e1d100fc 	ldrsh	r0, [r1, #12]
  1079cc:	e3500000 	cmp	r0, #0
  1079d0:	0afffff7 	beq	1079b4 <_fflush_r+0x28>
  1079d4:	e1a00004 	mov	r0, r4
  1079d8:	e28dd008 	add	sp, sp, #8
  1079dc:	e8bd4010 	pop	{r4, lr}
  1079e0:	eaffff5f 	b	107764 <__sflush_r>

001079e4 <fflush>:
  1079e4:	e2501000 	subs	r1, r0, #0
  1079e8:	0a000003 	beq	1079fc <fflush+0x18>
  1079ec:	e30f3740 	movw	r3, #63296	; 0xf740
  1079f0:	e3403010 	movt	r3, #16
  1079f4:	e5930000 	ldr	r0, [r3]
  1079f8:	eaffffe3 	b	10798c <_fflush_r>
  1079fc:	e30f3208 	movw	r3, #61960	; 0xf208
  107a00:	e3403010 	movt	r3, #16
  107a04:	e307198c 	movw	r1, #31116	; 0x798c
  107a08:	e3401010 	movt	r1, #16
  107a0c:	e5930000 	ldr	r0, [r3]
  107a10:	ea0002fa 	b	108600 <_fwalk_reent>

00107a14 <__fp_lock>:
  107a14:	e3a00000 	mov	r0, #0
  107a18:	e12fff1e 	bx	lr

00107a1c <_cleanup_r>:
  107a1c:	e30e11a8 	movw	r1, #57768	; 0xe1a8
  107a20:	e3401010 	movt	r1, #16
  107a24:	ea0002f5 	b	108600 <_fwalk_reent>

00107a28 <__sinit.part.1>:
  107a28:	e92d4ff8 	push	{r3, r4, r5, r6, r7, r8, r9, sl, fp, lr}
  107a2c:	e3a04000 	mov	r4, #0
  107a30:	e5905004 	ldr	r5, [r0, #4]
  107a34:	e1a07000 	mov	r7, r0
  107a38:	e3a02003 	mov	r2, #3
  107a3c:	e1a01004 	mov	r1, r4
  107a40:	e58022e4 	str	r2, [r0, #740]	; 0x2e4
  107a44:	e3073a1c 	movw	r3, #31260	; 0x7a1c
  107a48:	e2802fbb 	add	r2, r0, #748	; 0x2ec
  107a4c:	e3403010 	movt	r3, #16
  107a50:	e58022e8 	str	r2, [r0, #744]	; 0x2e8
  107a54:	e3a02008 	mov	r2, #8
  107a58:	e580303c 	str	r3, [r0, #60]	; 0x3c
  107a5c:	e3a03004 	mov	r3, #4
  107a60:	e58742e0 	str	r4, [r7, #736]	; 0x2e0
  107a64:	e285005c 	add	r0, r5, #92	; 0x5c
  107a68:	e585300c 	str	r3, [r5, #12]
  107a6c:	e30bbaf8 	movw	fp, #47864	; 0xbaf8
  107a70:	e5854064 	str	r4, [r5, #100]	; 0x64
  107a74:	e340b010 	movt	fp, #16
  107a78:	e5854000 	str	r4, [r5]
  107a7c:	e30bab30 	movw	sl, #47920	; 0xbb30
  107a80:	e5854004 	str	r4, [r5, #4]
  107a84:	e340a010 	movt	sl, #16
  107a88:	e5854008 	str	r4, [r5, #8]
  107a8c:	e30b9b84 	movw	r9, #48004	; 0xbb84
  107a90:	e5854010 	str	r4, [r5, #16]
  107a94:	e3409010 	movt	r9, #16
  107a98:	e5854014 	str	r4, [r5, #20]
  107a9c:	e30b8bb0 	movw	r8, #48048	; 0xbbb0
  107aa0:	e5854018 	str	r4, [r5, #24]
  107aa4:	e3408010 	movt	r8, #16
  107aa8:	eb000ad3 	bl	10a5fc <memset>
  107aac:	e5976008 	ldr	r6, [r7, #8]
  107ab0:	e1a01004 	mov	r1, r4
  107ab4:	e585501c 	str	r5, [r5, #28]
  107ab8:	e585b020 	str	fp, [r5, #32]
  107abc:	e3a02008 	mov	r2, #8
  107ac0:	e585a024 	str	sl, [r5, #36]	; 0x24
  107ac4:	e3a03009 	mov	r3, #9
  107ac8:	e5859028 	str	r9, [r5, #40]	; 0x28
  107acc:	e3403001 	movt	r3, #1
  107ad0:	e585802c 	str	r8, [r5, #44]	; 0x2c
  107ad4:	e286005c 	add	r0, r6, #92	; 0x5c
  107ad8:	e586300c 	str	r3, [r6, #12]
  107adc:	e5864064 	str	r4, [r6, #100]	; 0x64
  107ae0:	e5864000 	str	r4, [r6]
  107ae4:	e5864004 	str	r4, [r6, #4]
  107ae8:	e5864008 	str	r4, [r6, #8]
  107aec:	e5864010 	str	r4, [r6, #16]
  107af0:	e5864014 	str	r4, [r6, #20]
  107af4:	e5864018 	str	r4, [r6, #24]
  107af8:	eb000abf 	bl	10a5fc <memset>
  107afc:	e597500c 	ldr	r5, [r7, #12]
  107b00:	e1a01004 	mov	r1, r4
  107b04:	e586601c 	str	r6, [r6, #28]
  107b08:	e586b020 	str	fp, [r6, #32]
  107b0c:	e3a03012 	mov	r3, #18
  107b10:	e586a024 	str	sl, [r6, #36]	; 0x24
  107b14:	e3403002 	movt	r3, #2
  107b18:	e5869028 	str	r9, [r6, #40]	; 0x28
  107b1c:	e285005c 	add	r0, r5, #92	; 0x5c
  107b20:	e586802c 	str	r8, [r6, #44]	; 0x2c
  107b24:	e3a02008 	mov	r2, #8
  107b28:	e585300c 	str	r3, [r5, #12]
  107b2c:	e5854064 	str	r4, [r5, #100]	; 0x64
  107b30:	e5854000 	str	r4, [r5]
  107b34:	e5854004 	str	r4, [r5, #4]
  107b38:	e5854008 	str	r4, [r5, #8]
  107b3c:	e5854010 	str	r4, [r5, #16]
  107b40:	e5854014 	str	r4, [r5, #20]
  107b44:	e5854018 	str	r4, [r5, #24]
  107b48:	eb000aab 	bl	10a5fc <memset>
  107b4c:	e585501c 	str	r5, [r5, #28]
  107b50:	e585b020 	str	fp, [r5, #32]
  107b54:	e3a03001 	mov	r3, #1
  107b58:	e585a024 	str	sl, [r5, #36]	; 0x24
  107b5c:	e5859028 	str	r9, [r5, #40]	; 0x28
  107b60:	e585802c 	str	r8, [r5, #44]	; 0x2c
  107b64:	e5873038 	str	r3, [r7, #56]	; 0x38
  107b68:	e8bd8ff8 	pop	{r3, r4, r5, r6, r7, r8, r9, sl, fp, pc}

00107b6c <__fp_unlock>:
  107b6c:	e3a00000 	mov	r0, #0
  107b70:	e12fff1e 	bx	lr

00107b74 <__sfmoreglue>:
  107b74:	e2412001 	sub	r2, r1, #1
  107b78:	e92d4070 	push	{r4, r5, r6, lr}
  107b7c:	e3a05068 	mov	r5, #104	; 0x68
  107b80:	e0050295 	mul	r5, r5, r2
  107b84:	e1a06001 	mov	r6, r1
  107b88:	e2851074 	add	r1, r5, #116	; 0x74
  107b8c:	eb00067b 	bl	109580 <_malloc_r>
  107b90:	e2504000 	subs	r4, r0, #0
  107b94:	0a000006 	beq	107bb4 <__sfmoreglue+0x40>
  107b98:	e284000c 	add	r0, r4, #12
  107b9c:	e3a01000 	mov	r1, #0
  107ba0:	e5846004 	str	r6, [r4, #4]
  107ba4:	e2852068 	add	r2, r5, #104	; 0x68
  107ba8:	e5840008 	str	r0, [r4, #8]
  107bac:	e5841000 	str	r1, [r4]
  107bb0:	eb000a91 	bl	10a5fc <memset>
  107bb4:	e1a00004 	mov	r0, r4
  107bb8:	e8bd8070 	pop	{r4, r5, r6, pc}

00107bbc <__sfp>:
  107bbc:	e30f3208 	movw	r3, #61960	; 0xf208
  107bc0:	e3403010 	movt	r3, #16
  107bc4:	e92d4070 	push	{r4, r5, r6, lr}
  107bc8:	e1a06000 	mov	r6, r0
  107bcc:	e5935000 	ldr	r5, [r3]
  107bd0:	e5953038 	ldr	r3, [r5, #56]	; 0x38
  107bd4:	e3530000 	cmp	r3, #0
  107bd8:	0a000025 	beq	107c74 <__sfp+0xb8>
  107bdc:	e2855e2e 	add	r5, r5, #736	; 0x2e0
  107be0:	e9950018 	ldmib	r5, {r3, r4}
  107be4:	e2533001 	subs	r3, r3, #1
  107be8:	5a000004 	bpl	107c00 <__sfp+0x44>
  107bec:	ea00001b 	b	107c60 <__sfp+0xa4>
  107bf0:	e2433001 	sub	r3, r3, #1
  107bf4:	e2844068 	add	r4, r4, #104	; 0x68
  107bf8:	e3730001 	cmn	r3, #1
  107bfc:	0a000017 	beq	107c60 <__sfp+0xa4>
  107c00:	e1d420fc 	ldrsh	r2, [r4, #12]
  107c04:	e3520000 	cmp	r2, #0
  107c08:	1afffff8 	bne	107bf0 <__sfp+0x34>
  107c0c:	e3a05000 	mov	r5, #0
  107c10:	e3a03001 	mov	r3, #1
  107c14:	e5845064 	str	r5, [r4, #100]	; 0x64
  107c18:	e34f3fff 	movt	r3, #65535	; 0xffff
  107c1c:	e5845000 	str	r5, [r4]
  107c20:	e1a01005 	mov	r1, r5
  107c24:	e584300c 	str	r3, [r4, #12]
  107c28:	e3a02008 	mov	r2, #8
  107c2c:	e5845004 	str	r5, [r4, #4]
  107c30:	e284005c 	add	r0, r4, #92	; 0x5c
  107c34:	e5845008 	str	r5, [r4, #8]
  107c38:	e5845010 	str	r5, [r4, #16]
  107c3c:	e5845014 	str	r5, [r4, #20]
  107c40:	e5845018 	str	r5, [r4, #24]
  107c44:	eb000a6c 	bl	10a5fc <memset>
  107c48:	e5845030 	str	r5, [r4, #48]	; 0x30
  107c4c:	e5845034 	str	r5, [r4, #52]	; 0x34
  107c50:	e5845044 	str	r5, [r4, #68]	; 0x44
  107c54:	e5845048 	str	r5, [r4, #72]	; 0x48
  107c58:	e1a00004 	mov	r0, r4
  107c5c:	e8bd8070 	pop	{r4, r5, r6, pc}
  107c60:	e5950000 	ldr	r0, [r5]
  107c64:	e3500000 	cmp	r0, #0
  107c68:	0a000004 	beq	107c80 <__sfp+0xc4>
  107c6c:	e1a05000 	mov	r5, r0
  107c70:	eaffffda 	b	107be0 <__sfp+0x24>
  107c74:	e1a00005 	mov	r0, r5
  107c78:	ebffff6a 	bl	107a28 <__sinit.part.1>
  107c7c:	eaffffd6 	b	107bdc <__sfp+0x20>
  107c80:	e3a01004 	mov	r1, #4
  107c84:	e1a00006 	mov	r0, r6
  107c88:	ebffffb9 	bl	107b74 <__sfmoreglue>
  107c8c:	e3500000 	cmp	r0, #0
  107c90:	e5850000 	str	r0, [r5]
  107c94:	1afffff4 	bne	107c6c <__sfp+0xb0>
  107c98:	e3a0300c 	mov	r3, #12
  107c9c:	e1a04000 	mov	r4, r0
  107ca0:	e5863000 	str	r3, [r6]
  107ca4:	eaffffeb 	b	107c58 <__sfp+0x9c>

00107ca8 <_cleanup>:
  107ca8:	e30f3208 	movw	r3, #61960	; 0xf208
  107cac:	e3403010 	movt	r3, #16
  107cb0:	e30e11a8 	movw	r1, #57768	; 0xe1a8
  107cb4:	e3401010 	movt	r1, #16
  107cb8:	e5930000 	ldr	r0, [r3]
  107cbc:	ea00024f 	b	108600 <_fwalk_reent>

00107cc0 <__sinit>:
  107cc0:	e5903038 	ldr	r3, [r0, #56]	; 0x38
  107cc4:	e3530000 	cmp	r3, #0
  107cc8:	112fff1e 	bxne	lr
  107ccc:	eaffff55 	b	107a28 <__sinit.part.1>

00107cd0 <__sfp_lock_acquire>:
  107cd0:	e12fff1e 	bx	lr

00107cd4 <__sfp_lock_release>:
  107cd4:	e12fff1e 	bx	lr

00107cd8 <__sinit_lock_acquire>:
  107cd8:	e12fff1e 	bx	lr

00107cdc <__sinit_lock_release>:
  107cdc:	e12fff1e 	bx	lr

00107ce0 <__fp_lock_all>:
  107ce0:	e30f3740 	movw	r3, #63296	; 0xf740
  107ce4:	e3403010 	movt	r3, #16
  107ce8:	e3071a14 	movw	r1, #31252	; 0x7a14
  107cec:	e3401010 	movt	r1, #16
  107cf0:	e5930000 	ldr	r0, [r3]
  107cf4:	ea000225 	b	108590 <_fwalk>

00107cf8 <__fp_unlock_all>:
  107cf8:	e30f3740 	movw	r3, #63296	; 0xf740
  107cfc:	e3403010 	movt	r3, #16
  107d00:	e3071b6c 	movw	r1, #31596	; 0x7b6c
  107d04:	e3401010 	movt	r1, #16
  107d08:	e5930000 	ldr	r0, [r3]
  107d0c:	ea00021f 	b	108590 <_fwalk>

00107d10 <_malloc_trim_r>:
  107d10:	e92d41f0 	push	{r4, r5, r6, r7, r8, lr}
  107d14:	e30f7cf0 	movw	r7, #64752	; 0xfcf0
  107d18:	e3407010 	movt	r7, #16
  107d1c:	e1a04001 	mov	r4, r1
  107d20:	e1a06000 	mov	r6, r0
  107d24:	eb000a78 	bl	10a70c <__malloc_lock>
  107d28:	e5973008 	ldr	r3, [r7, #8]
  107d2c:	e2641efe 	rsb	r1, r4, #4064	; 0xfe0
  107d30:	e281100f 	add	r1, r1, #15
  107d34:	e5935004 	ldr	r5, [r3, #4]
  107d38:	e3c55003 	bic	r5, r5, #3
  107d3c:	e0811005 	add	r1, r1, r5
  107d40:	e3c11eff 	bic	r1, r1, #4080	; 0xff0
  107d44:	e3c1100f 	bic	r1, r1, #15
  107d48:	e2414a01 	sub	r4, r1, #4096	; 0x1000
  107d4c:	e3540a01 	cmp	r4, #4096	; 0x1000
  107d50:	ba000006 	blt	107d70 <_malloc_trim_r+0x60>
  107d54:	e3a01000 	mov	r1, #0
  107d58:	e1a00006 	mov	r0, r6
  107d5c:	eb000f2f 	bl	10ba20 <_sbrk_r>
  107d60:	e5973008 	ldr	r3, [r7, #8]
  107d64:	e0833005 	add	r3, r3, r5
  107d68:	e1500003 	cmp	r0, r3
  107d6c:	0a000003 	beq	107d80 <_malloc_trim_r+0x70>
  107d70:	e1a00006 	mov	r0, r6
  107d74:	eb000a65 	bl	10a710 <__malloc_unlock>
  107d78:	e3a00000 	mov	r0, #0
  107d7c:	e8bd81f0 	pop	{r4, r5, r6, r7, r8, pc}
  107d80:	e2641000 	rsb	r1, r4, #0
  107d84:	e1a00006 	mov	r0, r6
  107d88:	eb000f24 	bl	10ba20 <_sbrk_r>
  107d8c:	e3700001 	cmn	r0, #1
  107d90:	0a00000c 	beq	107dc8 <_malloc_trim_r+0xb8>
  107d94:	e5972008 	ldr	r2, [r7, #8]
  107d98:	e30833d0 	movw	r3, #33744	; 0x83d0
  107d9c:	e3403012 	movt	r3, #18
  107da0:	e0455004 	sub	r5, r5, r4
  107da4:	e1a00006 	mov	r0, r6
  107da8:	e3855001 	orr	r5, r5, #1
  107dac:	e5931000 	ldr	r1, [r3]
  107db0:	e5825004 	str	r5, [r2, #4]
  107db4:	e0411004 	sub	r1, r1, r4
  107db8:	e5831000 	str	r1, [r3]
  107dbc:	eb000a53 	bl	10a710 <__malloc_unlock>
  107dc0:	e3a00001 	mov	r0, #1
  107dc4:	e8bd81f0 	pop	{r4, r5, r6, r7, r8, pc}
  107dc8:	e3a01000 	mov	r1, #0
  107dcc:	e1a00006 	mov	r0, r6
  107dd0:	eb000f12 	bl	10ba20 <_sbrk_r>
  107dd4:	e5972008 	ldr	r2, [r7, #8]
  107dd8:	e0403002 	sub	r3, r0, r2
  107ddc:	e353000f 	cmp	r3, #15
  107de0:	daffffe2 	ble	107d70 <_malloc_trim_r+0x60>
  107de4:	e300c0f8 	movw	ip, #248	; 0xf8
  107de8:	e340c011 	movt	ip, #17
  107dec:	e30813d0 	movw	r1, #33744	; 0x83d0
  107df0:	e3401012 	movt	r1, #18
  107df4:	e59cc000 	ldr	ip, [ip]
  107df8:	e3833001 	orr	r3, r3, #1
  107dfc:	e5823004 	str	r3, [r2, #4]
  107e00:	e040000c 	sub	r0, r0, ip
  107e04:	e5810000 	str	r0, [r1]
  107e08:	eaffffd8 	b	107d70 <_malloc_trim_r+0x60>

00107e0c <_free_r>:
  107e0c:	e92d41f0 	push	{r4, r5, r6, r7, r8, lr}
  107e10:	e2515000 	subs	r5, r1, #0
  107e14:	08bd81f0 	popeq	{r4, r5, r6, r7, r8, pc}
  107e18:	e1a04000 	mov	r4, r0
  107e1c:	eb000a3a 	bl	10a70c <__malloc_lock>
  107e20:	e5150004 	ldr	r0, [r5, #-4]
  107e24:	e30fecf0 	movw	lr, #64752	; 0xfcf0
  107e28:	e340e010 	movt	lr, #16
  107e2c:	e2452008 	sub	r2, r5, #8
  107e30:	e3c03001 	bic	r3, r0, #1
  107e34:	e0826003 	add	r6, r2, r3
  107e38:	e59ec008 	ldr	ip, [lr, #8]
  107e3c:	e15c0006 	cmp	ip, r6
  107e40:	e596c004 	ldr	ip, [r6, #4]
  107e44:	e3ccc003 	bic	ip, ip, #3
  107e48:	0a000041 	beq	107f54 <_free_r+0x148>
  107e4c:	e3100001 	tst	r0, #1
  107e50:	e586c004 	str	ip, [r6, #4]
  107e54:	e086000c 	add	r0, r6, ip
  107e58:	1a000019 	bne	107ec4 <_free_r+0xb8>
  107e5c:	e5155008 	ldr	r5, [r5, #-8]
  107e60:	e28e7008 	add	r7, lr, #8
  107e64:	e5901004 	ldr	r1, [r0, #4]
  107e68:	e0422005 	sub	r2, r2, r5
  107e6c:	e0833005 	add	r3, r3, r5
  107e70:	e2011001 	and	r1, r1, #1
  107e74:	e5920008 	ldr	r0, [r2, #8]
  107e78:	e1500007 	cmp	r0, r7
  107e7c:	0a00005e 	beq	107ffc <_free_r+0x1f0>
  107e80:	e592500c 	ldr	r5, [r2, #12]
  107e84:	e3510000 	cmp	r1, #0
  107e88:	e580500c 	str	r5, [r0, #12]
  107e8c:	e5850008 	str	r0, [r5, #8]
  107e90:	1a00000f 	bne	107ed4 <_free_r+0xc8>
  107e94:	e5961008 	ldr	r1, [r6, #8]
  107e98:	e083300c 	add	r3, r3, ip
  107e9c:	e59f0248 	ldr	r0, [pc, #584]	; 1080ec <_free_r+0x2e0>
  107ea0:	e383c001 	orr	ip, r3, #1
  107ea4:	e1510000 	cmp	r1, r0
  107ea8:	0a000074 	beq	108080 <_free_r+0x274>
  107eac:	e596000c 	ldr	r0, [r6, #12]
  107eb0:	e581000c 	str	r0, [r1, #12]
  107eb4:	e5801008 	str	r1, [r0, #8]
  107eb8:	e582c004 	str	ip, [r2, #4]
  107ebc:	e7823003 	str	r3, [r2, r3]
  107ec0:	ea000006 	b	107ee0 <_free_r+0xd4>
  107ec4:	e5901004 	ldr	r1, [r0, #4]
  107ec8:	e2011001 	and	r1, r1, #1
  107ecc:	e3510000 	cmp	r1, #0
  107ed0:	0affffef 	beq	107e94 <_free_r+0x88>
  107ed4:	e3831001 	orr	r1, r3, #1
  107ed8:	e5821004 	str	r1, [r2, #4]
  107edc:	e7823003 	str	r3, [r2, r3]
  107ee0:	e3530c02 	cmp	r3, #512	; 0x200
  107ee4:	3a000033 	bcc	107fb8 <_free_r+0x1ac>
  107ee8:	e1a004a3 	lsr	r0, r3, #9
  107eec:	e3500004 	cmp	r0, #4
  107ef0:	8a00004c 	bhi	108028 <_free_r+0x21c>
  107ef4:	e1a00323 	lsr	r0, r3, #6
  107ef8:	e2801039 	add	r1, r0, #57	; 0x39
  107efc:	e2800038 	add	r0, r0, #56	; 0x38
  107f00:	e1a01181 	lsl	r1, r1, #3
  107f04:	e08ec001 	add	ip, lr, r1
  107f08:	e79e1001 	ldr	r1, [lr, r1]
  107f0c:	e24cc008 	sub	ip, ip, #8
  107f10:	e15c0001 	cmp	ip, r1
  107f14:	0a000052 	beq	108064 <_free_r+0x258>
  107f18:	e5910004 	ldr	r0, [r1, #4]
  107f1c:	e3c00003 	bic	r0, r0, #3
  107f20:	e1500003 	cmp	r0, r3
  107f24:	9a00004c 	bls	10805c <_free_r+0x250>
  107f28:	e5911008 	ldr	r1, [r1, #8]
  107f2c:	e15c0001 	cmp	ip, r1
  107f30:	1afffff8 	bne	107f18 <_free_r+0x10c>
  107f34:	e59c300c 	ldr	r3, [ip, #12]
  107f38:	e582300c 	str	r3, [r2, #12]
  107f3c:	e1a00004 	mov	r0, r4
  107f40:	e582c008 	str	ip, [r2, #8]
  107f44:	e8bd41f0 	pop	{r4, r5, r6, r7, r8, lr}
  107f48:	e5832008 	str	r2, [r3, #8]
  107f4c:	e58c200c 	str	r2, [ip, #12]
  107f50:	ea0009ee 	b	10a710 <__malloc_unlock>
  107f54:	e3100001 	tst	r0, #1
  107f58:	e083300c 	add	r3, r3, ip
  107f5c:	1a000005 	bne	107f78 <_free_r+0x16c>
  107f60:	e5151008 	ldr	r1, [r5, #-8]
  107f64:	e0422001 	sub	r2, r2, r1
  107f68:	e0833001 	add	r3, r3, r1
  107f6c:	e1c200d8 	ldrd	r0, [r2, #8]
  107f70:	e580100c 	str	r1, [r0, #12]
  107f74:	e5810008 	str	r0, [r1, #8]
  107f78:	e30010fc 	movw	r1, #252	; 0xfc
  107f7c:	e3401011 	movt	r1, #17
  107f80:	e3830001 	orr	r0, r3, #1
  107f84:	e5820004 	str	r0, [r2, #4]
  107f88:	e5911000 	ldr	r1, [r1]
  107f8c:	e58e2008 	str	r2, [lr, #8]
  107f90:	e1510003 	cmp	r1, r3
  107f94:	8a000004 	bhi	107fac <_free_r+0x1a0>
  107f98:	e30833cc 	movw	r3, #33740	; 0x83cc
  107f9c:	e3403012 	movt	r3, #18
  107fa0:	e1a00004 	mov	r0, r4
  107fa4:	e5931000 	ldr	r1, [r3]
  107fa8:	ebffff58 	bl	107d10 <_malloc_trim_r>
  107fac:	e1a00004 	mov	r0, r4
  107fb0:	e8bd41f0 	pop	{r4, r5, r6, r7, r8, lr}
  107fb4:	ea0009d5 	b	10a710 <__malloc_unlock>
  107fb8:	e1a031a3 	lsr	r3, r3, #3
  107fbc:	e59e0004 	ldr	r0, [lr, #4]
  107fc0:	e2831001 	add	r1, r3, #1
  107fc4:	e3a05001 	mov	r5, #1
  107fc8:	e1a03143 	asr	r3, r3, #2
  107fcc:	e79ec181 	ldr	ip, [lr, r1, lsl #3]
  107fd0:	e1800315 	orr	r0, r0, r5, lsl r3
  107fd4:	e08e3181 	add	r3, lr, r1, lsl #3
  107fd8:	e58e0004 	str	r0, [lr, #4]
  107fdc:	e2433008 	sub	r3, r3, #8
  107fe0:	e1a00004 	mov	r0, r4
  107fe4:	e582300c 	str	r3, [r2, #12]
  107fe8:	e582c008 	str	ip, [r2, #8]
  107fec:	e78e2181 	str	r2, [lr, r1, lsl #3]
  107ff0:	e58c200c 	str	r2, [ip, #12]
  107ff4:	e8bd41f0 	pop	{r4, r5, r6, r7, r8, lr}
  107ff8:	ea0009c4 	b	10a710 <__malloc_unlock>
  107ffc:	e3510000 	cmp	r1, #0
  108000:	1a000035 	bne	1080dc <_free_r+0x2d0>
  108004:	e5960008 	ldr	r0, [r6, #8]
  108008:	e08c3003 	add	r3, ip, r3
  10800c:	e596100c 	ldr	r1, [r6, #12]
  108010:	e383c001 	orr	ip, r3, #1
  108014:	e580100c 	str	r1, [r0, #12]
  108018:	e5810008 	str	r0, [r1, #8]
  10801c:	e582c004 	str	ip, [r2, #4]
  108020:	e7823003 	str	r3, [r2, r3]
  108024:	eaffffe0 	b	107fac <_free_r+0x1a0>
  108028:	e3500014 	cmp	r0, #20
  10802c:	9a000006 	bls	10804c <_free_r+0x240>
  108030:	e3500054 	cmp	r0, #84	; 0x54
  108034:	8a000018 	bhi	10809c <_free_r+0x290>
  108038:	e1a00623 	lsr	r0, r3, #12
  10803c:	e280106f 	add	r1, r0, #111	; 0x6f
  108040:	e280006e 	add	r0, r0, #110	; 0x6e
  108044:	e1a01181 	lsl	r1, r1, #3
  108048:	eaffffad 	b	107f04 <_free_r+0xf8>
  10804c:	e280105c 	add	r1, r0, #92	; 0x5c
  108050:	e280005b 	add	r0, r0, #91	; 0x5b
  108054:	e1a01181 	lsl	r1, r1, #3
  108058:	eaffffa9 	b	107f04 <_free_r+0xf8>
  10805c:	e1a0c001 	mov	ip, r1
  108060:	eaffffb3 	b	107f34 <_free_r+0x128>
  108064:	e59e1004 	ldr	r1, [lr, #4]
  108068:	e1a00140 	asr	r0, r0, #2
  10806c:	e3a05001 	mov	r5, #1
  108070:	e1a0300c 	mov	r3, ip
  108074:	e1810015 	orr	r0, r1, r5, lsl r0
  108078:	e58e0004 	str	r0, [lr, #4]
  10807c:	eaffffad 	b	107f38 <_free_r+0x12c>
  108080:	e58e2014 	str	r2, [lr, #20]
  108084:	e58e2010 	str	r2, [lr, #16]
  108088:	e582100c 	str	r1, [r2, #12]
  10808c:	e5821008 	str	r1, [r2, #8]
  108090:	e582c004 	str	ip, [r2, #4]
  108094:	e7823003 	str	r3, [r2, r3]
  108098:	eaffffc3 	b	107fac <_free_r+0x1a0>
  10809c:	e3500f55 	cmp	r0, #340	; 0x154
  1080a0:	8a000004 	bhi	1080b8 <_free_r+0x2ac>
  1080a4:	e1a007a3 	lsr	r0, r3, #15
  1080a8:	e2801078 	add	r1, r0, #120	; 0x78
  1080ac:	e2800077 	add	r0, r0, #119	; 0x77
  1080b0:	e1a01181 	lsl	r1, r1, #3
  1080b4:	eaffff92 	b	107f04 <_free_r+0xf8>
  1080b8:	e3001554 	movw	r1, #1364	; 0x554
  1080bc:	e1500001 	cmp	r0, r1
  1080c0:	91a00923 	lsrls	r0, r3, #18
  1080c4:	9280107d 	addls	r1, r0, #125	; 0x7d
  1080c8:	83a01ffe 	movhi	r1, #1016	; 0x3f8
  1080cc:	9280007c 	addls	r0, r0, #124	; 0x7c
  1080d0:	83a0007e 	movhi	r0, #126	; 0x7e
  1080d4:	91a01181 	lslls	r1, r1, #3
  1080d8:	eaffff89 	b	107f04 <_free_r+0xf8>
  1080dc:	e3831001 	orr	r1, r3, #1
  1080e0:	e5821004 	str	r1, [r2, #4]
  1080e4:	e5863000 	str	r3, [r6]
  1080e8:	eaffffaf 	b	107fac <_free_r+0x1a0>
  1080ec:	0010fcf8 	.word	0x0010fcf8

001080f0 <__sfvwrite_r>:
  1080f0:	e5923008 	ldr	r3, [r2, #8]
  1080f4:	e3530000 	cmp	r3, #0
  1080f8:	0a000085 	beq	108314 <__sfvwrite_r+0x224>
  1080fc:	e1d1c0bc 	ldrh	ip, [r1, #12]
  108100:	e92d4ff0 	push	{r4, r5, r6, r7, r8, r9, sl, fp, lr}
  108104:	e31c0008 	tst	ip, #8
  108108:	e24dd00c 	sub	sp, sp, #12
  10810c:	e1a04001 	mov	r4, r1
  108110:	e1a0b000 	mov	fp, r0
  108114:	e1a09002 	mov	r9, r2
  108118:	0a000020 	beq	1081a0 <__sfvwrite_r+0xb0>
  10811c:	e5913010 	ldr	r3, [r1, #16]
  108120:	e3530000 	cmp	r3, #0
  108124:	0a00001d 	beq	1081a0 <__sfvwrite_r+0xb0>
  108128:	e21c8002 	ands	r8, ip, #2
  10812c:	e5997000 	ldr	r7, [r9]
  108130:	0a000023 	beq	1081c4 <__sfvwrite_r+0xd4>
  108134:	e594a024 	ldr	sl, [r4, #36]	; 0x24
  108138:	e3a06000 	mov	r6, #0
  10813c:	e594301c 	ldr	r3, [r4, #28]
  108140:	e3a08b3f 	mov	r8, #64512	; 0xfc00
  108144:	e3478fff 	movt	r8, #32767	; 0x7fff
  108148:	e1a05006 	mov	r5, r6
  10814c:	e3550000 	cmp	r5, #0
  108150:	e1a02006 	mov	r2, r6
  108154:	e1a01003 	mov	r1, r3
  108158:	e1a0000b 	mov	r0, fp
  10815c:	0a000065 	beq	1082f8 <__sfvwrite_r+0x208>
  108160:	e1550008 	cmp	r5, r8
  108164:	31a03005 	movcc	r3, r5
  108168:	21a03008 	movcs	r3, r8
  10816c:	e12fff3a 	blx	sl
  108170:	e3500000 	cmp	r0, #0
  108174:	e0866000 	add	r6, r6, r0
  108178:	e0455000 	sub	r5, r5, r0
  10817c:	da00006b 	ble	108330 <__sfvwrite_r+0x240>
  108180:	e5993008 	ldr	r3, [r9, #8]
  108184:	e0430000 	sub	r0, r3, r0
  108188:	e5890008 	str	r0, [r9, #8]
  10818c:	e3500000 	cmp	r0, #0
  108190:	0a00005c 	beq	108308 <__sfvwrite_r+0x218>
  108194:	e594a024 	ldr	sl, [r4, #36]	; 0x24
  108198:	e594301c 	ldr	r3, [r4, #28]
  10819c:	eaffffea 	b	10814c <__sfvwrite_r+0x5c>
  1081a0:	e1a01004 	mov	r1, r4
  1081a4:	e1a0000b 	mov	r0, fp
  1081a8:	ebfff7c8 	bl	1060d0 <__swsetup_r>
  1081ac:	e3500000 	cmp	r0, #0
  1081b0:	1a0000f4 	bne	108588 <__sfvwrite_r+0x498>
  1081b4:	e1d4c0bc 	ldrh	ip, [r4, #12]
  1081b8:	e5997000 	ldr	r7, [r9]
  1081bc:	e21c8002 	ands	r8, ip, #2
  1081c0:	1affffdb 	bne	108134 <__sfvwrite_r+0x44>
  1081c4:	e21ca001 	ands	sl, ip, #1
  1081c8:	1a00005e 	bne	108348 <__sfvwrite_r+0x258>
  1081cc:	e5948008 	ldr	r8, [r4, #8]
  1081d0:	e1a0600a 	mov	r6, sl
  1081d4:	e5940000 	ldr	r0, [r4]
  1081d8:	e3560000 	cmp	r6, #0
  1081dc:	0a000041 	beq	1082e8 <__sfvwrite_r+0x1f8>
  1081e0:	e31c0c02 	tst	ip, #512	; 0x200
  1081e4:	0a000092 	beq	108434 <__sfvwrite_r+0x344>
  1081e8:	e1580006 	cmp	r8, r6
  1081ec:	e1a03008 	mov	r3, r8
  1081f0:	8a0000b8 	bhi	1084d8 <__sfvwrite_r+0x3e8>
  1081f4:	e31c0d12 	tst	ip, #1152	; 0x480
  1081f8:	0a000022 	beq	108288 <__sfvwrite_r+0x198>
  1081fc:	e5942014 	ldr	r2, [r4, #20]
  108200:	e2865001 	add	r5, r6, #1
  108204:	e5941010 	ldr	r1, [r4, #16]
  108208:	e0822082 	add	r2, r2, r2, lsl #1
  10820c:	e0408001 	sub	r8, r0, r1
  108210:	e0855008 	add	r5, r5, r8
  108214:	e0822fa2 	add	r2, r2, r2, lsr #31
  108218:	e1a020c2 	asr	r2, r2, #1
  10821c:	e1550002 	cmp	r5, r2
  108220:	91a05002 	movls	r5, r2
  108224:	81a02005 	movhi	r2, r5
  108228:	e31c0b01 	tst	ip, #1024	; 0x400
  10822c:	0a0000b8 	beq	108514 <__sfvwrite_r+0x424>
  108230:	e1a01002 	mov	r1, r2
  108234:	e1a0000b 	mov	r0, fp
  108238:	eb0004d0 	bl	109580 <_malloc_r>
  10823c:	e2503000 	subs	r3, r0, #0
  108240:	0a0000cc 	beq	108578 <__sfvwrite_r+0x488>
  108244:	e1a02008 	mov	r2, r8
  108248:	e5941010 	ldr	r1, [r4, #16]
  10824c:	e58d3004 	str	r3, [sp, #4]
  108250:	ebffe89a 	bl	1024c0 <memcpy>
  108254:	e1d420bc 	ldrh	r2, [r4, #12]
  108258:	e59d3004 	ldr	r3, [sp, #4]
  10825c:	e3c22d12 	bic	r2, r2, #1152	; 0x480
  108260:	e3822080 	orr	r2, r2, #128	; 0x80
  108264:	e1c420bc 	strh	r2, [r4, #12]
  108268:	e0830008 	add	r0, r3, r8
  10826c:	e5843010 	str	r3, [r4, #16]
  108270:	e0458008 	sub	r8, r5, r8
  108274:	e1a03006 	mov	r3, r6
  108278:	e5848008 	str	r8, [r4, #8]
  10827c:	e1a08006 	mov	r8, r6
  108280:	e5840000 	str	r0, [r4]
  108284:	e5845014 	str	r5, [r4, #20]
  108288:	e1a02003 	mov	r2, r3
  10828c:	e1a0100a 	mov	r1, sl
  108290:	e58d3004 	str	r3, [sp, #4]
  108294:	eb000889 	bl	10a4c0 <memmove>
  108298:	e5941008 	ldr	r1, [r4, #8]
  10829c:	e1a05006 	mov	r5, r6
  1082a0:	e5942000 	ldr	r2, [r4]
  1082a4:	e3a06000 	mov	r6, #0
  1082a8:	e59d3004 	ldr	r3, [sp, #4]
  1082ac:	e0418008 	sub	r8, r1, r8
  1082b0:	e5848008 	str	r8, [r4, #8]
  1082b4:	e0823003 	add	r3, r2, r3
  1082b8:	e5843000 	str	r3, [r4]
  1082bc:	e5990008 	ldr	r0, [r9, #8]
  1082c0:	e08aa005 	add	sl, sl, r5
  1082c4:	e0400005 	sub	r0, r0, r5
  1082c8:	e5890008 	str	r0, [r9, #8]
  1082cc:	e3500000 	cmp	r0, #0
  1082d0:	0a00000c 	beq	108308 <__sfvwrite_r+0x218>
  1082d4:	e3560000 	cmp	r6, #0
  1082d8:	e5948008 	ldr	r8, [r4, #8]
  1082dc:	e5940000 	ldr	r0, [r4]
  1082e0:	e1d4c0bc 	ldrh	ip, [r4, #12]
  1082e4:	1affffbd 	bne	1081e0 <__sfvwrite_r+0xf0>
  1082e8:	e597a000 	ldr	sl, [r7]
  1082ec:	e2877008 	add	r7, r7, #8
  1082f0:	e5176004 	ldr	r6, [r7, #-4]
  1082f4:	eaffffb7 	b	1081d8 <__sfvwrite_r+0xe8>
  1082f8:	e5976000 	ldr	r6, [r7]
  1082fc:	e2877008 	add	r7, r7, #8
  108300:	e5175004 	ldr	r5, [r7, #-4]
  108304:	eaffff90 	b	10814c <__sfvwrite_r+0x5c>
  108308:	e3a00000 	mov	r0, #0
  10830c:	e28dd00c 	add	sp, sp, #12
  108310:	e8bd8ff0 	pop	{r4, r5, r6, r7, r8, r9, sl, fp, pc}
  108314:	e3a00000 	mov	r0, #0
  108318:	e12fff1e 	bx	lr
  10831c:	e1a01004 	mov	r1, r4
  108320:	e1a0000b 	mov	r0, fp
  108324:	ebfffd98 	bl	10798c <_fflush_r>
  108328:	e3500000 	cmp	r0, #0
  10832c:	0a000027 	beq	1083d0 <__sfvwrite_r+0x2e0>
  108330:	e1d430fc 	ldrsh	r3, [r4, #12]
  108334:	e3833040 	orr	r3, r3, #64	; 0x40
  108338:	e3e00000 	mvn	r0, #0
  10833c:	e1c430bc 	strh	r3, [r4, #12]
  108340:	e28dd00c 	add	sp, sp, #12
  108344:	e8bd8ff0 	pop	{r4, r5, r6, r7, r8, r9, sl, fp, pc}
  108348:	e1a00008 	mov	r0, r8
  10834c:	e1a0a008 	mov	sl, r8
  108350:	e1a06008 	mov	r6, r8
  108354:	ea000024 	b	1083ec <__sfvwrite_r+0x2fc>
  108358:	e3500000 	cmp	r0, #0
  10835c:	0a00002b 	beq	108410 <__sfvwrite_r+0x320>
  108360:	e1580006 	cmp	r8, r6
  108364:	e5940000 	ldr	r0, [r4]
  108368:	e594c010 	ldr	ip, [r4, #16]
  10836c:	e5941014 	ldr	r1, [r4, #20]
  108370:	31a03008 	movcc	r3, r8
  108374:	e5945008 	ldr	r5, [r4, #8]
  108378:	21a03006 	movcs	r3, r6
  10837c:	e150000c 	cmp	r0, ip
  108380:	e0815005 	add	r5, r1, r5
  108384:	93a02000 	movls	r2, #0
  108388:	83a02001 	movhi	r2, #1
  10838c:	e1530005 	cmp	r3, r5
  108390:	d3a02000 	movle	r2, #0
  108394:	e3520000 	cmp	r2, #0
  108398:	1a000051 	bne	1084e4 <__sfvwrite_r+0x3f4>
  10839c:	e1510003 	cmp	r1, r3
  1083a0:	ca000067 	bgt	108544 <__sfvwrite_r+0x454>
  1083a4:	e1a03001 	mov	r3, r1
  1083a8:	e5945024 	ldr	r5, [r4, #36]	; 0x24
  1083ac:	e1a0200a 	mov	r2, sl
  1083b0:	e594101c 	ldr	r1, [r4, #28]
  1083b4:	e1a0000b 	mov	r0, fp
  1083b8:	e12fff35 	blx	r5
  1083bc:	e2505000 	subs	r5, r0, #0
  1083c0:	daffffda 	ble	108330 <__sfvwrite_r+0x240>
  1083c4:	e0588005 	subs	r8, r8, r5
  1083c8:	13a00001 	movne	r0, #1
  1083cc:	0affffd2 	beq	10831c <__sfvwrite_r+0x22c>
  1083d0:	e5993008 	ldr	r3, [r9, #8]
  1083d4:	e08aa005 	add	sl, sl, r5
  1083d8:	e0466005 	sub	r6, r6, r5
  1083dc:	e0435005 	sub	r5, r3, r5
  1083e0:	e5895008 	str	r5, [r9, #8]
  1083e4:	e3550000 	cmp	r5, #0
  1083e8:	0affffc6 	beq	108308 <__sfvwrite_r+0x218>
  1083ec:	e3560000 	cmp	r6, #0
  1083f0:	1affffd8 	bne	108358 <__sfvwrite_r+0x268>
  1083f4:	e2873008 	add	r3, r7, #8
  1083f8:	e5136004 	ldr	r6, [r3, #-4]
  1083fc:	e1a07003 	mov	r7, r3
  108400:	e513a008 	ldr	sl, [r3, #-8]
  108404:	e2833008 	add	r3, r3, #8
  108408:	e3560000 	cmp	r6, #0
  10840c:	0afffff9 	beq	1083f8 <__sfvwrite_r+0x308>
  108410:	e1a02006 	mov	r2, r6
  108414:	e3a0100a 	mov	r1, #10
  108418:	e1a0000a 	mov	r0, sl
  10841c:	fa0007ff 	blx	10a420 <memchr>
  108420:	e3500000 	cmp	r0, #0
  108424:	12800001 	addne	r0, r0, #1
  108428:	02868001 	addeq	r8, r6, #1
  10842c:	1040800a 	subne	r8, r0, sl
  108430:	eaffffca 	b	108360 <__sfvwrite_r+0x270>
  108434:	e5943010 	ldr	r3, [r4, #16]
  108438:	e1530000 	cmp	r3, r0
  10843c:	3a000011 	bcc	108488 <__sfvwrite_r+0x398>
  108440:	e5945014 	ldr	r5, [r4, #20]
  108444:	e1550006 	cmp	r5, r6
  108448:	8a00000e 	bhi	108488 <__sfvwrite_r+0x398>
  10844c:	e3760106 	cmn	r6, #-2147483647	; 0x80000001
  108450:	e1a01005 	mov	r1, r5
  108454:	31a00006 	movcc	r0, r6
  108458:	23e00102 	mvncs	r0, #-2147483648	; 0x80000000
  10845c:	eb00198b 	bl	10ea90 <__divsi3>
  108460:	e5948024 	ldr	r8, [r4, #36]	; 0x24
  108464:	e1a0200a 	mov	r2, sl
  108468:	e594101c 	ldr	r1, [r4, #28]
  10846c:	e0030095 	mul	r3, r5, r0
  108470:	e1a0000b 	mov	r0, fp
  108474:	e12fff38 	blx	r8
  108478:	e2505000 	subs	r5, r0, #0
  10847c:	daffffab 	ble	108330 <__sfvwrite_r+0x240>
  108480:	e0466005 	sub	r6, r6, r5
  108484:	eaffff8c 	b	1082bc <__sfvwrite_r+0x1cc>
  108488:	e1580006 	cmp	r8, r6
  10848c:	e1a0100a 	mov	r1, sl
  108490:	31a05008 	movcc	r5, r8
  108494:	21a05006 	movcs	r5, r6
  108498:	e1a02005 	mov	r2, r5
  10849c:	eb000807 	bl	10a4c0 <memmove>
  1084a0:	e5943008 	ldr	r3, [r4, #8]
  1084a4:	e5942000 	ldr	r2, [r4]
  1084a8:	e0433005 	sub	r3, r3, r5
  1084ac:	e5843008 	str	r3, [r4, #8]
  1084b0:	e3530000 	cmp	r3, #0
  1084b4:	e0823005 	add	r3, r2, r5
  1084b8:	e5843000 	str	r3, [r4]
  1084bc:	1affffef 	bne	108480 <__sfvwrite_r+0x390>
  1084c0:	e1a01004 	mov	r1, r4
  1084c4:	e1a0000b 	mov	r0, fp
  1084c8:	ebfffd2f 	bl	10798c <_fflush_r>
  1084cc:	e3500000 	cmp	r0, #0
  1084d0:	0affffea 	beq	108480 <__sfvwrite_r+0x390>
  1084d4:	eaffff95 	b	108330 <__sfvwrite_r+0x240>
  1084d8:	e1a08006 	mov	r8, r6
  1084dc:	e1a03006 	mov	r3, r6
  1084e0:	eaffff68 	b	108288 <__sfvwrite_r+0x198>
  1084e4:	e1a02005 	mov	r2, r5
  1084e8:	e1a0100a 	mov	r1, sl
  1084ec:	eb0007f3 	bl	10a4c0 <memmove>
  1084f0:	e5943000 	ldr	r3, [r4]
  1084f4:	e1a01004 	mov	r1, r4
  1084f8:	e1a0000b 	mov	r0, fp
  1084fc:	e0833005 	add	r3, r3, r5
  108500:	e5843000 	str	r3, [r4]
  108504:	ebfffd20 	bl	10798c <_fflush_r>
  108508:	e3500000 	cmp	r0, #0
  10850c:	0affffac 	beq	1083c4 <__sfvwrite_r+0x2d4>
  108510:	eaffff86 	b	108330 <__sfvwrite_r+0x240>
  108514:	e1a0000b 	mov	r0, fp
  108518:	eb000bbd 	bl	10b414 <_realloc_r>
  10851c:	e2503000 	subs	r3, r0, #0
  108520:	1affff50 	bne	108268 <__sfvwrite_r+0x178>
  108524:	e5941010 	ldr	r1, [r4, #16]
  108528:	e1a0000b 	mov	r0, fp
  10852c:	ebfffe36 	bl	107e0c <_free_r>
  108530:	e1d430fc 	ldrsh	r3, [r4, #12]
  108534:	e3a0200c 	mov	r2, #12
  108538:	e58b2000 	str	r2, [fp]
  10853c:	e3c33080 	bic	r3, r3, #128	; 0x80
  108540:	eaffff7b 	b	108334 <__sfvwrite_r+0x244>
  108544:	e1a02003 	mov	r2, r3
  108548:	e1a0100a 	mov	r1, sl
  10854c:	e58d3004 	str	r3, [sp, #4]
  108550:	e1a05003 	mov	r5, r3
  108554:	eb0007d9 	bl	10a4c0 <memmove>
  108558:	e5941008 	ldr	r1, [r4, #8]
  10855c:	e5942000 	ldr	r2, [r4]
  108560:	e59d3004 	ldr	r3, [sp, #4]
  108564:	e0411003 	sub	r1, r1, r3
  108568:	e0823003 	add	r3, r2, r3
  10856c:	e5841008 	str	r1, [r4, #8]
  108570:	e5843000 	str	r3, [r4]
  108574:	eaffff92 	b	1083c4 <__sfvwrite_r+0x2d4>
  108578:	e3a0200c 	mov	r2, #12
  10857c:	e1d430fc 	ldrsh	r3, [r4, #12]
  108580:	e58b2000 	str	r2, [fp]
  108584:	eaffff6a 	b	108334 <__sfvwrite_r+0x244>
  108588:	e3e00000 	mvn	r0, #0
  10858c:	eaffff5e 	b	10830c <__sfvwrite_r+0x21c>

00108590 <_fwalk>:
  108590:	e92d41f0 	push	{r4, r5, r6, r7, r8, lr}
  108594:	e2907e2e 	adds	r7, r0, #736	; 0x2e0
  108598:	01a06007 	moveq	r6, r7
  10859c:	0a000015 	beq	1085f8 <_fwalk+0x68>
  1085a0:	e1a08001 	mov	r8, r1
  1085a4:	e3a06000 	mov	r6, #0
  1085a8:	e5975004 	ldr	r5, [r7, #4]
  1085ac:	e5974008 	ldr	r4, [r7, #8]
  1085b0:	e2555001 	subs	r5, r5, #1
  1085b4:	4a00000c 	bmi	1085ec <_fwalk+0x5c>
  1085b8:	e1d430bc 	ldrh	r3, [r4, #12]
  1085bc:	e1a00004 	mov	r0, r4
  1085c0:	e2455001 	sub	r5, r5, #1
  1085c4:	e3530001 	cmp	r3, #1
  1085c8:	9a000004 	bls	1085e0 <_fwalk+0x50>
  1085cc:	e1d430fe 	ldrsh	r3, [r4, #14]
  1085d0:	e3730001 	cmn	r3, #1
  1085d4:	0a000001 	beq	1085e0 <_fwalk+0x50>
  1085d8:	e12fff38 	blx	r8
  1085dc:	e1866000 	orr	r6, r6, r0
  1085e0:	e3750001 	cmn	r5, #1
  1085e4:	e2844068 	add	r4, r4, #104	; 0x68
  1085e8:	1afffff2 	bne	1085b8 <_fwalk+0x28>
  1085ec:	e5977000 	ldr	r7, [r7]
  1085f0:	e3570000 	cmp	r7, #0
  1085f4:	1affffeb 	bne	1085a8 <_fwalk+0x18>
  1085f8:	e1a00006 	mov	r0, r6
  1085fc:	e8bd81f0 	pop	{r4, r5, r6, r7, r8, pc}

00108600 <_fwalk_reent>:
  108600:	e92d47f0 	push	{r4, r5, r6, r7, r8, r9, sl, lr}
  108604:	e2907e2e 	adds	r7, r0, #736	; 0x2e0
  108608:	01a09007 	moveq	r9, r7
  10860c:	0a000017 	beq	108670 <_fwalk_reent+0x70>
  108610:	e1a08001 	mov	r8, r1
  108614:	e1a06000 	mov	r6, r0
  108618:	e3a09000 	mov	r9, #0
  10861c:	e5975004 	ldr	r5, [r7, #4]
  108620:	e5974008 	ldr	r4, [r7, #8]
  108624:	e2555001 	subs	r5, r5, #1
  108628:	4a00000d 	bmi	108664 <_fwalk_reent+0x64>
  10862c:	e1d430bc 	ldrh	r3, [r4, #12]
  108630:	e1a01004 	mov	r1, r4
  108634:	e1a00006 	mov	r0, r6
  108638:	e2455001 	sub	r5, r5, #1
  10863c:	e3530001 	cmp	r3, #1
  108640:	9a000004 	bls	108658 <_fwalk_reent+0x58>
  108644:	e1d430fe 	ldrsh	r3, [r4, #14]
  108648:	e3730001 	cmn	r3, #1
  10864c:	0a000001 	beq	108658 <_fwalk_reent+0x58>
  108650:	e12fff38 	blx	r8
  108654:	e1899000 	orr	r9, r9, r0
  108658:	e3750001 	cmn	r5, #1
  10865c:	e2844068 	add	r4, r4, #104	; 0x68
  108660:	1afffff1 	bne	10862c <_fwalk_reent+0x2c>
  108664:	e5977000 	ldr	r7, [r7]
  108668:	e3570000 	cmp	r7, #0
  10866c:	1affffea 	bne	10861c <_fwalk_reent+0x1c>
  108670:	e1a00009 	mov	r0, r9
  108674:	e8bd87f0 	pop	{r4, r5, r6, r7, r8, r9, sl, pc}

00108678 <__get_locale_env>:
  108678:	e92d4070 	push	{r4, r5, r6, lr}
  10867c:	e1a05001 	mov	r5, r1
  108680:	e30f15d8 	movw	r1, #62936	; 0xf5d8
  108684:	e3401010 	movt	r1, #16
  108688:	e1a04000 	mov	r4, r0
  10868c:	eb0017ae 	bl	10e54c <_getenv_r>
  108690:	e3500000 	cmp	r0, #0
  108694:	0a000002 	beq	1086a4 <__get_locale_env+0x2c>
  108698:	e5d03000 	ldrb	r3, [r0]
  10869c:	e3530000 	cmp	r3, #0
  1086a0:	18bd8070 	popne	{r4, r5, r6, pc}
  1086a4:	e30f322c 	movw	r3, #61996	; 0xf22c
  1086a8:	e3403010 	movt	r3, #16
  1086ac:	e1a00004 	mov	r0, r4
  1086b0:	e7931105 	ldr	r1, [r3, r5, lsl #2]
  1086b4:	eb0017a4 	bl	10e54c <_getenv_r>
  1086b8:	e3500000 	cmp	r0, #0
  1086bc:	0a000002 	beq	1086cc <__get_locale_env+0x54>
  1086c0:	e5d03000 	ldrb	r3, [r0]
  1086c4:	e3530000 	cmp	r3, #0
  1086c8:	18bd8070 	popne	{r4, r5, r6, pc}
  1086cc:	e1a00004 	mov	r0, r4
  1086d0:	e30f15e0 	movw	r1, #62944	; 0xf5e0
  1086d4:	e3401010 	movt	r1, #16
  1086d8:	eb00179b 	bl	10e54c <_getenv_r>
  1086dc:	e3500000 	cmp	r0, #0
  1086e0:	1a000002 	bne	1086f0 <__get_locale_env+0x78>
  1086e4:	e30f0b74 	movw	r0, #64372	; 0xfb74
  1086e8:	e3400010 	movt	r0, #16
  1086ec:	e8bd8070 	pop	{r4, r5, r6, pc}
  1086f0:	e5d02000 	ldrb	r2, [r0]
  1086f4:	e30f3b74 	movw	r3, #64372	; 0xfb74
  1086f8:	e3403010 	movt	r3, #16
  1086fc:	e3520000 	cmp	r2, #0
  108700:	01a00003 	moveq	r0, r3
  108704:	e8bd8070 	pop	{r4, r5, r6, pc}

00108708 <loadlocale>:
  108708:	e92d4ff0 	push	{r4, r5, r6, r7, r8, r9, sl, fp, lr}
  10870c:	e1a04281 	lsl	r4, r1, #5
  108710:	e59f58d8 	ldr	r5, [pc, #2264]	; 108ff0 <loadlocale+0x8e8>
  108714:	e3086114 	movw	r6, #33044	; 0x8114
  108718:	e3406012 	movt	r6, #18
  10871c:	e24dd034 	sub	sp, sp, #52	; 0x34
  108720:	e0855004 	add	r5, r5, r4
  108724:	e0864004 	add	r4, r6, r4
  108728:	e1a07001 	mov	r7, r1
  10872c:	e1a09000 	mov	r9, r0
  108730:	e1a01005 	mov	r1, r5
  108734:	e1a00004 	mov	r0, r4
  108738:	fa000dba 	blx	10be28 <strcmp>
  10873c:	e3500000 	cmp	r0, #0
  108740:	1a000002 	bne	108750 <loadlocale+0x48>
  108744:	e1a00005 	mov	r0, r5
  108748:	e28dd034 	add	sp, sp, #52	; 0x34
  10874c:	e8bd8ff0 	pop	{r4, r5, r6, r7, r8, r9, sl, fp, pc}
  108750:	e30f15e8 	movw	r1, #62952	; 0xf5e8
  108754:	e1a00004 	mov	r0, r4
  108758:	e3401010 	movt	r1, #16
  10875c:	fa000db1 	blx	10be28 <strcmp>
  108760:	e3500000 	cmp	r0, #0
  108764:	0a00006c 	beq	10891c <loadlocale+0x214>
  108768:	e30f157c 	movw	r1, #62844	; 0xf57c
  10876c:	e1a00004 	mov	r0, r4
  108770:	e3401010 	movt	r1, #16
  108774:	fa000dab 	blx	10be28 <strcmp>
  108778:	e250a000 	subs	sl, r0, #0
  10877c:	0a000060 	beq	108904 <loadlocale+0x1fc>
  108780:	e7d63287 	ldrb	r3, [r6, r7, lsl #5]
  108784:	e3530043 	cmp	r3, #67	; 0x43
  108788:	0a000055 	beq	1088e4 <loadlocale+0x1dc>
  10878c:	e2433061 	sub	r3, r3, #97	; 0x61
  108790:	e3530019 	cmp	r3, #25
  108794:	8a000056 	bhi	1088f4 <loadlocale+0x1ec>
  108798:	e5d43001 	ldrb	r3, [r4, #1]
  10879c:	e2433061 	sub	r3, r3, #97	; 0x61
  1087a0:	e3530019 	cmp	r3, #25
  1087a4:	8a000052 	bhi	1088f4 <loadlocale+0x1ec>
  1087a8:	e5d43002 	ldrb	r3, [r4, #2]
  1087ac:	e2432061 	sub	r2, r3, #97	; 0x61
  1087b0:	e3520019 	cmp	r2, #25
  1087b4:	8284a002 	addhi	sl, r4, #2
  1087b8:	9284a003 	addls	sl, r4, #3
  1087bc:	95d43003 	ldrbls	r3, [r4, #3]
  1087c0:	e353005f 	cmp	r3, #95	; 0x5f
  1087c4:	0a000059 	beq	108930 <loadlocale+0x228>
  1087c8:	e353002e 	cmp	r3, #46	; 0x2e
  1087cc:	0a0001a0 	beq	108e54 <loadlocale+0x74c>
  1087d0:	e31300bf 	tst	r3, #191	; 0xbf
  1087d4:	1a000046 	bne	1088f4 <loadlocale+0x1ec>
  1087d8:	e28d8010 	add	r8, sp, #16
  1087dc:	e30f15f8 	movw	r1, #62968	; 0xf5f8
  1087e0:	e3401010 	movt	r1, #16
  1087e4:	e1a00008 	mov	r0, r8
  1087e8:	eb000e43 	bl	10c0fc <strcpy>
  1087ec:	e5da3000 	ldrb	r3, [sl]
  1087f0:	e3530040 	cmp	r3, #64	; 0x40
  1087f4:	0a0001a7 	beq	108e98 <loadlocale+0x790>
  1087f8:	e3a0a000 	mov	sl, #0
  1087fc:	e5dd3010 	ldrb	r3, [sp, #16]
  108800:	e2433041 	sub	r3, r3, #65	; 0x41
  108804:	e3530034 	cmp	r3, #52	; 0x34
  108808:	979ff103 	ldrls	pc, [pc, r3, lsl #2]
  10880c:	ea000038 	b	1088f4 <loadlocale+0x1ec>
  108810:	00108c08 	.word	0x00108c08
  108814:	001088f4 	.word	0x001088f4
  108818:	00108b94 	.word	0x00108b94
  10881c:	001088f4 	.word	0x001088f4
  108820:	00108c88 	.word	0x00108c88
  108824:	001088f4 	.word	0x001088f4
  108828:	00108c34 	.word	0x00108c34
  10882c:	001088f4 	.word	0x001088f4
  108830:	00108cf0 	.word	0x00108cf0
  108834:	00108b54 	.word	0x00108b54
  108838:	00108b04 	.word	0x00108b04
  10883c:	001088f4 	.word	0x001088f4
  108840:	001088f4 	.word	0x001088f4
  108844:	001088f4 	.word	0x001088f4
  108848:	001088f4 	.word	0x001088f4
  10884c:	00108ad8 	.word	0x00108ad8
  108850:	001088f4 	.word	0x001088f4
  108854:	001088f4 	.word	0x001088f4
  108858:	00108a98 	.word	0x00108a98
  10885c:	001089e8 	.word	0x001089e8
  108860:	0010895c 	.word	0x0010895c
  108864:	001088f4 	.word	0x001088f4
  108868:	001088f4 	.word	0x001088f4
  10886c:	001088f4 	.word	0x001088f4
  108870:	001088f4 	.word	0x001088f4
  108874:	001088f4 	.word	0x001088f4
  108878:	001088f4 	.word	0x001088f4
  10887c:	001088f4 	.word	0x001088f4
  108880:	001088f4 	.word	0x001088f4
  108884:	001088f4 	.word	0x001088f4
  108888:	001088f4 	.word	0x001088f4
  10888c:	001088f4 	.word	0x001088f4
  108890:	00108c08 	.word	0x00108c08
  108894:	001088f4 	.word	0x001088f4
  108898:	00108b94 	.word	0x00108b94
  10889c:	001088f4 	.word	0x001088f4
  1088a0:	00108c88 	.word	0x00108c88
  1088a4:	001088f4 	.word	0x001088f4
  1088a8:	00108c34 	.word	0x00108c34
  1088ac:	001088f4 	.word	0x001088f4
  1088b0:	00108cf0 	.word	0x00108cf0
  1088b4:	00108b54 	.word	0x00108b54
  1088b8:	00108b04 	.word	0x00108b04
  1088bc:	001088f4 	.word	0x001088f4
  1088c0:	001088f4 	.word	0x001088f4
  1088c4:	001088f4 	.word	0x001088f4
  1088c8:	001088f4 	.word	0x001088f4
  1088cc:	00108ad8 	.word	0x00108ad8
  1088d0:	001088f4 	.word	0x001088f4
  1088d4:	001088f4 	.word	0x001088f4
  1088d8:	00108a98 	.word	0x00108a98
  1088dc:	001089e8 	.word	0x001089e8
  1088e0:	0010895c 	.word	0x0010895c
  1088e4:	e5d43001 	ldrb	r3, [r4, #1]
  1088e8:	e243302d 	sub	r3, r3, #45	; 0x2d
  1088ec:	e3530001 	cmp	r3, #1
  1088f0:	9a00016f 	bls	108eb4 <loadlocale+0x7ac>
  1088f4:	e3a05000 	mov	r5, #0
  1088f8:	e1a00005 	mov	r0, r5
  1088fc:	e28dd034 	add	sp, sp, #52	; 0x34
  108900:	e8bd8ff0 	pop	{r4, r5, r6, r7, r8, r9, sl, fp, pc}
  108904:	e28d8010 	add	r8, sp, #16
  108908:	e30f15f0 	movw	r1, #62960	; 0xf5f0
  10890c:	e3401010 	movt	r1, #16
  108910:	e1a00008 	mov	r0, r8
  108914:	eb000df8 	bl	10c0fc <strcpy>
  108918:	eaffffb7 	b	1087fc <loadlocale+0xf4>
  10891c:	e30f157c 	movw	r1, #62844	; 0xf57c
  108920:	e1a00004 	mov	r0, r4
  108924:	e3401010 	movt	r1, #16
  108928:	eb000df3 	bl	10c0fc <strcpy>
  10892c:	eaffff8d 	b	108768 <loadlocale+0x60>
  108930:	e5da3001 	ldrb	r3, [sl, #1]
  108934:	e2433041 	sub	r3, r3, #65	; 0x41
  108938:	e3530019 	cmp	r3, #25
  10893c:	8affffec 	bhi	1088f4 <loadlocale+0x1ec>
  108940:	e5da3002 	ldrb	r3, [sl, #2]
  108944:	e2433041 	sub	r3, r3, #65	; 0x41
  108948:	e3530019 	cmp	r3, #25
  10894c:	8affffe8 	bhi	1088f4 <loadlocale+0x1ec>
  108950:	e5da3003 	ldrb	r3, [sl, #3]
  108954:	e28aa003 	add	sl, sl, #3
  108958:	eaffff9a 	b	1087c8 <loadlocale+0xc0>
  10895c:	e30f1610 	movw	r1, #62992	; 0xf610
  108960:	e1a00008 	mov	r0, r8
  108964:	e3401010 	movt	r1, #16
  108968:	eb000c92 	bl	10bbb8 <strcasecmp>
  10896c:	e3500000 	cmp	r0, #0
  108970:	0a000005 	beq	10898c <loadlocale+0x284>
  108974:	e30f1618 	movw	r1, #63000	; 0xf618
  108978:	e1a00008 	mov	r0, r8
  10897c:	e3401010 	movt	r1, #16
  108980:	eb000c8c 	bl	10bbb8 <strcasecmp>
  108984:	e3500000 	cmp	r0, #0
  108988:	1affffd9 	bne	1088f4 <loadlocale+0x1ec>
  10898c:	e30f1610 	movw	r1, #62992	; 0xf610
  108990:	e1a00008 	mov	r0, r8
  108994:	e3401010 	movt	r1, #16
  108998:	e3099d84 	movw	r9, #40324	; 0x9d84
  10899c:	e305bdc8 	movw	fp, #24008	; 0x5dc8
  1089a0:	e3409010 	movt	r9, #16
  1089a4:	e340b010 	movt	fp, #16
  1089a8:	eb000dd3 	bl	10c0fc <strcpy>
  1089ac:	e3a03006 	mov	r3, #6
  1089b0:	e3570002 	cmp	r7, #2
  1089b4:	0a000108 	beq	108ddc <loadlocale+0x6d4>
  1089b8:	e3570006 	cmp	r7, #6
  1089bc:	1a000002 	bne	1089cc <loadlocale+0x2c4>
  1089c0:	e1a01008 	mov	r1, r8
  1089c4:	e59f0628 	ldr	r0, [pc, #1576]	; 108ff4 <loadlocale+0x8ec>
  1089c8:	eb000dcb 	bl	10c0fc <strcpy>
  1089cc:	e1a01004 	mov	r1, r4
  1089d0:	e1a00005 	mov	r0, r5
  1089d4:	eb000dc8 	bl	10c0fc <strcpy>
  1089d8:	e1a05000 	mov	r5, r0
  1089dc:	e1a00005 	mov	r0, r5
  1089e0:	e28dd034 	add	sp, sp, #52	; 0x34
  1089e4:	e8bd8ff0 	pop	{r4, r5, r6, r7, r8, r9, sl, fp, pc}
  1089e8:	e30f1698 	movw	r1, #63128	; 0xf698
  1089ec:	e3a02003 	mov	r2, #3
  1089f0:	e3401010 	movt	r1, #16
  1089f4:	e1a00008 	mov	r0, r8
  1089f8:	eb000e12 	bl	10c248 <strncasecmp>
  1089fc:	e3500000 	cmp	r0, #0
  108a00:	1affffbb 	bne	1088f4 <loadlocale+0x1ec>
  108a04:	e5dd3013 	ldrb	r3, [sp, #19]
  108a08:	e30f169c 	movw	r1, #63132	; 0xf69c
  108a0c:	e3401010 	movt	r1, #16
  108a10:	e353002d 	cmp	r3, #45	; 0x2d
  108a14:	128d0013 	addne	r0, sp, #19
  108a18:	028d0014 	addeq	r0, sp, #20
  108a1c:	eb000c65 	bl	10bbb8 <strcasecmp>
  108a20:	e3500000 	cmp	r0, #0
  108a24:	1affffb2 	bne	1088f4 <loadlocale+0x1ec>
  108a28:	e30f16a0 	movw	r1, #63136	; 0xf6a0
  108a2c:	e1a00008 	mov	r0, r8
  108a30:	e3401010 	movt	r1, #16
  108a34:	eb000db0 	bl	10c0fc <strcpy>
  108a38:	e3570002 	cmp	r7, #2
  108a3c:	1affffdd 	bne	1089b8 <loadlocale+0x2b0>
  108a40:	e30f7b74 	movw	r7, #64372	; 0xfb74
  108a44:	e3407010 	movt	r7, #16
  108a48:	e1a01008 	mov	r1, r8
  108a4c:	e2870c01 	add	r0, r7, #256	; 0x100
  108a50:	eb000da9 	bl	10c0fc <strcpy>
  108a54:	e30f2b70 	movw	r2, #64368	; 0xfb70
  108a58:	e3003100 	movw	r3, #256	; 0x100
  108a5c:	e3402010 	movt	r2, #16
  108a60:	e3403011 	movt	r3, #17
  108a64:	e1a00008 	mov	r0, r8
  108a68:	e3a01001 	mov	r1, #1
  108a6c:	e5871120 	str	r1, [r7, #288]	; 0x120
  108a70:	e3051d58 	movw	r1, #23896	; 0x5d58
  108a74:	e3401010 	movt	r1, #16
  108a78:	e5821000 	str	r1, [r2]
  108a7c:	e3092cf4 	movw	r2, #40180	; 0x9cf4
  108a80:	e3402010 	movt	r2, #16
  108a84:	e5832000 	str	r2, [r3]
  108a88:	eb0015c0 	bl	10e190 <__set_ctype>
  108a8c:	e3a00000 	mov	r0, #0
  108a90:	e58600e0 	str	r0, [r6, #224]	; 0xe0
  108a94:	eaffffcc 	b	1089cc <loadlocale+0x2c4>
  108a98:	e30f1634 	movw	r1, #63028	; 0xf634
  108a9c:	e1a00008 	mov	r0, r8
  108aa0:	e3401010 	movt	r1, #16
  108aa4:	eb000c43 	bl	10bbb8 <strcasecmp>
  108aa8:	e3500000 	cmp	r0, #0
  108aac:	1affff90 	bne	1088f4 <loadlocale+0x1ec>
  108ab0:	e30f1634 	movw	r1, #63028	; 0xf634
  108ab4:	e1a00008 	mov	r0, r8
  108ab8:	e3401010 	movt	r1, #16
  108abc:	e30a9080 	movw	r9, #41088	; 0xa080
  108ac0:	eb000d8d 	bl	10c0fc <strcpy>
  108ac4:	e305bebc 	movw	fp, #24252	; 0x5ebc
  108ac8:	e3409010 	movt	r9, #16
  108acc:	e3a03002 	mov	r3, #2
  108ad0:	e340b010 	movt	fp, #16
  108ad4:	eaffffb5 	b	1089b0 <loadlocale+0x2a8>
  108ad8:	e30f1688 	movw	r1, #63112	; 0xf688
  108adc:	e1a00008 	mov	r0, r8
  108ae0:	e3401010 	movt	r1, #16
  108ae4:	eb000c33 	bl	10bbb8 <strcasecmp>
  108ae8:	e3500000 	cmp	r0, #0
  108aec:	1affff80 	bne	1088f4 <loadlocale+0x1ec>
  108af0:	e30f1690 	movw	r1, #63120	; 0xf690
  108af4:	e1a00008 	mov	r0, r8
  108af8:	e3401010 	movt	r1, #16
  108afc:	eb000d7e 	bl	10c0fc <strcpy>
  108b00:	eaffffcc 	b	108a38 <loadlocale+0x330>
  108b04:	e30f1658 	movw	r1, #63064	; 0xf658
  108b08:	e3a02004 	mov	r2, #4
  108b0c:	e3401010 	movt	r1, #16
  108b10:	e1a00008 	mov	r0, r8
  108b14:	eb000dcb 	bl	10c248 <strncasecmp>
  108b18:	e3500000 	cmp	r0, #0
  108b1c:	1affff74 	bne	1088f4 <loadlocale+0x1ec>
  108b20:	e5dd3014 	ldrb	r3, [sp, #20]
  108b24:	e353002d 	cmp	r3, #45	; 0x2d
  108b28:	05dd3015 	ldrbeq	r3, [sp, #21]
  108b2c:	e20330df 	and	r3, r3, #223	; 0xdf
  108b30:	e3530052 	cmp	r3, #82	; 0x52
  108b34:	0a0000e0 	beq	108ebc <loadlocale+0x7b4>
  108b38:	e3530055 	cmp	r3, #85	; 0x55
  108b3c:	1affff6c 	bne	1088f4 <loadlocale+0x1ec>
  108b40:	e30f1668 	movw	r1, #63080	; 0xf668
  108b44:	e1a00008 	mov	r0, r8
  108b48:	e3401010 	movt	r1, #16
  108b4c:	eb000d6a 	bl	10c0fc <strcpy>
  108b50:	eaffffb8 	b	108a38 <loadlocale+0x330>
  108b54:	e30f1620 	movw	r1, #63008	; 0xf620
  108b58:	e1a00008 	mov	r0, r8
  108b5c:	e3401010 	movt	r1, #16
  108b60:	eb000c14 	bl	10bbb8 <strcasecmp>
  108b64:	e3500000 	cmp	r0, #0
  108b68:	1affff61 	bne	1088f4 <loadlocale+0x1ec>
  108b6c:	e30f1620 	movw	r1, #63008	; 0xf620
  108b70:	e1a00008 	mov	r0, r8
  108b74:	e3401010 	movt	r1, #16
  108b78:	e30a9278 	movw	r9, #41592	; 0xa278
  108b7c:	eb000d5e 	bl	10c0fc <strcpy>
  108b80:	e306b000 	movw	fp, #24576	; 0x6000
  108b84:	e3409010 	movt	r9, #16
  108b88:	e3a03008 	mov	r3, #8
  108b8c:	e340b010 	movt	fp, #16
  108b90:	eaffff86 	b	1089b0 <loadlocale+0x2a8>
  108b94:	e5dd3011 	ldrb	r3, [sp, #17]
  108b98:	e20330df 	and	r3, r3, #223	; 0xdf
  108b9c:	e3530050 	cmp	r3, #80	; 0x50
  108ba0:	1affff53 	bne	1088f4 <loadlocale+0x1ec>
  108ba4:	e3a02002 	mov	r2, #2
  108ba8:	e30f1654 	movw	r1, #63060	; 0xf654
  108bac:	e1a00008 	mov	r0, r8
  108bb0:	e3401010 	movt	r1, #16
  108bb4:	eb000e05 	bl	10c3d0 <strncpy>
  108bb8:	e3a0300a 	mov	r3, #10
  108bbc:	e1a00009 	mov	r0, r9
  108bc0:	e28d200c 	add	r2, sp, #12
  108bc4:	e28d1012 	add	r1, sp, #18
  108bc8:	eb000e36 	bl	10c4a8 <_strtol_r>
  108bcc:	e59d300c 	ldr	r3, [sp, #12]
  108bd0:	e5d33000 	ldrb	r3, [r3]
  108bd4:	e3530000 	cmp	r3, #0
  108bd8:	1affff45 	bne	1088f4 <loadlocale+0x1ec>
  108bdc:	e300335a 	movw	r3, #858	; 0x35a
  108be0:	e1500003 	cmp	r0, r3
  108be4:	da0000cf 	ble	108f28 <loadlocale+0x820>
  108be8:	e3500fe9 	cmp	r0, #932	; 0x3a4
  108bec:	1a0000e2 	bne	108f7c <loadlocale+0x874>
  108bf0:	e30a9080 	movw	r9, #41088	; 0xa080
  108bf4:	e305bebc 	movw	fp, #24252	; 0x5ebc
  108bf8:	e3409010 	movt	r9, #16
  108bfc:	e340b010 	movt	fp, #16
  108c00:	e3a03002 	mov	r3, #2
  108c04:	eaffff69 	b	1089b0 <loadlocale+0x2a8>
  108c08:	e30f15f0 	movw	r1, #62960	; 0xf5f0
  108c0c:	e1a00008 	mov	r0, r8
  108c10:	e3401010 	movt	r1, #16
  108c14:	eb000be7 	bl	10bbb8 <strcasecmp>
  108c18:	e3500000 	cmp	r0, #0
  108c1c:	1affff34 	bne	1088f4 <loadlocale+0x1ec>
  108c20:	e30f15f0 	movw	r1, #62960	; 0xf5f0
  108c24:	e1a00008 	mov	r0, r8
  108c28:	e3401010 	movt	r1, #16
  108c2c:	eb000d32 	bl	10c0fc <strcpy>
  108c30:	eaffff80 	b	108a38 <loadlocale+0x330>
  108c34:	e30f1670 	movw	r1, #63088	; 0xf670
  108c38:	e3a02008 	mov	r2, #8
  108c3c:	e3401010 	movt	r1, #16
  108c40:	e1a00008 	mov	r0, r8
  108c44:	eb000d7f 	bl	10c248 <strncasecmp>
  108c48:	e3500000 	cmp	r0, #0
  108c4c:	1affff28 	bne	1088f4 <loadlocale+0x1ec>
  108c50:	e5dd3018 	ldrb	r3, [sp, #24]
  108c54:	e30f167c 	movw	r1, #63100	; 0xf67c
  108c58:	e3401010 	movt	r1, #16
  108c5c:	e353002d 	cmp	r3, #45	; 0x2d
  108c60:	128d0018 	addne	r0, sp, #24
  108c64:	028d0019 	addeq	r0, sp, #25
  108c68:	eb000bd2 	bl	10bbb8 <strcasecmp>
  108c6c:	e3500000 	cmp	r0, #0
  108c70:	1affff1f 	bne	1088f4 <loadlocale+0x1ec>
  108c74:	e30f1680 	movw	r1, #63104	; 0xf680
  108c78:	e1a00008 	mov	r0, r8
  108c7c:	e3401010 	movt	r1, #16
  108c80:	eb000d1d 	bl	10c0fc <strcpy>
  108c84:	eaffff6b 	b	108a38 <loadlocale+0x330>
  108c88:	e30f1624 	movw	r1, #63012	; 0xf624
  108c8c:	e3a02003 	mov	r2, #3
  108c90:	e3401010 	movt	r1, #16
  108c94:	e1a00008 	mov	r0, r8
  108c98:	eb000d6a 	bl	10c248 <strncasecmp>
  108c9c:	e3500000 	cmp	r0, #0
  108ca0:	1affff13 	bne	1088f4 <loadlocale+0x1ec>
  108ca4:	e5dd3013 	ldrb	r3, [sp, #19]
  108ca8:	e30f1628 	movw	r1, #63016	; 0xf628
  108cac:	e3401010 	movt	r1, #16
  108cb0:	e353002d 	cmp	r3, #45	; 0x2d
  108cb4:	128d0013 	addne	r0, sp, #19
  108cb8:	028d0014 	addeq	r0, sp, #20
  108cbc:	eb000bbd 	bl	10bbb8 <strcasecmp>
  108cc0:	e3500000 	cmp	r0, #0
  108cc4:	1affff0a 	bne	1088f4 <loadlocale+0x1ec>
  108cc8:	e30f162c 	movw	r1, #63020	; 0xf62c
  108ccc:	e1a00008 	mov	r0, r8
  108cd0:	e3401010 	movt	r1, #16
  108cd4:	e30a914c 	movw	r9, #41292	; 0xa14c
  108cd8:	eb000d07 	bl	10c0fc <strcpy>
  108cdc:	e305bf48 	movw	fp, #24392	; 0x5f48
  108ce0:	e3409010 	movt	r9, #16
  108ce4:	e3a03003 	mov	r3, #3
  108ce8:	e340b010 	movt	fp, #16
  108cec:	eaffff2f 	b	1089b0 <loadlocale+0x2a8>
  108cf0:	e30f163c 	movw	r1, #63036	; 0xf63c
  108cf4:	e3a02003 	mov	r2, #3
  108cf8:	e3401010 	movt	r1, #16
  108cfc:	e1a00008 	mov	r0, r8
  108d00:	eb000d50 	bl	10c248 <strncasecmp>
  108d04:	e3500000 	cmp	r0, #0
  108d08:	1afffef9 	bne	1088f4 <loadlocale+0x1ec>
  108d0c:	e5dd3013 	ldrb	r3, [sp, #19]
  108d10:	e30f1640 	movw	r1, #63040	; 0xf640
  108d14:	e3a02004 	mov	r2, #4
  108d18:	e3401010 	movt	r1, #16
  108d1c:	e353002d 	cmp	r3, #45	; 0x2d
  108d20:	128da013 	addne	sl, sp, #19
  108d24:	028da014 	addeq	sl, sp, #20
  108d28:	e1a0000a 	mov	r0, sl
  108d2c:	eb000d45 	bl	10c248 <strncasecmp>
  108d30:	e3500000 	cmp	r0, #0
  108d34:	1afffeee 	bne	1088f4 <loadlocale+0x1ec>
  108d38:	e5da3004 	ldrb	r3, [sl, #4]
  108d3c:	e1a00009 	mov	r0, r9
  108d40:	e28d200c 	add	r2, sp, #12
  108d44:	e353002d 	cmp	r3, #45	; 0x2d
  108d48:	e3a0300a 	mov	r3, #10
  108d4c:	128a1004 	addne	r1, sl, #4
  108d50:	028a1005 	addeq	r1, sl, #5
  108d54:	eb000dd3 	bl	10c4a8 <_strtol_r>
  108d58:	e240300c 	sub	r3, r0, #12
  108d5c:	e2402001 	sub	r2, r0, #1
  108d60:	e16f3f13 	clz	r3, r3
  108d64:	e1a09000 	mov	r9, r0
  108d68:	e1a032a3 	lsr	r3, r3, #5
  108d6c:	e352000f 	cmp	r2, #15
  108d70:	83833001 	orrhi	r3, r3, #1
  108d74:	e3530000 	cmp	r3, #0
  108d78:	1afffedd 	bne	1088f4 <loadlocale+0x1ec>
  108d7c:	e59d300c 	ldr	r3, [sp, #12]
  108d80:	e5d33000 	ldrb	r3, [r3]
  108d84:	e3530000 	cmp	r3, #0
  108d88:	1afffed9 	bne	1088f4 <loadlocale+0x1ec>
  108d8c:	e30f1648 	movw	r1, #63048	; 0xf648
  108d90:	e1a00008 	mov	r0, r8
  108d94:	e3401010 	movt	r1, #16
  108d98:	eb000cd7 	bl	10c0fc <strcpy>
  108d9c:	e30c2ccd 	movw	r2, #52429	; 0xcccd
  108da0:	e34c2ccc 	movt	r2, #52428	; 0xcccc
  108da4:	e359000a 	cmp	r9, #10
  108da8:	e3a0000a 	mov	r0, #10
  108dac:	828d101a 	addhi	r1, sp, #26
  108db0:	e08ba299 	umull	sl, fp, r9, r2
  108db4:	83a03031 	movhi	r3, #49	; 0x31
  108db8:	928d1019 	addls	r1, sp, #25
  108dbc:	e3a02000 	mov	r2, #0
  108dc0:	85cd3019 	strbhi	r3, [sp, #25]
  108dc4:	e1a031ab 	lsr	r3, fp, #3
  108dc8:	e5c12001 	strb	r2, [r1, #1]
  108dcc:	e0639390 	mls	r3, r0, r3, r9
  108dd0:	e2833030 	add	r3, r3, #48	; 0x30
  108dd4:	e5c13000 	strb	r3, [r1]
  108dd8:	eaffff16 	b	108a38 <loadlocale+0x330>
  108ddc:	e30f2b74 	movw	r2, #64372	; 0xfb74
  108de0:	e3402010 	movt	r2, #16
  108de4:	e2820c01 	add	r0, r2, #256	; 0x100
  108de8:	e1a01008 	mov	r1, r8
  108dec:	e58d3004 	str	r3, [sp, #4]
  108df0:	e58d2000 	str	r2, [sp]
  108df4:	eb000cc0 	bl	10c0fc <strcpy>
  108df8:	e1cd20d0 	ldrd	r2, [sp]
  108dfc:	e30fcb70 	movw	ip, #64368	; 0xfb70
  108e00:	e3001100 	movw	r1, #256	; 0x100
  108e04:	e340c010 	movt	ip, #16
  108e08:	e3401011 	movt	r1, #17
  108e0c:	e1a00008 	mov	r0, r8
  108e10:	e5823120 	str	r3, [r2, #288]	; 0x120
  108e14:	e58d3000 	str	r3, [sp]
  108e18:	e58cb000 	str	fp, [ip]
  108e1c:	e5819000 	str	r9, [r1]
  108e20:	eb0014da 	bl	10e190 <__set_ctype>
  108e24:	e59d3000 	ldr	r3, [sp]
  108e28:	e22a0001 	eor	r0, sl, #1
  108e2c:	e3530001 	cmp	r3, #1
  108e30:	d3a00000 	movle	r0, #0
  108e34:	c2000001 	andgt	r0, r0, #1
  108e38:	e3500000 	cmp	r0, #0
  108e3c:	0affff13 	beq	108a90 <loadlocale+0x388>
  108e40:	e5dd3010 	ldrb	r3, [sp, #16]
  108e44:	e3530055 	cmp	r3, #85	; 0x55
  108e48:	0a000020 	beq	108ed0 <loadlocale+0x7c8>
  108e4c:	e3a00001 	mov	r0, #1
  108e50:	eaffff0e 	b	108a90 <loadlocale+0x388>
  108e54:	e28aa001 	add	sl, sl, #1
  108e58:	e28d8010 	add	r8, sp, #16
  108e5c:	e1a0100a 	mov	r1, sl
  108e60:	e1a00008 	mov	r0, r8
  108e64:	eb000ca4 	bl	10c0fc <strcpy>
  108e68:	e3a01040 	mov	r1, #64	; 0x40
  108e6c:	e1a00008 	mov	r0, r8
  108e70:	eb000b87 	bl	10bc94 <strchr>
  108e74:	e3500000 	cmp	r0, #0
  108e78:	13a03000 	movne	r3, #0
  108e7c:	15c03000 	strbne	r3, [r0]
  108e80:	e1a00008 	mov	r0, r8
  108e84:	faffe84d 	blx	102fc0 <strlen>
  108e88:	e08aa000 	add	sl, sl, r0
  108e8c:	e35a0000 	cmp	sl, #0
  108e90:	0afffe58 	beq	1087f8 <loadlocale+0xf0>
  108e94:	eafffe54 	b	1087ec <loadlocale+0xe4>
  108e98:	e28a0001 	add	r0, sl, #1
  108e9c:	e30f1604 	movw	r1, #62980	; 0xf604
  108ea0:	e3401010 	movt	r1, #16
  108ea4:	fa000bdf 	blx	10be28 <strcmp>
  108ea8:	e16faf10 	clz	sl, r0
  108eac:	e1a0a2aa 	lsr	sl, sl, #5
  108eb0:	eafffe51 	b	1087fc <loadlocale+0xf4>
  108eb4:	e284a002 	add	sl, r4, #2
  108eb8:	eaffffe6 	b	108e58 <loadlocale+0x750>
  108ebc:	e30f1660 	movw	r1, #63072	; 0xf660
  108ec0:	e1a00008 	mov	r0, r8
  108ec4:	e3401010 	movt	r1, #16
  108ec8:	eb000c8b 	bl	10c0fc <strcpy>
  108ecc:	eafffed9 	b	108a38 <loadlocale+0x330>
  108ed0:	e30f16a8 	movw	r1, #63144	; 0xf6a8
  108ed4:	e1a02007 	mov	r2, r7
  108ed8:	e3401010 	movt	r1, #16
  108edc:	e59f0114 	ldr	r0, [pc, #276]	; 108ff8 <loadlocale+0x8f0>
  108ee0:	eb000cfc 	bl	10c2d8 <strncmp>
  108ee4:	e3500000 	cmp	r0, #0
  108ee8:	0affffd7 	beq	108e4c <loadlocale+0x744>
  108eec:	e30f16ac 	movw	r1, #63148	; 0xf6ac
  108ef0:	e1a02007 	mov	r2, r7
  108ef4:	e3401010 	movt	r1, #16
  108ef8:	e59f00f8 	ldr	r0, [pc, #248]	; 108ff8 <loadlocale+0x8f0>
  108efc:	eb000cf5 	bl	10c2d8 <strncmp>
  108f00:	e3500000 	cmp	r0, #0
  108f04:	0affffd0 	beq	108e4c <loadlocale+0x744>
  108f08:	e1a02007 	mov	r2, r7
  108f0c:	e30f16b0 	movw	r1, #63152	; 0xf6b0
  108f10:	e59f00e0 	ldr	r0, [pc, #224]	; 108ff8 <loadlocale+0x8f0>
  108f14:	e3401010 	movt	r1, #16
  108f18:	eb000cee 	bl	10c2d8 <strncmp>
  108f1c:	e16f0f10 	clz	r0, r0
  108f20:	e1a002a0 	lsr	r0, r0, #5
  108f24:	eafffed9 	b	108a90 <loadlocale+0x388>
  108f28:	e3500fd6 	cmp	r0, #856	; 0x358
  108f2c:	ca00000c 	bgt	108f64 <loadlocale+0x85c>
  108f30:	e3003307 	movw	r3, #775	; 0x307
  108f34:	e1500003 	cmp	r0, r3
  108f38:	0a000009 	beq	108f64 <loadlocale+0x85c>
  108f3c:	e3500fc2 	cmp	r0, #776	; 0x308
  108f40:	aa000018 	bge	108fa8 <loadlocale+0x8a0>
  108f44:	e3500e2d 	cmp	r0, #720	; 0x2d0
  108f48:	0a000005 	beq	108f64 <loadlocale+0x85c>
  108f4c:	e30032e1 	movw	r3, #737	; 0x2e1
  108f50:	e1500003 	cmp	r0, r3
  108f54:	0a000002 	beq	108f64 <loadlocale+0x85c>
  108f58:	e30031b5 	movw	r3, #437	; 0x1b5
  108f5c:	e1500003 	cmp	r0, r3
  108f60:	1afffe63 	bne	1088f4 <loadlocale+0x1ec>
  108f64:	e3099cf4 	movw	r9, #40180	; 0x9cf4
  108f68:	e305bd58 	movw	fp, #23896	; 0x5d58
  108f6c:	e3409010 	movt	r9, #16
  108f70:	e340b010 	movt	fp, #16
  108f74:	e3a03001 	mov	r3, #1
  108f78:	eafffe8c 	b	1089b0 <loadlocale+0x2a8>
  108f7c:	ca000012 	bgt	108fcc <loadlocale+0x8c4>
  108f80:	e3003362 	movw	r3, #866	; 0x362
  108f84:	e1500003 	cmp	r0, r3
  108f88:	0afffff5 	beq	108f64 <loadlocale+0x85c>
  108f8c:	e300336a 	movw	r3, #874	; 0x36a
  108f90:	e1500003 	cmp	r0, r3
  108f94:	0afffff2 	beq	108f64 <loadlocale+0x85c>
  108f98:	e300335e 	movw	r3, #862	; 0x35e
  108f9c:	e1500003 	cmp	r0, r3
  108fa0:	1afffe53 	bne	1088f4 <loadlocale+0x1ec>
  108fa4:	eaffffee 	b	108f64 <loadlocale+0x85c>
  108fa8:	e3500fd5 	cmp	r0, #852	; 0x354
  108fac:	0affffec 	beq	108f64 <loadlocale+0x85c>
  108fb0:	e3003357 	movw	r3, #855	; 0x357
  108fb4:	e1500003 	cmp	r0, r3
  108fb8:	0affffe9 	beq	108f64 <loadlocale+0x85c>
  108fbc:	e3003352 	movw	r3, #850	; 0x352
  108fc0:	e1500003 	cmp	r0, r3
  108fc4:	1afffe4a 	bne	1088f4 <loadlocale+0x1ec>
  108fc8:	eaffffe5 	b	108f64 <loadlocale+0x85c>
  108fcc:	e3003465 	movw	r3, #1125	; 0x465
  108fd0:	e1500003 	cmp	r0, r3
  108fd4:	0affffe2 	beq	108f64 <loadlocale+0x85c>
  108fd8:	bafffe45 	blt	1088f4 <loadlocale+0x1ec>
  108fdc:	e2400e4e 	sub	r0, r0, #1248	; 0x4e0
  108fe0:	e2400002 	sub	r0, r0, #2
  108fe4:	e3500008 	cmp	r0, #8
  108fe8:	8afffe41 	bhi	1088f4 <loadlocale+0x1ec>
  108fec:	eaffffdc 	b	108f64 <loadlocale+0x85c>
  108ff0:	0010fb94 	.word	0x0010fb94
  108ff4:	0010fc98 	.word	0x0010fc98
  108ff8:	00128154 	.word	0x00128154

00108ffc <currentlocale>:
  108ffc:	e92d41f0 	push	{r4, r5, r6, r7, r8, lr}
  109000:	e59f1074 	ldr	r1, [pc, #116]	; 10907c <currentlocale+0x80>
  109004:	e59f0074 	ldr	r0, [pc, #116]	; 109080 <currentlocale+0x84>
  109008:	eb000c3b 	bl	10c0fc <strcpy>
  10900c:	e59f5070 	ldr	r5, [pc, #112]	; 109084 <currentlocale+0x88>
  109010:	e28560a0 	add	r6, r5, #160	; 0xa0
  109014:	e2457020 	sub	r7, r5, #32
  109018:	e1a04005 	mov	r4, r5
  10901c:	e1a01004 	mov	r1, r4
  109020:	e1a00007 	mov	r0, r7
  109024:	fa000b7f 	blx	10be28 <strcmp>
  109028:	e2844020 	add	r4, r4, #32
  10902c:	e3500000 	cmp	r0, #0
  109030:	1a000003 	bne	109044 <currentlocale+0x48>
  109034:	e1540006 	cmp	r4, r6
  109038:	1afffff7 	bne	10901c <currentlocale+0x20>
  10903c:	e59f003c 	ldr	r0, [pc, #60]	; 109080 <currentlocale+0x84>
  109040:	e8bd81f0 	pop	{r4, r5, r6, r7, r8, pc}
  109044:	e59f4034 	ldr	r4, [pc, #52]	; 109080 <currentlocale+0x84>
  109048:	e30f76b4 	movw	r7, #63156	; 0xf6b4
  10904c:	e3407010 	movt	r7, #16
  109050:	e1a01007 	mov	r1, r7
  109054:	e1a00004 	mov	r0, r4
  109058:	eb000af1 	bl	10bc24 <strcat>
  10905c:	e1a01005 	mov	r1, r5
  109060:	e1a00004 	mov	r0, r4
  109064:	e2855020 	add	r5, r5, #32
  109068:	eb000aed 	bl	10bc24 <strcat>
  10906c:	e1550006 	cmp	r5, r6
  109070:	1afffff6 	bne	109050 <currentlocale+0x54>
  109074:	e59f0004 	ldr	r0, [pc, #4]	; 109080 <currentlocale+0x84>
  109078:	e8bd81f0 	pop	{r4, r5, r6, r7, r8, pc}
  10907c:	0010fbb4 	.word	0x0010fbb4
  109080:	001281f8 	.word	0x001281f8
  109084:	0010fbd4 	.word	0x0010fbd4

00109088 <_setlocale_r>:
  109088:	e3510006 	cmp	r1, #6
  10908c:	e92d4ff0 	push	{r4, r5, r6, r7, r8, r9, sl, fp, lr}
  109090:	e1a07000 	mov	r7, r0
  109094:	e24dd00c 	sub	sp, sp, #12
  109098:	8a000047 	bhi	1091bc <_setlocale_r+0x134>
  10909c:	e3520000 	cmp	r2, #0
  1090a0:	e1a08001 	mov	r8, r1
  1090a4:	e1a09002 	mov	r9, r2
  1090a8:	0a00003c 	beq	1091a0 <_setlocale_r+0x118>
  1090ac:	e59f62e0 	ldr	r6, [pc, #736]	; 109394 <_setlocale_r+0x30c>
  1090b0:	e3085114 	movw	r5, #33044	; 0x8114
  1090b4:	e3405012 	movt	r5, #18
  1090b8:	e3a04020 	mov	r4, #32
  1090bc:	e0861004 	add	r1, r6, r4
  1090c0:	e0850004 	add	r0, r5, r4
  1090c4:	e2844020 	add	r4, r4, #32
  1090c8:	eb000c0b 	bl	10c0fc <strcpy>
  1090cc:	e35400e0 	cmp	r4, #224	; 0xe0
  1090d0:	1afffff9 	bne	1090bc <_setlocale_r+0x34>
  1090d4:	e5d93000 	ldrb	r3, [r9]
  1090d8:	e3530000 	cmp	r3, #0
  1090dc:	1a000021 	bne	109168 <_setlocale_r+0xe0>
  1090e0:	e3580000 	cmp	r8, #0
  1090e4:	1a000087 	bne	109308 <_setlocale_r+0x280>
  1090e8:	e3a04001 	mov	r4, #1
  1090ec:	e1a01004 	mov	r1, r4
  1090f0:	e1a00007 	mov	r0, r7
  1090f4:	ebfffd5f 	bl	108678 <__get_locale_env>
  1090f8:	e1a08000 	mov	r8, r0
  1090fc:	faffe7af 	blx	102fc0 <strlen>
  109100:	e1a01008 	mov	r1, r8
  109104:	e350001f 	cmp	r0, #31
  109108:	e0850284 	add	r0, r5, r4, lsl #5
  10910c:	e2844001 	add	r4, r4, #1
  109110:	8a000029 	bhi	1091bc <_setlocale_r+0x134>
  109114:	eb000bf8 	bl	10c0fc <strcpy>
  109118:	e3540007 	cmp	r4, #7
  10911c:	1afffff2 	bne	1090ec <_setlocale_r+0x64>
  109120:	e59fa270 	ldr	sl, [pc, #624]	; 109398 <_setlocale_r+0x310>
  109124:	e3a08020 	mov	r8, #32
  109128:	e3a04001 	mov	r4, #1
  10912c:	e0861008 	add	r1, r6, r8
  109130:	e08a0008 	add	r0, sl, r8
  109134:	eb000bf0 	bl	10c0fc <strcpy>
  109138:	e1a01004 	mov	r1, r4
  10913c:	e1a00007 	mov	r0, r7
  109140:	e2888020 	add	r8, r8, #32
  109144:	ebfffd6f 	bl	108708 <loadlocale>
  109148:	e2509000 	subs	r9, r0, #0
  10914c:	0a00004a 	beq	10927c <_setlocale_r+0x1f4>
  109150:	e2844001 	add	r4, r4, #1
  109154:	e3540007 	cmp	r4, #7
  109158:	1afffff3 	bne	10912c <_setlocale_r+0xa4>
  10915c:	e28dd00c 	add	sp, sp, #12
  109160:	e8bd4ff0 	pop	{r4, r5, r6, r7, r8, r9, sl, fp, lr}
  109164:	eaffffa4 	b	108ffc <currentlocale>
  109168:	e3580000 	cmp	r8, #0
  10916c:	0a000018 	beq	1091d4 <_setlocale_r+0x14c>
  109170:	e1a00009 	mov	r0, r9
  109174:	faffe791 	blx	102fc0 <strlen>
  109178:	e350001f 	cmp	r0, #31
  10917c:	8a00000e 	bhi	1091bc <_setlocale_r+0x134>
  109180:	e1a01009 	mov	r1, r9
  109184:	e0850288 	add	r0, r5, r8, lsl #5
  109188:	eb000bdb 	bl	10c0fc <strcpy>
  10918c:	e1a01008 	mov	r1, r8
  109190:	e1a00007 	mov	r0, r7
  109194:	e28dd00c 	add	sp, sp, #12
  109198:	e8bd4ff0 	pop	{r4, r5, r6, r7, r8, r9, sl, fp, lr}
  10919c:	eafffd59 	b	108708 <loadlocale>
  1091a0:	e3510000 	cmp	r1, #0
  1091a4:	0affffec 	beq	10915c <_setlocale_r+0xd4>
  1091a8:	e59f91e4 	ldr	r9, [pc, #484]	; 109394 <_setlocale_r+0x30c>
  1091ac:	e0899281 	add	r9, r9, r1, lsl #5
  1091b0:	e1a00009 	mov	r0, r9
  1091b4:	e28dd00c 	add	sp, sp, #12
  1091b8:	e8bd8ff0 	pop	{r4, r5, r6, r7, r8, r9, sl, fp, pc}
  1091bc:	e3a09000 	mov	r9, #0
  1091c0:	e3a03016 	mov	r3, #22
  1091c4:	e1a00009 	mov	r0, r9
  1091c8:	e5873000 	str	r3, [r7]
  1091cc:	e28dd00c 	add	sp, sp, #12
  1091d0:	e8bd8ff0 	pop	{r4, r5, r6, r7, r8, r9, sl, fp, pc}
  1091d4:	e3a0102f 	mov	r1, #47	; 0x2f
  1091d8:	e1a00009 	mov	r0, r9
  1091dc:	eb000aac 	bl	10bc94 <strchr>
  1091e0:	e2504000 	subs	r4, r0, #0
  1091e4:	0a000052 	beq	109334 <_setlocale_r+0x2ac>
  1091e8:	e5d42001 	ldrb	r2, [r4, #1]
  1091ec:	e352002f 	cmp	r2, #47	; 0x2f
  1091f0:	02843001 	addeq	r3, r4, #1
  1091f4:	1a000003 	bne	109208 <_setlocale_r+0x180>
  1091f8:	e1a04003 	mov	r4, r3
  1091fc:	e5f32001 	ldrb	r2, [r3, #1]!
  109200:	e352002f 	cmp	r2, #47	; 0x2f
  109204:	0afffffb 	beq	1091f8 <_setlocale_r+0x170>
  109208:	e3520000 	cmp	r2, #0
  10920c:	0affffea 	beq	1091bc <_setlocale_r+0x134>
  109210:	e3a08001 	mov	r8, #1
  109214:	e0442009 	sub	r2, r4, r9
  109218:	e352001f 	cmp	r2, #31
  10921c:	caffffe6 	bgt	1091bc <_setlocale_r+0x134>
  109220:	e0850288 	add	r0, r5, r8, lsl #5
  109224:	e2822001 	add	r2, r2, #1
  109228:	e1a01009 	mov	r1, r9
  10922c:	e2888001 	add	r8, r8, #1
  109230:	eb000bef 	bl	10c1f4 <strlcpy>
  109234:	e5d43000 	ldrb	r3, [r4]
  109238:	e353002f 	cmp	r3, #47	; 0x2f
  10923c:	1a000002 	bne	10924c <_setlocale_r+0x1c4>
  109240:	e5f43001 	ldrb	r3, [r4, #1]!
  109244:	e353002f 	cmp	r3, #47	; 0x2f
  109248:	0afffffc 	beq	109240 <_setlocale_r+0x1b8>
  10924c:	e3530000 	cmp	r3, #0
  109250:	0a000044 	beq	109368 <_setlocale_r+0x2e0>
  109254:	e1a02004 	mov	r2, r4
  109258:	e5f23001 	ldrb	r3, [r2, #1]!
  10925c:	e3530000 	cmp	r3, #0
  109260:	1353002f 	cmpne	r3, #47	; 0x2f
  109264:	1afffffb 	bne	109258 <_setlocale_r+0x1d0>
  109268:	e3580007 	cmp	r8, #7
  10926c:	e1a09004 	mov	r9, r4
  109270:	0affffaa 	beq	109120 <_setlocale_r+0x98>
  109274:	e1a04002 	mov	r4, r2
  109278:	eaffffe5 	b	109214 <_setlocale_r+0x18c>
  10927c:	e5973000 	ldr	r3, [r7]
  109280:	e3540001 	cmp	r4, #1
  109284:	e58d3000 	str	r3, [sp]
  109288:	0a000019 	beq	1092f4 <_setlocale_r+0x26c>
  10928c:	e30f357c 	movw	r3, #62844	; 0xf57c
  109290:	e3a0b020 	mov	fp, #32
  109294:	e3403010 	movt	r3, #16
  109298:	e3a06001 	mov	r6, #1
  10929c:	e58d3004 	str	r3, [sp, #4]
  1092a0:	ea000002 	b	1092b0 <_setlocale_r+0x228>
  1092a4:	e2866001 	add	r6, r6, #1
  1092a8:	e1560004 	cmp	r6, r4
  1092ac:	0a000010 	beq	1092f4 <_setlocale_r+0x26c>
  1092b0:	e085800b 	add	r8, r5, fp
  1092b4:	e08a100b 	add	r1, sl, fp
  1092b8:	e28bb020 	add	fp, fp, #32
  1092bc:	e1a00008 	mov	r0, r8
  1092c0:	eb000b8d 	bl	10c0fc <strcpy>
  1092c4:	e1a01006 	mov	r1, r6
  1092c8:	e1a00007 	mov	r0, r7
  1092cc:	ebfffd0d 	bl	108708 <loadlocale>
  1092d0:	e3500000 	cmp	r0, #0
  1092d4:	1afffff2 	bne	1092a4 <_setlocale_r+0x21c>
  1092d8:	e59d1004 	ldr	r1, [sp, #4]
  1092dc:	e1a00008 	mov	r0, r8
  1092e0:	eb000b85 	bl	10c0fc <strcpy>
  1092e4:	e1a01006 	mov	r1, r6
  1092e8:	e1a00007 	mov	r0, r7
  1092ec:	ebfffd05 	bl	108708 <loadlocale>
  1092f0:	eaffffeb 	b	1092a4 <_setlocale_r+0x21c>
  1092f4:	e59d3000 	ldr	r3, [sp]
  1092f8:	e1a00009 	mov	r0, r9
  1092fc:	e5873000 	str	r3, [r7]
  109300:	e28dd00c 	add	sp, sp, #12
  109304:	e8bd8ff0 	pop	{r4, r5, r6, r7, r8, r9, sl, fp, pc}
  109308:	e1a01008 	mov	r1, r8
  10930c:	e1a00007 	mov	r0, r7
  109310:	ebfffcd8 	bl	108678 <__get_locale_env>
  109314:	e1a04000 	mov	r4, r0
  109318:	faffe728 	blx	102fc0 <strlen>
  10931c:	e350001f 	cmp	r0, #31
  109320:	8affffa5 	bhi	1091bc <_setlocale_r+0x134>
  109324:	e1a01004 	mov	r1, r4
  109328:	e0850288 	add	r0, r5, r8, lsl #5
  10932c:	eb000b72 	bl	10c0fc <strcpy>
  109330:	eaffff95 	b	10918c <_setlocale_r+0x104>
  109334:	e1a00009 	mov	r0, r9
  109338:	faffe720 	blx	102fc0 <strlen>
  10933c:	e350001f 	cmp	r0, #31
  109340:	8affff9d 	bhi	1091bc <_setlocale_r+0x134>
  109344:	e59f4050 	ldr	r4, [pc, #80]	; 10939c <_setlocale_r+0x314>
  109348:	e28480c0 	add	r8, r4, #192	; 0xc0
  10934c:	e1a00004 	mov	r0, r4
  109350:	e1a01009 	mov	r1, r9
  109354:	e2844020 	add	r4, r4, #32
  109358:	eb000b67 	bl	10c0fc <strcpy>
  10935c:	e1540008 	cmp	r4, r8
  109360:	1afffff9 	bne	10934c <_setlocale_r+0x2c4>
  109364:	eaffff6d 	b	109120 <_setlocale_r+0x98>
  109368:	e3580007 	cmp	r8, #7
  10936c:	10854288 	addne	r4, r5, r8, lsl #5
  109370:	128580e0 	addne	r8, r5, #224	; 0xe0
  109374:	0affff69 	beq	109120 <_setlocale_r+0x98>
  109378:	e2441020 	sub	r1, r4, #32
  10937c:	e1a00004 	mov	r0, r4
  109380:	e2844020 	add	r4, r4, #32
  109384:	eb000b5c 	bl	10c0fc <strcpy>
  109388:	e1540008 	cmp	r4, r8
  10938c:	1afffff9 	bne	109378 <_setlocale_r+0x2f0>
  109390:	eaffff62 	b	109120 <_setlocale_r+0x98>
  109394:	0010fb94 	.word	0x0010fb94
  109398:	001282e0 	.word	0x001282e0
  10939c:	00128134 	.word	0x00128134

001093a0 <__locale_charset>:
  1093a0:	e59f0000 	ldr	r0, [pc]	; 1093a8 <__locale_charset+0x8>
  1093a4:	e12fff1e 	bx	lr
  1093a8:	0010fc74 	.word	0x0010fc74

001093ac <__locale_mb_cur_max>:
  1093ac:	e30f3b74 	movw	r3, #64372	; 0xfb74
  1093b0:	e3403010 	movt	r3, #16
  1093b4:	e5930120 	ldr	r0, [r3, #288]	; 0x120
  1093b8:	e12fff1e 	bx	lr

001093bc <__locale_msgcharset>:
  1093bc:	e59f0000 	ldr	r0, [pc]	; 1093c4 <__locale_msgcharset+0x8>
  1093c0:	e12fff1e 	bx	lr
  1093c4:	0010fc98 	.word	0x0010fc98

001093c8 <__locale_cjk_lang>:
  1093c8:	e3083114 	movw	r3, #33044	; 0x8114
  1093cc:	e3403012 	movt	r3, #18
  1093d0:	e59300e0 	ldr	r0, [r3, #224]	; 0xe0
  1093d4:	e12fff1e 	bx	lr

001093d8 <_localeconv_r>:
  1093d8:	e59f0000 	ldr	r0, [pc]	; 1093e0 <_localeconv_r+0x8>
  1093dc:	e12fff1e 	bx	lr
  1093e0:	0010fcb8 	.word	0x0010fcb8

001093e4 <setlocale>:
  1093e4:	e30f3740 	movw	r3, #63296	; 0xf740
  1093e8:	e3403010 	movt	r3, #16
  1093ec:	e1a02001 	mov	r2, r1
  1093f0:	e1a01000 	mov	r1, r0
  1093f4:	e5930000 	ldr	r0, [r3]
  1093f8:	eaffff22 	b	109088 <_setlocale_r>

001093fc <localeconv>:
  1093fc:	e59f0000 	ldr	r0, [pc]	; 109404 <localeconv+0x8>
  109400:	e12fff1e 	bx	lr
  109404:	0010fcb8 	.word	0x0010fcb8

00109408 <__swhatbuf_r>:
  109408:	e92d4070 	push	{r4, r5, r6, lr}
  10940c:	e1a04001 	mov	r4, r1
  109410:	e1d110fe 	ldrsh	r1, [r1, #14]
  109414:	e24dd040 	sub	sp, sp, #64	; 0x40
  109418:	e1a05002 	mov	r5, r2
  10941c:	e1a06003 	mov	r6, r3
  109420:	e3510000 	cmp	r1, #0
  109424:	aa00000d 	bge	109460 <__swhatbuf_r+0x58>
  109428:	e1d420bc 	ldrh	r2, [r4, #12]
  10942c:	e3a03000 	mov	r3, #0
  109430:	e5863000 	str	r3, [r6]
  109434:	e2120080 	ands	r0, r2, #128	; 0x80
  109438:	1a000003 	bne	10944c <__swhatbuf_r+0x44>
  10943c:	e3a03b01 	mov	r3, #1024	; 0x400
  109440:	e5853000 	str	r3, [r5]
  109444:	e28dd040 	add	sp, sp, #64	; 0x40
  109448:	e8bd8070 	pop	{r4, r5, r6, pc}
  10944c:	e1a00003 	mov	r0, r3
  109450:	e3a03040 	mov	r3, #64	; 0x40
  109454:	e5853000 	str	r3, [r5]
  109458:	e28dd040 	add	sp, sp, #64	; 0x40
  10945c:	e8bd8070 	pop	{r4, r5, r6, pc}
  109460:	e28d2004 	add	r2, sp, #4
  109464:	eb0013f6 	bl	10e444 <_fstat_r>
  109468:	e3500000 	cmp	r0, #0
  10946c:	baffffed 	blt	109428 <__swhatbuf_r+0x20>
  109470:	e59d3008 	ldr	r3, [sp, #8]
  109474:	e3a00b02 	mov	r0, #2048	; 0x800
  109478:	e3a02b01 	mov	r2, #1024	; 0x400
  10947c:	e2033a0f 	and	r3, r3, #61440	; 0xf000
  109480:	e2433a02 	sub	r3, r3, #8192	; 0x2000
  109484:	e16f3f13 	clz	r3, r3
  109488:	e1a032a3 	lsr	r3, r3, #5
  10948c:	e5863000 	str	r3, [r6]
  109490:	e5852000 	str	r2, [r5]
  109494:	e28dd040 	add	sp, sp, #64	; 0x40
  109498:	e8bd8070 	pop	{r4, r5, r6, pc}

0010949c <__smakebuf_r>:
  10949c:	e1d120bc 	ldrh	r2, [r1, #12]
  1094a0:	e92d4070 	push	{r4, r5, r6, lr}
  1094a4:	e3120002 	tst	r2, #2
  1094a8:	e24dd008 	sub	sp, sp, #8
  1094ac:	e1a04001 	mov	r4, r1
  1094b0:	0a000006 	beq	1094d0 <__smakebuf_r+0x34>
  1094b4:	e2812043 	add	r2, r1, #67	; 0x43
  1094b8:	e3a01001 	mov	r1, #1
  1094bc:	e5842000 	str	r2, [r4]
  1094c0:	e5842010 	str	r2, [r4, #16]
  1094c4:	e5841014 	str	r1, [r4, #20]
  1094c8:	e28dd008 	add	sp, sp, #8
  1094cc:	e8bd8070 	pop	{r4, r5, r6, pc}
  1094d0:	e28d3004 	add	r3, sp, #4
  1094d4:	e1a0200d 	mov	r2, sp
  1094d8:	e1a05000 	mov	r5, r0
  1094dc:	ebffffc9 	bl	109408 <__swhatbuf_r>
  1094e0:	e59d1000 	ldr	r1, [sp]
  1094e4:	e1a06000 	mov	r6, r0
  1094e8:	e1a00005 	mov	r0, r5
  1094ec:	eb000023 	bl	109580 <_malloc_r>
  1094f0:	e3500000 	cmp	r0, #0
  1094f4:	0a000017 	beq	109558 <__smakebuf_r+0xbc>
  1094f8:	e59d1004 	ldr	r1, [sp, #4]
  1094fc:	e3073a1c 	movw	r3, #31260	; 0x7a1c
  109500:	e59d2000 	ldr	r2, [sp]
  109504:	e3403010 	movt	r3, #16
  109508:	e3510000 	cmp	r1, #0
  10950c:	e585303c 	str	r3, [r5, #60]	; 0x3c
  109510:	e1d430fc 	ldrsh	r3, [r4, #12]
  109514:	e5840000 	str	r0, [r4]
  109518:	e3833080 	orr	r3, r3, #128	; 0x80
  10951c:	e5840010 	str	r0, [r4, #16]
  109520:	e5842014 	str	r2, [r4, #20]
  109524:	e1c430bc 	strh	r3, [r4, #12]
  109528:	1a000003 	bne	10953c <__smakebuf_r+0xa0>
  10952c:	e1833006 	orr	r3, r3, r6
  109530:	e1c430bc 	strh	r3, [r4, #12]
  109534:	e28dd008 	add	sp, sp, #8
  109538:	e8bd8070 	pop	{r4, r5, r6, pc}
  10953c:	e1a00005 	mov	r0, r5
  109540:	e1d410fe 	ldrsh	r1, [r4, #14]
  109544:	eb001406 	bl	10e564 <_isatty_r>
  109548:	e1d430fc 	ldrsh	r3, [r4, #12]
  10954c:	e3500000 	cmp	r0, #0
  109550:	13833001 	orrne	r3, r3, #1
  109554:	eafffff4 	b	10952c <__smakebuf_r+0x90>
  109558:	e1d430fc 	ldrsh	r3, [r4, #12]
  10955c:	e3130c02 	tst	r3, #512	; 0x200
  109560:	1affffd8 	bne	1094c8 <__smakebuf_r+0x2c>
  109564:	e3833002 	orr	r3, r3, #2
  109568:	e2842043 	add	r2, r4, #67	; 0x43
  10956c:	e1c430bc 	strh	r3, [r4, #12]
  109570:	e3a03001 	mov	r3, #1
  109574:	e5842000 	str	r2, [r4]
  109578:	e1c421f0 	strd	r2, [r4, #16]
  10957c:	eaffffd1 	b	1094c8 <__smakebuf_r+0x2c>

00109580 <_malloc_r>:
  109580:	e92d4ff8 	push	{r3, r4, r5, r6, r7, r8, r9, sl, fp, lr}
  109584:	e281500b 	add	r5, r1, #11
  109588:	e3550016 	cmp	r5, #22
  10958c:	e1a06000 	mov	r6, r0
  109590:	8a00001b 	bhi	109604 <_malloc_r+0x84>
  109594:	e3510010 	cmp	r1, #16
  109598:	8a000107 	bhi	1099bc <_malloc_r+0x43c>
  10959c:	eb00045a 	bl	10a70c <__malloc_lock>
  1095a0:	e3a05010 	mov	r5, #16
  1095a4:	e3a02018 	mov	r2, #24
  1095a8:	e3a0c002 	mov	ip, #2
  1095ac:	e30f7cf0 	movw	r7, #64752	; 0xfcf0
  1095b0:	e3407010 	movt	r7, #16
  1095b4:	e0872002 	add	r2, r7, r2
  1095b8:	e2421008 	sub	r1, r2, #8
  1095bc:	e5923004 	ldr	r3, [r2, #4]
  1095c0:	e1530001 	cmp	r3, r1
  1095c4:	0a000119 	beq	109a30 <_malloc_r+0x4b0>
  1095c8:	e5932004 	ldr	r2, [r3, #4]
  1095cc:	e2834008 	add	r4, r3, #8
  1095d0:	e593100c 	ldr	r1, [r3, #12]
  1095d4:	e1a00006 	mov	r0, r6
  1095d8:	e3c22003 	bic	r2, r2, #3
  1095dc:	e593c008 	ldr	ip, [r3, #8]
  1095e0:	e0833002 	add	r3, r3, r2
  1095e4:	e5932004 	ldr	r2, [r3, #4]
  1095e8:	e58c100c 	str	r1, [ip, #12]
  1095ec:	e3822001 	orr	r2, r2, #1
  1095f0:	e581c008 	str	ip, [r1, #8]
  1095f4:	e5832004 	str	r2, [r3, #4]
  1095f8:	eb000444 	bl	10a710 <__malloc_unlock>
  1095fc:	e1a00004 	mov	r0, r4
  109600:	e8bd8ff8 	pop	{r3, r4, r5, r6, r7, r8, r9, sl, fp, pc}
  109604:	e3c55007 	bic	r5, r5, #7
  109608:	e1510005 	cmp	r1, r5
  10960c:	93a01000 	movls	r1, #0
  109610:	83a01001 	movhi	r1, #1
  109614:	e1913fa5 	orrs	r3, r1, r5, lsr #31
  109618:	1a0000e7 	bne	1099bc <_malloc_r+0x43c>
  10961c:	eb00043a 	bl	10a70c <__malloc_lock>
  109620:	e3550f7e 	cmp	r5, #504	; 0x1f8
  109624:	3a000114 	bcc	109a7c <_malloc_r+0x4fc>
  109628:	e1b034a5 	lsrs	r3, r5, #9
  10962c:	0a000007 	beq	109650 <_malloc_r+0xd0>
  109630:	e3530004 	cmp	r3, #4
  109634:	9a0000db 	bls	1099a8 <_malloc_r+0x428>
  109638:	e3530014 	cmp	r3, #20
  10963c:	8a00013d 	bhi	109b38 <_malloc_r+0x5b8>
  109640:	e283c05c 	add	ip, r3, #92	; 0x5c
  109644:	e283e05b 	add	lr, r3, #91	; 0x5b
  109648:	e1a0318c 	lsl	r3, ip, #3
  10964c:	ea000002 	b	10965c <_malloc_r+0xdc>
  109650:	e3a03c02 	mov	r3, #512	; 0x200
  109654:	e3a0c040 	mov	ip, #64	; 0x40
  109658:	e3a0e03f 	mov	lr, #63	; 0x3f
  10965c:	e30f7cf0 	movw	r7, #64752	; 0xfcf0
  109660:	e3407010 	movt	r7, #16
  109664:	e0873003 	add	r3, r7, r3
  109668:	e2430008 	sub	r0, r3, #8
  10966c:	e5933004 	ldr	r3, [r3, #4]
  109670:	e1500003 	cmp	r0, r3
  109674:	1a000005 	bne	109690 <_malloc_r+0x110>
  109678:	ea00000a 	b	1096a8 <_malloc_r+0x128>
  10967c:	e3510000 	cmp	r1, #0
  109680:	aa0000d2 	bge	1099d0 <_malloc_r+0x450>
  109684:	e593300c 	ldr	r3, [r3, #12]
  109688:	e1500003 	cmp	r0, r3
  10968c:	0a000005 	beq	1096a8 <_malloc_r+0x128>
  109690:	e5932004 	ldr	r2, [r3, #4]
  109694:	e3c22003 	bic	r2, r2, #3
  109698:	e0421005 	sub	r1, r2, r5
  10969c:	e351000f 	cmp	r1, #15
  1096a0:	dafffff5 	ble	10967c <_malloc_r+0xfc>
  1096a4:	e1a0c00e 	mov	ip, lr
  1096a8:	e5972010 	ldr	r2, [r7, #16]
  1096ac:	e59fe63c 	ldr	lr, [pc, #1596]	; 109cf0 <_malloc_r+0x770>
  1096b0:	e152000e 	cmp	r2, lr
  1096b4:	05970004 	ldreq	r0, [r7, #4]
  1096b8:	0a000018 	beq	109720 <_malloc_r+0x1a0>
  1096bc:	e5923004 	ldr	r3, [r2, #4]
  1096c0:	e3c33003 	bic	r3, r3, #3
  1096c4:	e0431005 	sub	r1, r3, r5
  1096c8:	e351000f 	cmp	r1, #15
  1096cc:	ca0000dc 	bgt	109a44 <_malloc_r+0x4c4>
  1096d0:	e3510000 	cmp	r1, #0
  1096d4:	e587e014 	str	lr, [r7, #20]
  1096d8:	e587e010 	str	lr, [r7, #16]
  1096dc:	aa0000a8 	bge	109984 <_malloc_r+0x404>
  1096e0:	e3530c02 	cmp	r3, #512	; 0x200
  1096e4:	2a0000f8 	bcs	109acc <_malloc_r+0x54c>
  1096e8:	e1a031a3 	lsr	r3, r3, #3
  1096ec:	e5970004 	ldr	r0, [r7, #4]
  1096f0:	e2834001 	add	r4, r3, #1
  1096f4:	e3a08001 	mov	r8, #1
  1096f8:	e1a03143 	asr	r3, r3, #2
  1096fc:	e7971184 	ldr	r1, [r7, r4, lsl #3]
  109700:	e1800318 	orr	r0, r0, r8, lsl r3
  109704:	e0873184 	add	r3, r7, r4, lsl #3
  109708:	e5870004 	str	r0, [r7, #4]
  10970c:	e2433008 	sub	r3, r3, #8
  109710:	e582300c 	str	r3, [r2, #12]
  109714:	e5821008 	str	r1, [r2, #8]
  109718:	e7872184 	str	r2, [r7, r4, lsl #3]
  10971c:	e581200c 	str	r2, [r1, #12]
  109720:	e1a0314c 	asr	r3, ip, #2
  109724:	e3a01001 	mov	r1, #1
  109728:	e1a01311 	lsl	r1, r1, r3
  10972c:	e1510000 	cmp	r1, r0
  109730:	8a00002c 	bhi	1097e8 <_malloc_r+0x268>
  109734:	e1110000 	tst	r1, r0
  109738:	1a000008 	bne	109760 <_malloc_r+0x1e0>
  10973c:	e1a01081 	lsl	r1, r1, #1
  109740:	e3ccc003 	bic	ip, ip, #3
  109744:	e1110000 	tst	r1, r0
  109748:	e28cc004 	add	ip, ip, #4
  10974c:	1a000003 	bne	109760 <_malloc_r+0x1e0>
  109750:	e1a01081 	lsl	r1, r1, #1
  109754:	e28cc004 	add	ip, ip, #4
  109758:	e1110000 	tst	r1, r0
  10975c:	0afffffb 	beq	109750 <_malloc_r+0x1d0>
  109760:	e087918c 	add	r9, r7, ip, lsl #3
  109764:	e1a0400c 	mov	r4, ip
  109768:	e1a00009 	mov	r0, r9
  10976c:	e590300c 	ldr	r3, [r0, #12]
  109770:	e1500003 	cmp	r0, r3
  109774:	1a000005 	bne	109790 <_malloc_r+0x210>
  109778:	ea0000c2 	b	109a88 <_malloc_r+0x508>
  10977c:	e3580000 	cmp	r8, #0
  109780:	aa0000c5 	bge	109a9c <_malloc_r+0x51c>
  109784:	e593300c 	ldr	r3, [r3, #12]
  109788:	e1500003 	cmp	r0, r3
  10978c:	0a0000bd 	beq	109a88 <_malloc_r+0x508>
  109790:	e5932004 	ldr	r2, [r3, #4]
  109794:	e3c22003 	bic	r2, r2, #3
  109798:	e0428005 	sub	r8, r2, r5
  10979c:	e358000f 	cmp	r8, #15
  1097a0:	dafffff5 	ble	10977c <_malloc_r+0x1fc>
  1097a4:	e5934008 	ldr	r4, [r3, #8]
  1097a8:	e0831005 	add	r1, r3, r5
  1097ac:	e593c00c 	ldr	ip, [r3, #12]
  1097b0:	e3855001 	orr	r5, r5, #1
  1097b4:	e1a00006 	mov	r0, r6
  1097b8:	e5835004 	str	r5, [r3, #4]
  1097bc:	e3885001 	orr	r5, r8, #1
  1097c0:	e584c00c 	str	ip, [r4, #12]
  1097c4:	e58c4008 	str	r4, [ip, #8]
  1097c8:	e2834008 	add	r4, r3, #8
  1097cc:	e5871014 	str	r1, [r7, #20]
  1097d0:	e5871010 	str	r1, [r7, #16]
  1097d4:	e581e00c 	str	lr, [r1, #12]
  1097d8:	e9814020 	stmib	r1, {r5, lr}
  1097dc:	e7838002 	str	r8, [r3, r2]
  1097e0:	eb0003ca 	bl	10a710 <__malloc_unlock>
  1097e4:	eaffff84 	b	1095fc <_malloc_r+0x7c>
  1097e8:	e5974008 	ldr	r4, [r7, #8]
  1097ec:	e5949004 	ldr	r9, [r4, #4]
  1097f0:	e3c99003 	bic	r9, r9, #3
  1097f4:	e1590005 	cmp	r9, r5
  1097f8:	e0493005 	sub	r3, r9, r5
  1097fc:	23a02000 	movcs	r2, #0
  109800:	33a02001 	movcc	r2, #1
  109804:	e353000f 	cmp	r3, #15
  109808:	d3822001 	orrle	r2, r2, #1
  10980c:	e3520000 	cmp	r2, #0
  109810:	0a00007b 	beq	109a04 <_malloc_r+0x484>
  109814:	e5973408 	ldr	r3, [r7, #1032]	; 0x408
  109818:	e30883cc 	movw	r8, #33740	; 0x83cc
  10981c:	e3408012 	movt	r8, #18
  109820:	e1a00006 	mov	r0, r6
  109824:	e3730001 	cmn	r3, #1
  109828:	e5983000 	ldr	r3, [r8]
  10982c:	e0853003 	add	r3, r5, r3
  109830:	12833a01 	addne	r3, r3, #4096	; 0x1000
  109834:	0283a010 	addeq	sl, r3, #16
  109838:	1283300f 	addne	r3, r3, #15
  10983c:	13c3aeff 	bicne	sl, r3, #4080	; 0xff0
  109840:	13caa00f 	bicne	sl, sl, #15
  109844:	e1a0100a 	mov	r1, sl
  109848:	eb000874 	bl	10ba20 <_sbrk_r>
  10984c:	e3700001 	cmn	r0, #1
  109850:	e1a0b000 	mov	fp, r0
  109854:	0a0000c2 	beq	109b64 <_malloc_r+0x5e4>
  109858:	e0843009 	add	r3, r4, r9
  10985c:	e1530000 	cmp	r3, r0
  109860:	8a0000bd 	bhi	109b5c <_malloc_r+0x5dc>
  109864:	e5981004 	ldr	r1, [r8, #4]
  109868:	e08a1001 	add	r1, sl, r1
  10986c:	e5881004 	str	r1, [r8, #4]
  109870:	0a0000ef 	beq	109c34 <_malloc_r+0x6b4>
  109874:	e5972408 	ldr	r2, [r7, #1032]	; 0x408
  109878:	e1a00006 	mov	r0, r6
  10987c:	e3720001 	cmn	r2, #1
  109880:	0587b408 	streq	fp, [r7, #1032]	; 0x408
  109884:	104b3003 	subne	r3, fp, r3
  109888:	10833001 	addne	r3, r3, r1
  10988c:	15883004 	strne	r3, [r8, #4]
  109890:	e21b2007 	ands	r2, fp, #7
  109894:	12623008 	rsbne	r3, r2, #8
  109898:	12622a01 	rsbne	r2, r2, #4096	; 0x1000
  10989c:	108bb003 	addne	fp, fp, r3
  1098a0:	12822008 	addne	r2, r2, #8
  1098a4:	e08ba00a 	add	sl, fp, sl
  1098a8:	03a02a01 	moveq	r2, #4096	; 0x1000
  1098ac:	e7eba05a 	ubfx	sl, sl, #0, #12
  1098b0:	e042a00a 	sub	sl, r2, sl
  1098b4:	e1a0100a 	mov	r1, sl
  1098b8:	eb000858 	bl	10ba20 <_sbrk_r>
  1098bc:	e5981004 	ldr	r1, [r8, #4]
  1098c0:	e587b008 	str	fp, [r7, #8]
  1098c4:	e3700001 	cmn	r0, #1
  1098c8:	1040300b 	subne	r3, r0, fp
  1098cc:	1083300a 	addne	r3, r3, sl
  1098d0:	03a03001 	moveq	r3, #1
  1098d4:	13833001 	orrne	r3, r3, #1
  1098d8:	03a0a000 	moveq	sl, #0
  1098dc:	e1540007 	cmp	r4, r7
  1098e0:	e08a1001 	add	r1, sl, r1
  1098e4:	e58b3004 	str	r3, [fp, #4]
  1098e8:	e5881004 	str	r1, [r8, #4]
  1098ec:	0a00000f 	beq	109930 <_malloc_r+0x3b0>
  1098f0:	e359000f 	cmp	r9, #15
  1098f4:	93a03001 	movls	r3, #1
  1098f8:	958b3004 	strls	r3, [fp, #4]
  1098fc:	9a00001c 	bls	109974 <_malloc_r+0x3f4>
  109900:	e249200c 	sub	r2, r9, #12
  109904:	e5943004 	ldr	r3, [r4, #4]
  109908:	e3c22007 	bic	r2, r2, #7
  10990c:	e3a0c005 	mov	ip, #5
  109910:	e0840002 	add	r0, r4, r2
  109914:	e352000f 	cmp	r2, #15
  109918:	e2033001 	and	r3, r3, #1
  10991c:	e1833002 	orr	r3, r3, r2
  109920:	e5843004 	str	r3, [r4, #4]
  109924:	e580c004 	str	ip, [r0, #4]
  109928:	e580c008 	str	ip, [r0, #8]
  10992c:	8a0000df 	bhi	109cb0 <_malloc_r+0x730>
  109930:	e5974008 	ldr	r4, [r7, #8]
  109934:	e598302c 	ldr	r3, [r8, #44]	; 0x2c
  109938:	e5942004 	ldr	r2, [r4, #4]
  10993c:	e1510003 	cmp	r1, r3
  109940:	e5983030 	ldr	r3, [r8, #48]	; 0x30
  109944:	e3c22003 	bic	r2, r2, #3
  109948:	8588102c 	strhi	r1, [r8, #44]	; 0x2c
  10994c:	e1510003 	cmp	r1, r3
  109950:	85881030 	strhi	r1, [r8, #48]	; 0x30
  109954:	e1550002 	cmp	r5, r2
  109958:	e0423005 	sub	r3, r2, r5
  10995c:	93a02000 	movls	r2, #0
  109960:	83a02001 	movhi	r2, #1
  109964:	e353000f 	cmp	r3, #15
  109968:	d3822001 	orrle	r2, r2, #1
  10996c:	e3520000 	cmp	r2, #0
  109970:	0a000023 	beq	109a04 <_malloc_r+0x484>
  109974:	e1a00006 	mov	r0, r6
  109978:	e3a04000 	mov	r4, #0
  10997c:	eb000363 	bl	10a710 <__malloc_unlock>
  109980:	eaffff1d 	b	1095fc <_malloc_r+0x7c>
  109984:	e0823003 	add	r3, r2, r3
  109988:	e2824008 	add	r4, r2, #8
  10998c:	e1a00006 	mov	r0, r6
  109990:	e5932004 	ldr	r2, [r3, #4]
  109994:	e3822001 	orr	r2, r2, #1
  109998:	e5832004 	str	r2, [r3, #4]
  10999c:	eb00035b 	bl	10a710 <__malloc_unlock>
  1099a0:	e1a00004 	mov	r0, r4
  1099a4:	e8bd8ff8 	pop	{r3, r4, r5, r6, r7, r8, r9, sl, fp, pc}
  1099a8:	e1a03325 	lsr	r3, r5, #6
  1099ac:	e283c039 	add	ip, r3, #57	; 0x39
  1099b0:	e283e038 	add	lr, r3, #56	; 0x38
  1099b4:	e1a0318c 	lsl	r3, ip, #3
  1099b8:	eaffff27 	b	10965c <_malloc_r+0xdc>
  1099bc:	e3a04000 	mov	r4, #0
  1099c0:	e3a0300c 	mov	r3, #12
  1099c4:	e1a00004 	mov	r0, r4
  1099c8:	e5863000 	str	r3, [r6]
  1099cc:	e8bd8ff8 	pop	{r3, r4, r5, r6, r7, r8, r9, sl, fp, pc}
  1099d0:	e0832002 	add	r2, r3, r2
  1099d4:	e593c00c 	ldr	ip, [r3, #12]
  1099d8:	e593e008 	ldr	lr, [r3, #8]
  1099dc:	e2834008 	add	r4, r3, #8
  1099e0:	e5921004 	ldr	r1, [r2, #4]
  1099e4:	e1a00006 	mov	r0, r6
  1099e8:	e58ec00c 	str	ip, [lr, #12]
  1099ec:	e3813001 	orr	r3, r1, #1
  1099f0:	e58ce008 	str	lr, [ip, #8]
  1099f4:	e5823004 	str	r3, [r2, #4]
  1099f8:	eb000344 	bl	10a710 <__malloc_unlock>
  1099fc:	e1a00004 	mov	r0, r4
  109a00:	e8bd8ff8 	pop	{r3, r4, r5, r6, r7, r8, r9, sl, fp, pc}
  109a04:	e0842005 	add	r2, r4, r5
  109a08:	e3855001 	orr	r5, r5, #1
  109a0c:	e2844008 	add	r4, r4, #8
  109a10:	e5045004 	str	r5, [r4, #-4]
  109a14:	e3833001 	orr	r3, r3, #1
  109a18:	e1a00006 	mov	r0, r6
  109a1c:	e5872008 	str	r2, [r7, #8]
  109a20:	e5823004 	str	r3, [r2, #4]
  109a24:	eb000339 	bl	10a710 <__malloc_unlock>
  109a28:	e1a00004 	mov	r0, r4
  109a2c:	e8bd8ff8 	pop	{r3, r4, r5, r6, r7, r8, r9, sl, fp, pc}
  109a30:	e592300c 	ldr	r3, [r2, #12]
  109a34:	e1520003 	cmp	r2, r3
  109a38:	028cc002 	addeq	ip, ip, #2
  109a3c:	0affff19 	beq	1096a8 <_malloc_r+0x128>
  109a40:	eafffee0 	b	1095c8 <_malloc_r+0x48>
  109a44:	e082c005 	add	ip, r2, r5
  109a48:	e2824008 	add	r4, r2, #8
  109a4c:	e1a00006 	mov	r0, r6
  109a50:	e3855001 	orr	r5, r5, #1
  109a54:	e5825004 	str	r5, [r2, #4]
  109a58:	e3815001 	orr	r5, r1, #1
  109a5c:	e587c014 	str	ip, [r7, #20]
  109a60:	e587c010 	str	ip, [r7, #16]
  109a64:	e58ce00c 	str	lr, [ip, #12]
  109a68:	e98c4020 	stmib	ip, {r5, lr}
  109a6c:	e7821003 	str	r1, [r2, r3]
  109a70:	eb000326 	bl	10a710 <__malloc_unlock>
  109a74:	e1a00004 	mov	r0, r4
  109a78:	e8bd8ff8 	pop	{r3, r4, r5, r6, r7, r8, r9, sl, fp, pc}
  109a7c:	e1a0c1a5 	lsr	ip, r5, #3
  109a80:	e2852008 	add	r2, r5, #8
  109a84:	eafffec8 	b	1095ac <_malloc_r+0x2c>
  109a88:	e2844001 	add	r4, r4, #1
  109a8c:	e2800008 	add	r0, r0, #8
  109a90:	e3140003 	tst	r4, #3
  109a94:	1affff34 	bne	10976c <_malloc_r+0x1ec>
  109a98:	ea000042 	b	109ba8 <_malloc_r+0x628>
  109a9c:	e0832002 	add	r2, r3, r2
  109aa0:	e1a04003 	mov	r4, r3
  109aa4:	e593100c 	ldr	r1, [r3, #12]
  109aa8:	e1a00006 	mov	r0, r6
  109aac:	e5b4c008 	ldr	ip, [r4, #8]!
  109ab0:	e5923004 	ldr	r3, [r2, #4]
  109ab4:	e3833001 	orr	r3, r3, #1
  109ab8:	e5823004 	str	r3, [r2, #4]
  109abc:	e58c100c 	str	r1, [ip, #12]
  109ac0:	e581c008 	str	ip, [r1, #8]
  109ac4:	eb000311 	bl	10a710 <__malloc_unlock>
  109ac8:	eafffecb 	b	1095fc <_malloc_r+0x7c>
  109acc:	e1a084a3 	lsr	r8, r3, #9
  109ad0:	e3580004 	cmp	r8, #4
  109ad4:	9a000026 	bls	109b74 <_malloc_r+0x5f4>
  109ad8:	e3580014 	cmp	r8, #20
  109adc:	8a00004d 	bhi	109c18 <_malloc_r+0x698>
  109ae0:	e288105c 	add	r1, r8, #92	; 0x5c
  109ae4:	e288805b 	add	r8, r8, #91	; 0x5b
  109ae8:	e1a01181 	lsl	r1, r1, #3
  109aec:	e0874001 	add	r4, r7, r1
  109af0:	e7971001 	ldr	r1, [r7, r1]
  109af4:	e2444008 	sub	r4, r4, #8
  109af8:	e1540001 	cmp	r4, r1
  109afc:	0a00003f 	beq	109c00 <_malloc_r+0x680>
  109b00:	e5910004 	ldr	r0, [r1, #4]
  109b04:	e3c00003 	bic	r0, r0, #3
  109b08:	e1500003 	cmp	r0, r3
  109b0c:	9a000002 	bls	109b1c <_malloc_r+0x59c>
  109b10:	e5911008 	ldr	r1, [r1, #8]
  109b14:	e1540001 	cmp	r4, r1
  109b18:	1afffff8 	bne	109b00 <_malloc_r+0x580>
  109b1c:	e591400c 	ldr	r4, [r1, #12]
  109b20:	e5970004 	ldr	r0, [r7, #4]
  109b24:	e582400c 	str	r4, [r2, #12]
  109b28:	e5821008 	str	r1, [r2, #8]
  109b2c:	e5842008 	str	r2, [r4, #8]
  109b30:	e581200c 	str	r2, [r1, #12]
  109b34:	eafffef9 	b	109720 <_malloc_r+0x1a0>
  109b38:	e3530054 	cmp	r3, #84	; 0x54
  109b3c:	9a000011 	bls	109b88 <_malloc_r+0x608>
  109b40:	e3530f55 	cmp	r3, #340	; 0x154
  109b44:	8a000042 	bhi	109c54 <_malloc_r+0x6d4>
  109b48:	e1a037a5 	lsr	r3, r5, #15
  109b4c:	e283c078 	add	ip, r3, #120	; 0x78
  109b50:	e283e077 	add	lr, r3, #119	; 0x77
  109b54:	e1a0318c 	lsl	r3, ip, #3
  109b58:	eafffebf 	b	10965c <_malloc_r+0xdc>
  109b5c:	e1540007 	cmp	r4, r7
  109b60:	0a000043 	beq	109c74 <_malloc_r+0x6f4>
  109b64:	e5974008 	ldr	r4, [r7, #8]
  109b68:	e5942004 	ldr	r2, [r4, #4]
  109b6c:	e3c22003 	bic	r2, r2, #3
  109b70:	eaffff77 	b	109954 <_malloc_r+0x3d4>
  109b74:	e1a08323 	lsr	r8, r3, #6
  109b78:	e2881039 	add	r1, r8, #57	; 0x39
  109b7c:	e2888038 	add	r8, r8, #56	; 0x38
  109b80:	e1a01181 	lsl	r1, r1, #3
  109b84:	eaffffd8 	b	109aec <_malloc_r+0x56c>
  109b88:	e1a03625 	lsr	r3, r5, #12
  109b8c:	e283c06f 	add	ip, r3, #111	; 0x6f
  109b90:	e283e06e 	add	lr, r3, #110	; 0x6e
  109b94:	e1a0318c 	lsl	r3, ip, #3
  109b98:	eafffeaf 	b	10965c <_malloc_r+0xdc>
  109b9c:	e5999000 	ldr	r9, [r9]
  109ba0:	e1590003 	cmp	r9, r3
  109ba4:	1a00004f 	bne	109ce8 <_malloc_r+0x768>
  109ba8:	e31c0003 	tst	ip, #3
  109bac:	e2493008 	sub	r3, r9, #8
  109bb0:	e24cc001 	sub	ip, ip, #1
  109bb4:	1afffff8 	bne	109b9c <_malloc_r+0x61c>
  109bb8:	e5973004 	ldr	r3, [r7, #4]
  109bbc:	e1c33001 	bic	r3, r3, r1
  109bc0:	e5873004 	str	r3, [r7, #4]
  109bc4:	e1a01081 	lsl	r1, r1, #1
  109bc8:	e1510003 	cmp	r1, r3
  109bcc:	83a02000 	movhi	r2, #0
  109bd0:	93a02001 	movls	r2, #1
  109bd4:	e3510000 	cmp	r1, #0
  109bd8:	03a02000 	moveq	r2, #0
  109bdc:	e3520000 	cmp	r2, #0
  109be0:	1a000002 	bne	109bf0 <_malloc_r+0x670>
  109be4:	eafffeff 	b	1097e8 <_malloc_r+0x268>
  109be8:	e1a01081 	lsl	r1, r1, #1
  109bec:	e2844004 	add	r4, r4, #4
  109bf0:	e1110003 	tst	r1, r3
  109bf4:	0afffffb 	beq	109be8 <_malloc_r+0x668>
  109bf8:	e1a0c004 	mov	ip, r4
  109bfc:	eafffed7 	b	109760 <_malloc_r+0x1e0>
  109c00:	e5970004 	ldr	r0, [r7, #4]
  109c04:	e1a08148 	asr	r8, r8, #2
  109c08:	e3a03001 	mov	r3, #1
  109c0c:	e1800813 	orr	r0, r0, r3, lsl r8
  109c10:	e5870004 	str	r0, [r7, #4]
  109c14:	eaffffc2 	b	109b24 <_malloc_r+0x5a4>
  109c18:	e3580054 	cmp	r8, #84	; 0x54
  109c1c:	8a000018 	bhi	109c84 <_malloc_r+0x704>
  109c20:	e1a08623 	lsr	r8, r3, #12
  109c24:	e288106f 	add	r1, r8, #111	; 0x6f
  109c28:	e288806e 	add	r8, r8, #110	; 0x6e
  109c2c:	e1a01181 	lsl	r1, r1, #3
  109c30:	eaffffad 	b	109aec <_malloc_r+0x56c>
  109c34:	e7eb2053 	ubfx	r2, r3, #0, #12
  109c38:	e3520000 	cmp	r2, #0
  109c3c:	1affff0c 	bne	109874 <_malloc_r+0x2f4>
  109c40:	e5972008 	ldr	r2, [r7, #8]
  109c44:	e089300a 	add	r3, r9, sl
  109c48:	e3833001 	orr	r3, r3, #1
  109c4c:	e5823004 	str	r3, [r2, #4]
  109c50:	eaffff36 	b	109930 <_malloc_r+0x3b0>
  109c54:	e3002554 	movw	r2, #1364	; 0x554
  109c58:	e1530002 	cmp	r3, r2
  109c5c:	8a00000f 	bhi	109ca0 <_malloc_r+0x720>
  109c60:	e1a03925 	lsr	r3, r5, #18
  109c64:	e283c07d 	add	ip, r3, #125	; 0x7d
  109c68:	e283e07c 	add	lr, r3, #124	; 0x7c
  109c6c:	e1a0318c 	lsl	r3, ip, #3
  109c70:	eafffe79 	b	10965c <_malloc_r+0xdc>
  109c74:	e5981004 	ldr	r1, [r8, #4]
  109c78:	e08a1001 	add	r1, sl, r1
  109c7c:	e5881004 	str	r1, [r8, #4]
  109c80:	eafffefb 	b	109874 <_malloc_r+0x2f4>
  109c84:	e3580f55 	cmp	r8, #340	; 0x154
  109c88:	8a00000d 	bhi	109cc4 <_malloc_r+0x744>
  109c8c:	e1a087a3 	lsr	r8, r3, #15
  109c90:	e2881078 	add	r1, r8, #120	; 0x78
  109c94:	e2888077 	add	r8, r8, #119	; 0x77
  109c98:	e1a01181 	lsl	r1, r1, #3
  109c9c:	eaffff92 	b	109aec <_malloc_r+0x56c>
  109ca0:	e3a03ffe 	mov	r3, #1016	; 0x3f8
  109ca4:	e3a0c07f 	mov	ip, #127	; 0x7f
  109ca8:	e3a0e07e 	mov	lr, #126	; 0x7e
  109cac:	eafffe6a 	b	10965c <_malloc_r+0xdc>
  109cb0:	e2841008 	add	r1, r4, #8
  109cb4:	e1a00006 	mov	r0, r6
  109cb8:	ebfff853 	bl	107e0c <_free_r>
  109cbc:	e5981004 	ldr	r1, [r8, #4]
  109cc0:	eaffff1a 	b	109930 <_malloc_r+0x3b0>
  109cc4:	e3001554 	movw	r1, #1364	; 0x554
  109cc8:	e1580001 	cmp	r8, r1
  109ccc:	91a08923 	lsrls	r8, r3, #18
  109cd0:	9288107d 	addls	r1, r8, #125	; 0x7d
  109cd4:	83a01ffe 	movhi	r1, #1016	; 0x3f8
  109cd8:	9288807c 	addls	r8, r8, #124	; 0x7c
  109cdc:	83a0807e 	movhi	r8, #126	; 0x7e
  109ce0:	91a01181 	lslls	r1, r1, #3
  109ce4:	eaffff80 	b	109aec <_malloc_r+0x56c>
  109ce8:	e5973004 	ldr	r3, [r7, #4]
  109cec:	eaffffb4 	b	109bc4 <_malloc_r+0x644>
  109cf0:	0010fcf8 	.word	0x0010fcf8

00109cf4 <__ascii_mbtowc>:
  109cf4:	e3510000 	cmp	r1, #0
  109cf8:	e24dd008 	sub	sp, sp, #8
  109cfc:	028d1004 	addeq	r1, sp, #4
  109d00:	e3520000 	cmp	r2, #0
  109d04:	01a00002 	moveq	r0, r2
  109d08:	0a000006 	beq	109d28 <__ascii_mbtowc+0x34>
  109d0c:	e3530000 	cmp	r3, #0
  109d10:	0a000006 	beq	109d30 <__ascii_mbtowc+0x3c>
  109d14:	e5d23000 	ldrb	r3, [r2]
  109d18:	e5813000 	str	r3, [r1]
  109d1c:	e5d22000 	ldrb	r2, [r2]
  109d20:	e2920000 	adds	r0, r2, #0
  109d24:	13a00001 	movne	r0, #1
  109d28:	e28dd008 	add	sp, sp, #8
  109d2c:	e12fff1e 	bx	lr
  109d30:	e3e00001 	mvn	r0, #1
  109d34:	eafffffb 	b	109d28 <__ascii_mbtowc+0x34>

00109d38 <_mbtowc_r>:
  109d38:	e92d43f0 	push	{r4, r5, r6, r7, r8, r9, lr}
  109d3c:	e300c100 	movw	ip, #256	; 0x100
  109d40:	e24dd00c 	sub	sp, sp, #12
  109d44:	e340c011 	movt	ip, #17
  109d48:	e1a05000 	mov	r5, r0
  109d4c:	e1a07001 	mov	r7, r1
  109d50:	e1a08002 	mov	r8, r2
  109d54:	e1a09003 	mov	r9, r3
  109d58:	e59c4000 	ldr	r4, [ip]
  109d5c:	e59d6028 	ldr	r6, [sp, #40]	; 0x28
  109d60:	ebfffd8e 	bl	1093a0 <__locale_charset>
  109d64:	e1a03009 	mov	r3, r9
  109d68:	e1a02008 	mov	r2, r8
  109d6c:	e1a01007 	mov	r1, r7
  109d70:	e88d0041 	stm	sp, {r0, r6}
  109d74:	e1a00005 	mov	r0, r5
  109d78:	e12fff34 	blx	r4
  109d7c:	e28dd00c 	add	sp, sp, #12
  109d80:	e8bd83f0 	pop	{r4, r5, r6, r7, r8, r9, pc}

00109d84 <__utf8_mbtowc>:
  109d84:	e92d40f0 	push	{r4, r5, r6, r7, lr}
  109d88:	e3510000 	cmp	r1, #0
  109d8c:	e24dd00c 	sub	sp, sp, #12
  109d90:	e1a05000 	mov	r5, r0
  109d94:	028d1004 	addeq	r1, sp, #4
  109d98:	e3520000 	cmp	r2, #0
  109d9c:	e59dc024 	ldr	ip, [sp, #36]	; 0x24
  109da0:	01a00002 	moveq	r0, r2
  109da4:	0a000026 	beq	109e44 <__utf8_mbtowc+0xc0>
  109da8:	e3530000 	cmp	r3, #0
  109dac:	0a0000a6 	beq	10a04c <__utf8_mbtowc+0x2c8>
  109db0:	e59ce000 	ldr	lr, [ip]
  109db4:	e35e0000 	cmp	lr, #0
  109db8:	05d20000 	ldrbeq	r0, [r2]
  109dbc:	03a04001 	moveq	r4, #1
  109dc0:	15dc0004 	ldrbne	r0, [ip, #4]
  109dc4:	13a04000 	movne	r4, #0
  109dc8:	e3500000 	cmp	r0, #0
  109dcc:	05810000 	streq	r0, [r1]
  109dd0:	058c0000 	streq	r0, [ip]
  109dd4:	0a00001a 	beq	109e44 <__utf8_mbtowc+0xc0>
  109dd8:	e350007f 	cmp	r0, #127	; 0x7f
  109ddc:	da00003f 	ble	109ee0 <__utf8_mbtowc+0x15c>
  109de0:	e24060c0 	sub	r6, r0, #192	; 0xc0
  109de4:	e356001f 	cmp	r6, #31
  109de8:	8a000017 	bhi	109e4c <__utf8_mbtowc+0xc8>
  109dec:	e35e0000 	cmp	lr, #0
  109df0:	e5cc0004 	strb	r0, [ip, #4]
  109df4:	1a000003 	bne	109e08 <__utf8_mbtowc+0x84>
  109df8:	e3530001 	cmp	r3, #1
  109dfc:	e3a03001 	mov	r3, #1
  109e00:	e58c3000 	str	r3, [ip]
  109e04:	9a000090 	bls	10a04c <__utf8_mbtowc+0x2c8>
  109e08:	e7d22004 	ldrb	r2, [r2, r4]
  109e0c:	e2844001 	add	r4, r4, #1
  109e10:	e2423080 	sub	r3, r2, #128	; 0x80
  109e14:	e353003f 	cmp	r3, #63	; 0x3f
  109e18:	8a000094 	bhi	10a070 <__utf8_mbtowc+0x2ec>
  109e1c:	e35000c1 	cmp	r0, #193	; 0xc1
  109e20:	da000092 	ble	10a070 <__utf8_mbtowc+0x2ec>
  109e24:	e1a03300 	lsl	r3, r0, #6
  109e28:	e202203f 	and	r2, r2, #63	; 0x3f
  109e2c:	e2033d1f 	and	r3, r3, #1984	; 0x7c0
  109e30:	e1a00004 	mov	r0, r4
  109e34:	e1833002 	orr	r3, r3, r2
  109e38:	e3a02000 	mov	r2, #0
  109e3c:	e58c2000 	str	r2, [ip]
  109e40:	e5813000 	str	r3, [r1]
  109e44:	e28dd00c 	add	sp, sp, #12
  109e48:	e8bd80f0 	pop	{r4, r5, r6, r7, pc}
  109e4c:	e24060e0 	sub	r6, r0, #224	; 0xe0
  109e50:	e356000f 	cmp	r6, #15
  109e54:	8a000027 	bhi	109ef8 <__utf8_mbtowc+0x174>
  109e58:	e35e0000 	cmp	lr, #0
  109e5c:	e5cc0004 	strb	r0, [ip, #4]
  109e60:	0a00005d 	beq	109fdc <__utf8_mbtowc+0x258>
  109e64:	e3730001 	cmn	r3, #1
  109e68:	12833001 	addne	r3, r3, #1
  109e6c:	e35e0001 	cmp	lr, #1
  109e70:	15dc6005 	ldrbne	r6, [ip, #5]
  109e74:	0a00005c 	beq	109fec <__utf8_mbtowc+0x268>
  109e78:	e356009f 	cmp	r6, #159	; 0x9f
  109e7c:	d35000e0 	cmple	r0, #224	; 0xe0
  109e80:	0a00007a 	beq	10a070 <__utf8_mbtowc+0x2ec>
  109e84:	e2467080 	sub	r7, r6, #128	; 0x80
  109e88:	e357003f 	cmp	r7, #63	; 0x3f
  109e8c:	8a000077 	bhi	10a070 <__utf8_mbtowc+0x2ec>
  109e90:	e35e0001 	cmp	lr, #1
  109e94:	e5cc6005 	strb	r6, [ip, #5]
  109e98:	0a00006d 	beq	10a054 <__utf8_mbtowc+0x2d0>
  109e9c:	e7d23004 	ldrb	r3, [r2, r4]
  109ea0:	e2844001 	add	r4, r4, #1
  109ea4:	e2432080 	sub	r2, r3, #128	; 0x80
  109ea8:	e352003f 	cmp	r2, #63	; 0x3f
  109eac:	8a00006f 	bhi	10a070 <__utf8_mbtowc+0x2ec>
  109eb0:	e1a00600 	lsl	r0, r0, #12
  109eb4:	e1a06306 	lsl	r6, r6, #6
  109eb8:	e203203f 	and	r2, r3, #63	; 0x3f
  109ebc:	e2066d3f 	and	r6, r6, #4032	; 0xfc0
  109ec0:	e6ff3070 	uxth	r3, r0
  109ec4:	e1a00004 	mov	r0, r4
  109ec8:	e1836006 	orr	r6, r3, r6
  109ecc:	e3a03000 	mov	r3, #0
  109ed0:	e1866002 	orr	r6, r6, r2
  109ed4:	e58c3000 	str	r3, [ip]
  109ed8:	e5816000 	str	r6, [r1]
  109edc:	eaffffd8 	b	109e44 <__utf8_mbtowc+0xc0>
  109ee0:	e3a03000 	mov	r3, #0
  109ee4:	e58c3000 	str	r3, [ip]
  109ee8:	e5810000 	str	r0, [r1]
  109eec:	e3a00001 	mov	r0, #1
  109ef0:	e28dd00c 	add	sp, sp, #12
  109ef4:	e8bd80f0 	pop	{r4, r5, r6, r7, pc}
  109ef8:	e24060f0 	sub	r6, r0, #240	; 0xf0
  109efc:	e3560004 	cmp	r6, #4
  109f00:	8a00005a 	bhi	10a070 <__utf8_mbtowc+0x2ec>
  109f04:	e35e0000 	cmp	lr, #0
  109f08:	e5cc0004 	strb	r0, [ip, #4]
  109f0c:	1a00003a 	bne	109ffc <__utf8_mbtowc+0x278>
  109f10:	e3530001 	cmp	r3, #1
  109f14:	e3a0e001 	mov	lr, #1
  109f18:	e58ce000 	str	lr, [ip]
  109f1c:	9a00004a 	bls	10a04c <__utf8_mbtowc+0x2c8>
  109f20:	e7d26004 	ldrb	r6, [r2, r4]
  109f24:	e3a0e001 	mov	lr, #1
  109f28:	e084400e 	add	r4, r4, lr
  109f2c:	e35000f0 	cmp	r0, #240	; 0xf0
  109f30:	0a00004c 	beq	10a068 <__utf8_mbtowc+0x2e4>
  109f34:	e24070f4 	sub	r7, r0, #244	; 0xf4
  109f38:	e356008f 	cmp	r6, #143	; 0x8f
  109f3c:	e16f7f17 	clz	r7, r7
  109f40:	e1a072a7 	lsr	r7, r7, #5
  109f44:	d3a07000 	movle	r7, #0
  109f48:	e3570000 	cmp	r7, #0
  109f4c:	1a000047 	bne	10a070 <__utf8_mbtowc+0x2ec>
  109f50:	e2467080 	sub	r7, r6, #128	; 0x80
  109f54:	e357003f 	cmp	r7, #63	; 0x3f
  109f58:	8a000044 	bhi	10a070 <__utf8_mbtowc+0x2ec>
  109f5c:	e35e0001 	cmp	lr, #1
  109f60:	e5cc6005 	strb	r6, [ip, #5]
  109f64:	0a00002a 	beq	10a014 <__utf8_mbtowc+0x290>
  109f68:	e59ce000 	ldr	lr, [ip]
  109f6c:	e3730001 	cmn	r3, #1
  109f70:	12833001 	addne	r3, r3, #1
  109f74:	e35e0002 	cmp	lr, #2
  109f78:	0a000029 	beq	10a024 <__utf8_mbtowc+0x2a0>
  109f7c:	e5dce006 	ldrb	lr, [ip, #6]
  109f80:	e24e3080 	sub	r3, lr, #128	; 0x80
  109f84:	e353003f 	cmp	r3, #63	; 0x3f
  109f88:	8a000038 	bhi	10a070 <__utf8_mbtowc+0x2ec>
  109f8c:	e7d22004 	ldrb	r2, [r2, r4]
  109f90:	e2844001 	add	r4, r4, #1
  109f94:	e2423080 	sub	r3, r2, #128	; 0x80
  109f98:	e353003f 	cmp	r3, #63	; 0x3f
  109f9c:	8a000033 	bhi	10a070 <__utf8_mbtowc+0x2ec>
  109fa0:	e1a03900 	lsl	r3, r0, #18
  109fa4:	e1a06606 	lsl	r6, r6, #12
  109fa8:	e2033707 	and	r3, r3, #1835008	; 0x1c0000
  109fac:	e2066a3f 	and	r6, r6, #258048	; 0x3f000
  109fb0:	e1a0030e 	lsl	r0, lr, #6
  109fb4:	e1833006 	orr	r3, r3, r6
  109fb8:	e2000d3f 	and	r0, r0, #4032	; 0xfc0
  109fbc:	e202203f 	and	r2, r2, #63	; 0x3f
  109fc0:	e1833000 	orr	r3, r3, r0
  109fc4:	e1a00004 	mov	r0, r4
  109fc8:	e1833002 	orr	r3, r3, r2
  109fcc:	e3a02000 	mov	r2, #0
  109fd0:	e5813000 	str	r3, [r1]
  109fd4:	e58c2000 	str	r2, [ip]
  109fd8:	eaffff99 	b	109e44 <__utf8_mbtowc+0xc0>
  109fdc:	e3530001 	cmp	r3, #1
  109fe0:	e3a0e001 	mov	lr, #1
  109fe4:	e58ce000 	str	lr, [ip]
  109fe8:	9a000017 	bls	10a04c <__utf8_mbtowc+0x2c8>
  109fec:	e7d26004 	ldrb	r6, [r2, r4]
  109ff0:	e3a0e001 	mov	lr, #1
  109ff4:	e084400e 	add	r4, r4, lr
  109ff8:	eaffff9e 	b	109e78 <__utf8_mbtowc+0xf4>
  109ffc:	e3730001 	cmn	r3, #1
  10a000:	12833001 	addne	r3, r3, #1
  10a004:	e35e0001 	cmp	lr, #1
  10a008:	15dc6005 	ldrbne	r6, [ip, #5]
  10a00c:	1affffc6 	bne	109f2c <__utf8_mbtowc+0x1a8>
  10a010:	eaffffc2 	b	109f20 <__utf8_mbtowc+0x19c>
  10a014:	e3530002 	cmp	r3, #2
  10a018:	e3a0e002 	mov	lr, #2
  10a01c:	e58ce000 	str	lr, [ip]
  10a020:	0a000009 	beq	10a04c <__utf8_mbtowc+0x2c8>
  10a024:	e7d2e004 	ldrb	lr, [r2, r4]
  10a028:	e2844001 	add	r4, r4, #1
  10a02c:	e24e7080 	sub	r7, lr, #128	; 0x80
  10a030:	e357003f 	cmp	r7, #63	; 0x3f
  10a034:	8a00000d 	bhi	10a070 <__utf8_mbtowc+0x2ec>
  10a038:	e3530003 	cmp	r3, #3
  10a03c:	e5cce006 	strb	lr, [ip, #6]
  10a040:	e3a03003 	mov	r3, #3
  10a044:	e58c3000 	str	r3, [ip]
  10a048:	1affffcf 	bne	109f8c <__utf8_mbtowc+0x208>
  10a04c:	e3e00001 	mvn	r0, #1
  10a050:	eaffff7b 	b	109e44 <__utf8_mbtowc+0xc0>
  10a054:	e3530002 	cmp	r3, #2
  10a058:	e3a03002 	mov	r3, #2
  10a05c:	e58c3000 	str	r3, [ip]
  10a060:	1affff8d 	bne	109e9c <__utf8_mbtowc+0x118>
  10a064:	eafffff8 	b	10a04c <__utf8_mbtowc+0x2c8>
  10a068:	e356008f 	cmp	r6, #143	; 0x8f
  10a06c:	caffffb7 	bgt	109f50 <__utf8_mbtowc+0x1cc>
  10a070:	e3a0308a 	mov	r3, #138	; 0x8a
  10a074:	e3e00000 	mvn	r0, #0
  10a078:	e5853000 	str	r3, [r5]
  10a07c:	eaffff70 	b	109e44 <__utf8_mbtowc+0xc0>

0010a080 <__sjis_mbtowc>:
  10a080:	e92d4030 	push	{r4, r5, lr}
  10a084:	e3510000 	cmp	r1, #0
  10a088:	e24dd00c 	sub	sp, sp, #12
  10a08c:	e1a05000 	mov	r5, r0
  10a090:	028d1004 	addeq	r1, sp, #4
  10a094:	e3520000 	cmp	r2, #0
  10a098:	e59d401c 	ldr	r4, [sp, #28]
  10a09c:	01a00002 	moveq	r0, r2
  10a0a0:	0a00000b 	beq	10a0d4 <__sjis_mbtowc+0x54>
  10a0a4:	e3530000 	cmp	r3, #0
  10a0a8:	0a000025 	beq	10a144 <__sjis_mbtowc+0xc4>
  10a0ac:	e5940000 	ldr	r0, [r4]
  10a0b0:	e5d2c000 	ldrb	ip, [r2]
  10a0b4:	e3500000 	cmp	r0, #0
  10a0b8:	0a000007 	beq	10a0dc <__sjis_mbtowc+0x5c>
  10a0bc:	e3500001 	cmp	r0, #1
  10a0c0:	0a000011 	beq	10a10c <__sjis_mbtowc+0x8c>
  10a0c4:	e581c000 	str	ip, [r1]
  10a0c8:	e5d20000 	ldrb	r0, [r2]
  10a0cc:	e2900000 	adds	r0, r0, #0
  10a0d0:	13a00001 	movne	r0, #1
  10a0d4:	e28dd00c 	add	sp, sp, #12
  10a0d8:	e8bd8030 	pop	{r4, r5, pc}
  10a0dc:	e24ce081 	sub	lr, ip, #129	; 0x81
  10a0e0:	e24c00e0 	sub	r0, ip, #224	; 0xe0
  10a0e4:	e350000f 	cmp	r0, #15
  10a0e8:	835e001e 	cmphi	lr, #30
  10a0ec:	8afffff4 	bhi	10a0c4 <__sjis_mbtowc+0x44>
  10a0f0:	e3530001 	cmp	r3, #1
  10a0f4:	e5c4c004 	strb	ip, [r4, #4]
  10a0f8:	e3a03001 	mov	r3, #1
  10a0fc:	e5843000 	str	r3, [r4]
  10a100:	9a00000f 	bls	10a144 <__sjis_mbtowc+0xc4>
  10a104:	e5d2c001 	ldrb	ip, [r2, #1]
  10a108:	e3a00002 	mov	r0, #2
  10a10c:	e24c3040 	sub	r3, ip, #64	; 0x40
  10a110:	e24c2080 	sub	r2, ip, #128	; 0x80
  10a114:	e352007c 	cmp	r2, #124	; 0x7c
  10a118:	8353003e 	cmphi	r3, #62	; 0x3e
  10a11c:	95d42004 	ldrbls	r2, [r4, #4]
  10a120:	93a03000 	movls	r3, #0
  10a124:	83a0308a 	movhi	r3, #138	; 0x8a
  10a128:	83e00000 	mvnhi	r0, #0
  10a12c:	85853000 	strhi	r3, [r5]
  10a130:	908cc402 	addls	ip, ip, r2, lsl #8
  10a134:	9581c000 	strls	ip, [r1]
  10a138:	95843000 	strls	r3, [r4]
  10a13c:	e28dd00c 	add	sp, sp, #12
  10a140:	e8bd8030 	pop	{r4, r5, pc}
  10a144:	e3e00001 	mvn	r0, #1
  10a148:	eaffffe1 	b	10a0d4 <__sjis_mbtowc+0x54>

0010a14c <__eucjp_mbtowc>:
  10a14c:	e92d4030 	push	{r4, r5, lr}
  10a150:	e3510000 	cmp	r1, #0
  10a154:	e24dd00c 	sub	sp, sp, #12
  10a158:	e1a05000 	mov	r5, r0
  10a15c:	028d1004 	addeq	r1, sp, #4
  10a160:	e3520000 	cmp	r2, #0
  10a164:	e59d401c 	ldr	r4, [sp, #28]
  10a168:	01a00002 	moveq	r0, r2
  10a16c:	0a00000d 	beq	10a1a8 <__eucjp_mbtowc+0x5c>
  10a170:	e3530000 	cmp	r3, #0
  10a174:	0a000039 	beq	10a260 <__eucjp_mbtowc+0x114>
  10a178:	e5940000 	ldr	r0, [r4]
  10a17c:	e5d2c000 	ldrb	ip, [r2]
  10a180:	e3500000 	cmp	r0, #0
  10a184:	0a000009 	beq	10a1b0 <__eucjp_mbtowc+0x64>
  10a188:	e3500001 	cmp	r0, #1
  10a18c:	0a000013 	beq	10a1e0 <__eucjp_mbtowc+0x94>
  10a190:	e3500002 	cmp	r0, #2
  10a194:	0a00001d 	beq	10a210 <__eucjp_mbtowc+0xc4>
  10a198:	e581c000 	str	ip, [r1]
  10a19c:	e5d20000 	ldrb	r0, [r2]
  10a1a0:	e2900000 	adds	r0, r0, #0
  10a1a4:	13a00001 	movne	r0, #1
  10a1a8:	e28dd00c 	add	sp, sp, #12
  10a1ac:	e8bd8030 	pop	{r4, r5, pc}
  10a1b0:	e24ce08e 	sub	lr, ip, #142	; 0x8e
  10a1b4:	e24c00a1 	sub	r0, ip, #161	; 0xa1
  10a1b8:	e350005d 	cmp	r0, #93	; 0x5d
  10a1bc:	835e0001 	cmphi	lr, #1
  10a1c0:	8afffff4 	bhi	10a198 <__eucjp_mbtowc+0x4c>
  10a1c4:	e3530001 	cmp	r3, #1
  10a1c8:	e3a00001 	mov	r0, #1
  10a1cc:	e5c4c004 	strb	ip, [r4, #4]
  10a1d0:	e5840000 	str	r0, [r4]
  10a1d4:	9a000021 	bls	10a260 <__eucjp_mbtowc+0x114>
  10a1d8:	e5d2c001 	ldrb	ip, [r2, #1]
  10a1dc:	e3a00002 	mov	r0, #2
  10a1e0:	e24ce0a1 	sub	lr, ip, #161	; 0xa1
  10a1e4:	e35e005d 	cmp	lr, #93	; 0x5d
  10a1e8:	8a00001e 	bhi	10a268 <__eucjp_mbtowc+0x11c>
  10a1ec:	e5d4e004 	ldrb	lr, [r4, #4]
  10a1f0:	e35e008f 	cmp	lr, #143	; 0x8f
  10a1f4:	0a000011 	beq	10a240 <__eucjp_mbtowc+0xf4>
  10a1f8:	e08cc40e 	add	ip, ip, lr, lsl #8
  10a1fc:	e3a03000 	mov	r3, #0
  10a200:	e581c000 	str	ip, [r1]
  10a204:	e5843000 	str	r3, [r4]
  10a208:	e28dd00c 	add	sp, sp, #12
  10a20c:	e8bd8030 	pop	{r4, r5, pc}
  10a210:	e3a00001 	mov	r0, #1
  10a214:	e24c30a1 	sub	r3, ip, #161	; 0xa1
  10a218:	e353005d 	cmp	r3, #93	; 0x5d
  10a21c:	8a000011 	bhi	10a268 <__eucjp_mbtowc+0x11c>
  10a220:	e5d42005 	ldrb	r2, [r4, #5]
  10a224:	e20cc07f 	and	ip, ip, #127	; 0x7f
  10a228:	e3a03000 	mov	r3, #0
  10a22c:	e08cc402 	add	ip, ip, r2, lsl #8
  10a230:	e581c000 	str	ip, [r1]
  10a234:	e5843000 	str	r3, [r4]
  10a238:	e28dd00c 	add	sp, sp, #12
  10a23c:	e8bd8030 	pop	{r4, r5, pc}
  10a240:	e1500003 	cmp	r0, r3
  10a244:	e5c4c005 	strb	ip, [r4, #5]
  10a248:	e3a03002 	mov	r3, #2
  10a24c:	e1a0c000 	mov	ip, r0
  10a250:	e5843000 	str	r3, [r4]
  10a254:	32800001 	addcc	r0, r0, #1
  10a258:	37d2c00c 	ldrbcc	ip, [r2, ip]
  10a25c:	3affffec 	bcc	10a214 <__eucjp_mbtowc+0xc8>
  10a260:	e3e00001 	mvn	r0, #1
  10a264:	eaffffcf 	b	10a1a8 <__eucjp_mbtowc+0x5c>
  10a268:	e3a0308a 	mov	r3, #138	; 0x8a
  10a26c:	e3e00000 	mvn	r0, #0
  10a270:	e5853000 	str	r3, [r5]
  10a274:	eaffffcb 	b	10a1a8 <__eucjp_mbtowc+0x5c>

0010a278 <__jis_mbtowc>:
  10a278:	e92d4ff0 	push	{r4, r5, r6, r7, r8, r9, sl, fp, lr}
  10a27c:	e24dd00c 	sub	sp, sp, #12
  10a280:	e3510000 	cmp	r1, #0
  10a284:	e1a0a000 	mov	sl, r0
  10a288:	e59d8034 	ldr	r8, [sp, #52]	; 0x34
  10a28c:	028d1004 	addeq	r1, sp, #4
  10a290:	e3520000 	cmp	r2, #0
  10a294:	05882000 	streq	r2, [r8]
  10a298:	03a00001 	moveq	r0, #1
  10a29c:	0a000027 	beq	10a340 <__jis_mbtowc+0xc8>
  10a2a0:	e3530000 	cmp	r3, #0
  10a2a4:	0a000024 	beq	10a33c <__jis_mbtowc+0xc4>
  10a2a8:	e5d8c000 	ldrb	ip, [r8]
  10a2ac:	e30f7248 	movw	r7, #62024	; 0xf248
  10a2b0:	e3407010 	movt	r7, #16
  10a2b4:	e1a00002 	mov	r0, r2
  10a2b8:	e1a0e002 	mov	lr, r2
  10a2bc:	e3a05000 	mov	r5, #0
  10a2c0:	e1a0b00e 	mov	fp, lr
  10a2c4:	e4de4001 	ldrb	r4, [lr], #1
  10a2c8:	e3540028 	cmp	r4, #40	; 0x28
  10a2cc:	0a000050 	beq	10a414 <__jis_mbtowc+0x19c>
  10a2d0:	8a00001c 	bhi	10a348 <__jis_mbtowc+0xd0>
  10a2d4:	e354001b 	cmp	r4, #27
  10a2d8:	03a06000 	moveq	r6, #0
  10a2dc:	0a000008 	beq	10a304 <__jis_mbtowc+0x8c>
  10a2e0:	e3540024 	cmp	r4, #36	; 0x24
  10a2e4:	03a06001 	moveq	r6, #1
  10a2e8:	0a000005 	beq	10a304 <__jis_mbtowc+0x8c>
  10a2ec:	e3540000 	cmp	r4, #0
  10a2f0:	0a000040 	beq	10a3f8 <__jis_mbtowc+0x180>
  10a2f4:	e2446021 	sub	r6, r4, #33	; 0x21
  10a2f8:	e356005d 	cmp	r6, #93	; 0x5d
  10a2fc:	83a06008 	movhi	r6, #8
  10a300:	93a06007 	movls	r6, #7
  10a304:	e08cc18c 	add	ip, ip, ip, lsl #3
  10a308:	e087c00c 	add	ip, r7, ip
  10a30c:	e08c9006 	add	r9, ip, r6
  10a310:	e7dcc006 	ldrb	ip, [ip, r6]
  10a314:	e5d96048 	ldrb	r6, [r9, #72]	; 0x48
  10a318:	e3560005 	cmp	r6, #5
  10a31c:	979ff106 	ldrls	pc, [pc, r6, lsl #2]
  10a320:	ea000036 	b	10a400 <__jis_mbtowc+0x188>
  10a324:	0010a388 	.word	0x0010a388
  10a328:	0010a3a4 	.word	0x0010a3a4
  10a32c:	0010a3c0 	.word	0x0010a3c0
  10a330:	0010a3e4 	.word	0x0010a3e4
  10a334:	0010a3f0 	.word	0x0010a3f0
  10a338:	0010a370 	.word	0x0010a370
  10a33c:	e3e00001 	mvn	r0, #1
  10a340:	e28dd00c 	add	sp, sp, #12
  10a344:	e8bd8ff0 	pop	{r4, r5, r6, r7, r8, r9, sl, fp, pc}
  10a348:	e3540042 	cmp	r4, #66	; 0x42
  10a34c:	03a06004 	moveq	r6, #4
  10a350:	0affffeb 	beq	10a304 <__jis_mbtowc+0x8c>
  10a354:	e354004a 	cmp	r4, #74	; 0x4a
  10a358:	03a06005 	moveq	r6, #5
  10a35c:	0affffe8 	beq	10a304 <__jis_mbtowc+0x8c>
  10a360:	e3540040 	cmp	r4, #64	; 0x40
  10a364:	1affffe2 	bne	10a2f4 <__jis_mbtowc+0x7c>
  10a368:	e3a06003 	mov	r6, #3
  10a36c:	eaffffe4 	b	10a304 <__jis_mbtowc+0x8c>
  10a370:	e3a03000 	mov	r3, #0
  10a374:	e5883000 	str	r3, [r8]
  10a378:	e1a00003 	mov	r0, r3
  10a37c:	e5813000 	str	r3, [r1]
  10a380:	e28dd00c 	add	sp, sp, #12
  10a384:	e8bd8ff0 	pop	{r4, r5, r6, r7, r8, r9, sl, fp, pc}
  10a388:	e3a03000 	mov	r3, #0
  10a38c:	e5883000 	str	r3, [r8]
  10a390:	e5d23000 	ldrb	r3, [r2]
  10a394:	e2850001 	add	r0, r5, #1
  10a398:	e5813000 	str	r3, [r1]
  10a39c:	e28dd00c 	add	sp, sp, #12
  10a3a0:	e8bd8ff0 	pop	{r4, r5, r6, r7, r8, r9, sl, fp, pc}
  10a3a4:	e04e5000 	sub	r5, lr, r0
  10a3a8:	e5c84004 	strb	r4, [r8, #4]
  10a3ac:	e1550003 	cmp	r5, r3
  10a3b0:	3affffc2 	bcc	10a2c0 <__jis_mbtowc+0x48>
  10a3b4:	e588c000 	str	ip, [r8]
  10a3b8:	e3e00001 	mvn	r0, #1
  10a3bc:	eaffffdf 	b	10a340 <__jis_mbtowc+0xc8>
  10a3c0:	e5d82004 	ldrb	r2, [r8, #4]
  10a3c4:	e3a03001 	mov	r3, #1
  10a3c8:	e5883000 	str	r3, [r8]
  10a3cc:	e0850003 	add	r0, r5, r3
  10a3d0:	e5db3000 	ldrb	r3, [fp]
  10a3d4:	e0833402 	add	r3, r3, r2, lsl #8
  10a3d8:	e5813000 	str	r3, [r1]
  10a3dc:	e28dd00c 	add	sp, sp, #12
  10a3e0:	e8bd8ff0 	pop	{r4, r5, r6, r7, r8, r9, sl, fp, pc}
  10a3e4:	e04e5000 	sub	r5, lr, r0
  10a3e8:	e1a0200e 	mov	r2, lr
  10a3ec:	eaffffee 	b	10a3ac <__jis_mbtowc+0x134>
  10a3f0:	e04e5000 	sub	r5, lr, r0
  10a3f4:	eaffffec 	b	10a3ac <__jis_mbtowc+0x134>
  10a3f8:	e3a06006 	mov	r6, #6
  10a3fc:	eaffffc0 	b	10a304 <__jis_mbtowc+0x8c>
  10a400:	e3a0308a 	mov	r3, #138	; 0x8a
  10a404:	e3e00000 	mvn	r0, #0
  10a408:	e58a3000 	str	r3, [sl]
  10a40c:	e28dd00c 	add	sp, sp, #12
  10a410:	e8bd8ff0 	pop	{r4, r5, r6, r7, r8, r9, sl, fp, pc}
  10a414:	e3a06002 	mov	r6, #2
  10a418:	eaffffb9 	b	10a304 <__jis_mbtowc+0x8c>
  10a41c:	00000000 	andeq	r0, r0, r0

0010a420 <memchr>:
  10a420:	f001 01ff 	and.w	r1, r1, #255	; 0xff
  10a424:	2a10      	cmp	r2, #16
  10a426:	db2b      	blt.n	10a480 <memchr+0x60>
  10a428:	f010 0f07 	tst.w	r0, #7
  10a42c:	d008      	beq.n	10a440 <memchr+0x20>
  10a42e:	f810 3b01 	ldrb.w	r3, [r0], #1
  10a432:	3a01      	subs	r2, #1
  10a434:	428b      	cmp	r3, r1
  10a436:	d02d      	beq.n	10a494 <memchr+0x74>
  10a438:	f010 0f07 	tst.w	r0, #7
  10a43c:	b342      	cbz	r2, 10a490 <memchr+0x70>
  10a43e:	d1f6      	bne.n	10a42e <memchr+0xe>
  10a440:	b4f0      	push	{r4, r5, r6, r7}
  10a442:	ea41 2101 	orr.w	r1, r1, r1, lsl #8
  10a446:	ea41 4101 	orr.w	r1, r1, r1, lsl #16
  10a44a:	f022 0407 	bic.w	r4, r2, #7
  10a44e:	f07f 0700 	mvns.w	r7, #0
  10a452:	2300      	movs	r3, #0
  10a454:	e8f0 5602 	ldrd	r5, r6, [r0], #8
  10a458:	3c08      	subs	r4, #8
  10a45a:	ea85 0501 	eor.w	r5, r5, r1
  10a45e:	ea86 0601 	eor.w	r6, r6, r1
  10a462:	fa85 f547 	uadd8	r5, r5, r7
  10a466:	faa3 f587 	sel	r5, r3, r7
  10a46a:	fa86 f647 	uadd8	r6, r6, r7
  10a46e:	faa5 f687 	sel	r6, r5, r7
  10a472:	b98e      	cbnz	r6, 10a498 <memchr+0x78>
  10a474:	d1ee      	bne.n	10a454 <memchr+0x34>
  10a476:	bcf0      	pop	{r4, r5, r6, r7}
  10a478:	f001 01ff 	and.w	r1, r1, #255	; 0xff
  10a47c:	f002 0207 	and.w	r2, r2, #7
  10a480:	b132      	cbz	r2, 10a490 <memchr+0x70>
  10a482:	f810 3b01 	ldrb.w	r3, [r0], #1
  10a486:	3a01      	subs	r2, #1
  10a488:	ea83 0301 	eor.w	r3, r3, r1
  10a48c:	b113      	cbz	r3, 10a494 <memchr+0x74>
  10a48e:	d1f8      	bne.n	10a482 <memchr+0x62>
  10a490:	2000      	movs	r0, #0
  10a492:	4770      	bx	lr
  10a494:	3801      	subs	r0, #1
  10a496:	4770      	bx	lr
  10a498:	2d00      	cmp	r5, #0
  10a49a:	bf06      	itte	eq
  10a49c:	4635      	moveq	r5, r6
  10a49e:	3803      	subeq	r0, #3
  10a4a0:	3807      	subne	r0, #7
  10a4a2:	f015 0f01 	tst.w	r5, #1
  10a4a6:	d107      	bne.n	10a4b8 <memchr+0x98>
  10a4a8:	3001      	adds	r0, #1
  10a4aa:	f415 7f80 	tst.w	r5, #256	; 0x100
  10a4ae:	bf02      	ittt	eq
  10a4b0:	3001      	addeq	r0, #1
  10a4b2:	f415 3fc0 	tsteq.w	r5, #98304	; 0x18000
  10a4b6:	3001      	addeq	r0, #1
  10a4b8:	bcf0      	pop	{r4, r5, r6, r7}
  10a4ba:	3801      	subs	r0, #1
  10a4bc:	4770      	bx	lr
  10a4be:	bf00      	nop

0010a4c0 <memmove>:
  10a4c0:	e1500001 	cmp	r0, r1
  10a4c4:	9a00000a 	bls	10a4f4 <memmove+0x34>
  10a4c8:	e0813002 	add	r3, r1, r2
  10a4cc:	e1530000 	cmp	r3, r0
  10a4d0:	9a000007 	bls	10a4f4 <memmove+0x34>
  10a4d4:	e3520000 	cmp	r2, #0
  10a4d8:	e0802002 	add	r2, r0, r2
  10a4dc:	012fff1e 	bxeq	lr
  10a4e0:	e573c001 	ldrb	ip, [r3, #-1]!
  10a4e4:	e1510003 	cmp	r1, r3
  10a4e8:	e562c001 	strb	ip, [r2, #-1]!
  10a4ec:	1afffffb 	bne	10a4e0 <memmove+0x20>
  10a4f0:	e12fff1e 	bx	lr
  10a4f4:	e352000f 	cmp	r2, #15
  10a4f8:	8a000009 	bhi	10a524 <memmove+0x64>
  10a4fc:	e3520000 	cmp	r2, #0
  10a500:	e1a03000 	mov	r3, r0
  10a504:	012fff1e 	bxeq	lr
  10a508:	e2433001 	sub	r3, r3, #1
  10a50c:	e0812002 	add	r2, r1, r2
  10a510:	e4d1c001 	ldrb	ip, [r1], #1
  10a514:	e1510002 	cmp	r1, r2
  10a518:	e5e3c001 	strb	ip, [r3, #1]!
  10a51c:	1afffffb 	bne	10a510 <memmove+0x50>
  10a520:	e12fff1e 	bx	lr
  10a524:	e1803001 	orr	r3, r0, r1
  10a528:	e3130003 	tst	r3, #3
  10a52c:	11a03000 	movne	r3, r0
  10a530:	1afffff4 	bne	10a508 <memmove+0x48>
  10a534:	e2423010 	sub	r3, r2, #16
  10a538:	e281c010 	add	ip, r1, #16
  10a53c:	e92d4070 	push	{r4, r5, r6, lr}
  10a540:	e1a03223 	lsr	r3, r3, #4
  10a544:	e2815020 	add	r5, r1, #32
  10a548:	e280e010 	add	lr, r0, #16
  10a54c:	e0855203 	add	r5, r5, r3, lsl #4
  10a550:	e51c4010 	ldr	r4, [ip, #-16]
  10a554:	e28cc010 	add	ip, ip, #16
  10a558:	e28ee010 	add	lr, lr, #16
  10a55c:	e50e4020 	str	r4, [lr, #-32]	; 0xffffffe0
  10a560:	e51c401c 	ldr	r4, [ip, #-28]	; 0xffffffe4
  10a564:	e50e401c 	str	r4, [lr, #-28]	; 0xffffffe4
  10a568:	e51c4018 	ldr	r4, [ip, #-24]	; 0xffffffe8
  10a56c:	e50e4018 	str	r4, [lr, #-24]	; 0xffffffe8
  10a570:	e51c4014 	ldr	r4, [ip, #-20]	; 0xffffffec
  10a574:	e15c0005 	cmp	ip, r5
  10a578:	e50e4014 	str	r4, [lr, #-20]	; 0xffffffec
  10a57c:	1afffff3 	bne	10a550 <memmove+0x90>
  10a580:	e202e00f 	and	lr, r2, #15
  10a584:	e2833001 	add	r3, r3, #1
  10a588:	e35e0003 	cmp	lr, #3
  10a58c:	e1a03203 	lsl	r3, r3, #4
  10a590:	e0811003 	add	r1, r1, r3
  10a594:	91a0200e 	movls	r2, lr
  10a598:	e0803003 	add	r3, r0, r3
  10a59c:	9a00000d 	bls	10a5d8 <memmove+0x118>
  10a5a0:	e2435004 	sub	r5, r3, #4
  10a5a4:	e1a04001 	mov	r4, r1
  10a5a8:	e1a0c00e 	mov	ip, lr
  10a5ac:	e24cc004 	sub	ip, ip, #4
  10a5b0:	e4946004 	ldr	r6, [r4], #4
  10a5b4:	e35c0003 	cmp	ip, #3
  10a5b8:	e5a56004 	str	r6, [r5, #4]!
  10a5bc:	8afffffa 	bhi	10a5ac <memmove+0xec>
  10a5c0:	e24ec004 	sub	ip, lr, #4
  10a5c4:	e2022003 	and	r2, r2, #3
  10a5c8:	e3ccc003 	bic	ip, ip, #3
  10a5cc:	e28cc004 	add	ip, ip, #4
  10a5d0:	e083300c 	add	r3, r3, ip
  10a5d4:	e081100c 	add	r1, r1, ip
  10a5d8:	e3520000 	cmp	r2, #0
  10a5dc:	08bd8070 	popeq	{r4, r5, r6, pc}
  10a5e0:	e2433001 	sub	r3, r3, #1
  10a5e4:	e0812002 	add	r2, r1, r2
  10a5e8:	e4d1c001 	ldrb	ip, [r1], #1
  10a5ec:	e1510002 	cmp	r1, r2
  10a5f0:	e5e3c001 	strb	ip, [r3, #1]!
  10a5f4:	1afffffb 	bne	10a5e8 <memmove+0x128>
  10a5f8:	e8bd8070 	pop	{r4, r5, r6, pc}

0010a5fc <memset>:
  10a5fc:	e3100003 	tst	r0, #3
  10a600:	0a00003f 	beq	10a704 <memset+0x108>
  10a604:	e3520000 	cmp	r2, #0
  10a608:	e2422001 	sub	r2, r2, #1
  10a60c:	012fff1e 	bxeq	lr
  10a610:	e6efc071 	uxtb	ip, r1
  10a614:	e1a03000 	mov	r3, r0
  10a618:	ea000002 	b	10a628 <memset+0x2c>
  10a61c:	e2422001 	sub	r2, r2, #1
  10a620:	e3720001 	cmn	r2, #1
  10a624:	012fff1e 	bxeq	lr
  10a628:	e4c3c001 	strb	ip, [r3], #1
  10a62c:	e3130003 	tst	r3, #3
  10a630:	1afffff9 	bne	10a61c <memset+0x20>
  10a634:	e3520003 	cmp	r2, #3
  10a638:	9a000029 	bls	10a6e4 <memset+0xe8>
  10a63c:	e92d4030 	push	{r4, r5, lr}
  10a640:	e6efe071 	uxtb	lr, r1
  10a644:	e352000f 	cmp	r2, #15
  10a648:	e18ee40e 	orr	lr, lr, lr, lsl #8
  10a64c:	e18ee80e 	orr	lr, lr, lr, lsl #16
  10a650:	9a000010 	bls	10a698 <memset+0x9c>
  10a654:	e2425010 	sub	r5, r2, #16
  10a658:	e2834020 	add	r4, r3, #32
  10a65c:	e283c010 	add	ip, r3, #16
  10a660:	e1a05225 	lsr	r5, r5, #4
  10a664:	e0844205 	add	r4, r4, r5, lsl #4
  10a668:	e50ce010 	str	lr, [ip, #-16]
  10a66c:	e28cc010 	add	ip, ip, #16
  10a670:	e50ce01c 	str	lr, [ip, #-28]	; 0xffffffe4
  10a674:	e50ce018 	str	lr, [ip, #-24]	; 0xffffffe8
  10a678:	e50ce014 	str	lr, [ip, #-20]	; 0xffffffec
  10a67c:	e15c0004 	cmp	ip, r4
  10a680:	1afffff8 	bne	10a668 <memset+0x6c>
  10a684:	e202200f 	and	r2, r2, #15
  10a688:	e2855001 	add	r5, r5, #1
  10a68c:	e3520003 	cmp	r2, #3
  10a690:	e0833205 	add	r3, r3, r5, lsl #4
  10a694:	9a00000a 	bls	10a6c4 <memset+0xc8>
  10a698:	e2424004 	sub	r4, r2, #4
  10a69c:	e2835004 	add	r5, r3, #4
  10a6a0:	e1a0c003 	mov	ip, r3
  10a6a4:	e1a04124 	lsr	r4, r4, #2
  10a6a8:	e0855104 	add	r5, r5, r4, lsl #2
  10a6ac:	e48ce004 	str	lr, [ip], #4
  10a6b0:	e15c0005 	cmp	ip, r5
  10a6b4:	1afffffc 	bne	10a6ac <memset+0xb0>
  10a6b8:	e2844001 	add	r4, r4, #1
  10a6bc:	e2022003 	and	r2, r2, #3
  10a6c0:	e0833104 	add	r3, r3, r4, lsl #2
  10a6c4:	e3520000 	cmp	r2, #0
  10a6c8:	08bd8030 	popeq	{r4, r5, pc}
  10a6cc:	e6ef1071 	uxtb	r1, r1
  10a6d0:	e0832002 	add	r2, r3, r2
  10a6d4:	e4c31001 	strb	r1, [r3], #1
  10a6d8:	e1520003 	cmp	r2, r3
  10a6dc:	1afffffc 	bne	10a6d4 <memset+0xd8>
  10a6e0:	e8bd8030 	pop	{r4, r5, pc}
  10a6e4:	e3520000 	cmp	r2, #0
  10a6e8:	012fff1e 	bxeq	lr
  10a6ec:	e6ef1071 	uxtb	r1, r1
  10a6f0:	e0832002 	add	r2, r3, r2
  10a6f4:	e4c31001 	strb	r1, [r3], #1
  10a6f8:	e1520003 	cmp	r2, r3
  10a6fc:	1afffffc 	bne	10a6f4 <memset+0xf8>
  10a700:	e12fff1e 	bx	lr
  10a704:	e1a03000 	mov	r3, r0
  10a708:	eaffffc9 	b	10a634 <memset+0x38>

0010a70c <__malloc_lock>:
  10a70c:	e12fff1e 	bx	lr

0010a710 <__malloc_unlock>:
  10a710:	e12fff1e 	bx	lr

0010a714 <_Balloc>:
  10a714:	e590304c 	ldr	r3, [r0, #76]	; 0x4c
  10a718:	e92d4070 	push	{r4, r5, r6, lr}
  10a71c:	e3530000 	cmp	r3, #0
  10a720:	e1a05000 	mov	r5, r0
  10a724:	e1a04001 	mov	r4, r1
  10a728:	0a000008 	beq	10a750 <_Balloc+0x3c>
  10a72c:	e7930104 	ldr	r0, [r3, r4, lsl #2]
  10a730:	e3500000 	cmp	r0, #0
  10a734:	0a00000e 	beq	10a774 <_Balloc+0x60>
  10a738:	e5902000 	ldr	r2, [r0]
  10a73c:	e7832104 	str	r2, [r3, r4, lsl #2]
  10a740:	e3a03000 	mov	r3, #0
  10a744:	e5803010 	str	r3, [r0, #16]
  10a748:	e580300c 	str	r3, [r0, #12]
  10a74c:	e8bd8070 	pop	{r4, r5, r6, pc}
  10a750:	e3a02021 	mov	r2, #33	; 0x21
  10a754:	e3a01004 	mov	r1, #4
  10a758:	eb000e5a 	bl	10e0c8 <_calloc_r>
  10a75c:	e3500000 	cmp	r0, #0
  10a760:	e1a03000 	mov	r3, r0
  10a764:	e585004c 	str	r0, [r5, #76]	; 0x4c
  10a768:	1affffef 	bne	10a72c <_Balloc+0x18>
  10a76c:	e3a00000 	mov	r0, #0
  10a770:	e8bd8070 	pop	{r4, r5, r6, pc}
  10a774:	e3a01001 	mov	r1, #1
  10a778:	e1a00005 	mov	r0, r5
  10a77c:	e1a05411 	lsl	r5, r1, r4
  10a780:	e2852005 	add	r2, r5, #5
  10a784:	e1a02102 	lsl	r2, r2, #2
  10a788:	eb000e4e 	bl	10e0c8 <_calloc_r>
  10a78c:	e3500000 	cmp	r0, #0
  10a790:	0afffff5 	beq	10a76c <_Balloc+0x58>
  10a794:	e1c040f4 	strd	r4, [r0, #4]
  10a798:	eaffffe8 	b	10a740 <_Balloc+0x2c>

0010a79c <_Bfree>:
  10a79c:	e3510000 	cmp	r1, #0
  10a7a0:	1590304c 	ldrne	r3, [r0, #76]	; 0x4c
  10a7a4:	15912004 	ldrne	r2, [r1, #4]
  10a7a8:	17930102 	ldrne	r0, [r3, r2, lsl #2]
  10a7ac:	15810000 	strne	r0, [r1]
  10a7b0:	17831102 	strne	r1, [r3, r2, lsl #2]
  10a7b4:	e12fff1e 	bx	lr

0010a7b8 <__multadd>:
  10a7b8:	e92d40f0 	push	{r4, r5, r6, r7, lr}
  10a7bc:	e281c014 	add	ip, r1, #20
  10a7c0:	e5914010 	ldr	r4, [r1, #16]
  10a7c4:	e24dd00c 	sub	sp, sp, #12
  10a7c8:	e1a05001 	mov	r5, r1
  10a7cc:	e1a06000 	mov	r6, r0
  10a7d0:	e3a0e000 	mov	lr, #0
  10a7d4:	e59c0000 	ldr	r0, [ip]
  10a7d8:	e28ee001 	add	lr, lr, #1
  10a7dc:	e154000e 	cmp	r4, lr
  10a7e0:	e6ff1070 	uxth	r1, r0
  10a7e4:	e1a00820 	lsr	r0, r0, #16
  10a7e8:	e0233192 	mla	r3, r2, r1, r3
  10a7ec:	e1a01823 	lsr	r1, r3, #16
  10a7f0:	e6ff3073 	uxth	r3, r3
  10a7f4:	e0201092 	mla	r0, r2, r0, r1
  10a7f8:	e0831800 	add	r1, r3, r0, lsl #16
  10a7fc:	e1a03820 	lsr	r3, r0, #16
  10a800:	e48c1004 	str	r1, [ip], #4
  10a804:	cafffff2 	bgt	10a7d4 <__multadd+0x1c>
  10a808:	e3530000 	cmp	r3, #0
  10a80c:	0a000006 	beq	10a82c <__multadd+0x74>
  10a810:	e5952008 	ldr	r2, [r5, #8]
  10a814:	e1520004 	cmp	r2, r4
  10a818:	da000006 	ble	10a838 <__multadd+0x80>
  10a81c:	e0852104 	add	r2, r5, r4, lsl #2
  10a820:	e2844001 	add	r4, r4, #1
  10a824:	e5823014 	str	r3, [r2, #20]
  10a828:	e5854010 	str	r4, [r5, #16]
  10a82c:	e1a00005 	mov	r0, r5
  10a830:	e28dd00c 	add	sp, sp, #12
  10a834:	e8bd80f0 	pop	{r4, r5, r6, r7, pc}
  10a838:	e5951004 	ldr	r1, [r5, #4]
  10a83c:	e1a00006 	mov	r0, r6
  10a840:	e58d3004 	str	r3, [sp, #4]
  10a844:	e2811001 	add	r1, r1, #1
  10a848:	ebffffb1 	bl	10a714 <_Balloc>
  10a84c:	e5952010 	ldr	r2, [r5, #16]
  10a850:	e285100c 	add	r1, r5, #12
  10a854:	e2822002 	add	r2, r2, #2
  10a858:	e1a02102 	lsl	r2, r2, #2
  10a85c:	e1a07000 	mov	r7, r0
  10a860:	e280000c 	add	r0, r0, #12
  10a864:	ebffdf15 	bl	1024c0 <memcpy>
  10a868:	e596204c 	ldr	r2, [r6, #76]	; 0x4c
  10a86c:	e5951004 	ldr	r1, [r5, #4]
  10a870:	e59d3004 	ldr	r3, [sp, #4]
  10a874:	e7920101 	ldr	r0, [r2, r1, lsl #2]
  10a878:	e5850000 	str	r0, [r5]
  10a87c:	e7825101 	str	r5, [r2, r1, lsl #2]
  10a880:	e1a05007 	mov	r5, r7
  10a884:	eaffffe4 	b	10a81c <__multadd+0x64>

0010a888 <__s2b>:
  10a888:	e92d47f0 	push	{r4, r5, r6, r7, r8, r9, sl, lr}
  10a88c:	e308ce39 	movw	ip, #36409	; 0x8e39
  10a890:	e1a05003 	mov	r5, r3
  10a894:	e343c8e3 	movt	ip, #14563	; 0x38e3
  10a898:	e2833008 	add	r3, r3, #8
  10a89c:	e1a06000 	mov	r6, r0
  10a8a0:	e1a04001 	mov	r4, r1
  10a8a4:	e1a07002 	mov	r7, r2
  10a8a8:	e0c10c93 	smull	r0, r1, r3, ip
  10a8ac:	e1a03fc3 	asr	r3, r3, #31
  10a8b0:	e59d8020 	ldr	r8, [sp, #32]
  10a8b4:	e06320c1 	rsb	r2, r3, r1, asr #1
  10a8b8:	e3520001 	cmp	r2, #1
  10a8bc:	d3a01000 	movle	r1, #0
  10a8c0:	da000005 	ble	10a8dc <__s2b+0x54>
  10a8c4:	e3a03001 	mov	r3, #1
  10a8c8:	e3a01000 	mov	r1, #0
  10a8cc:	e1a03083 	lsl	r3, r3, #1
  10a8d0:	e2811001 	add	r1, r1, #1
  10a8d4:	e1520003 	cmp	r2, r3
  10a8d8:	cafffffb 	bgt	10a8cc <__s2b+0x44>
  10a8dc:	e1a00006 	mov	r0, r6
  10a8e0:	ebffff8b 	bl	10a714 <_Balloc>
  10a8e4:	e3570009 	cmp	r7, #9
  10a8e8:	e3a03001 	mov	r3, #1
  10a8ec:	d284400a 	addle	r4, r4, #10
  10a8f0:	d3a07009 	movle	r7, #9
  10a8f4:	e5808014 	str	r8, [r0, #20]
  10a8f8:	e5803010 	str	r3, [r0, #16]
  10a8fc:	da00000c 	ble	10a934 <__s2b+0xac>
  10a900:	e2849009 	add	r9, r4, #9
  10a904:	e0844007 	add	r4, r4, r7
  10a908:	e1a08009 	mov	r8, r9
  10a90c:	e4d83001 	ldrb	r3, [r8], #1
  10a910:	e1a01000 	mov	r1, r0
  10a914:	e3a0200a 	mov	r2, #10
  10a918:	e1a00006 	mov	r0, r6
  10a91c:	e2433030 	sub	r3, r3, #48	; 0x30
  10a920:	ebffffa4 	bl	10a7b8 <__multadd>
  10a924:	e1540008 	cmp	r4, r8
  10a928:	1afffff7 	bne	10a90c <__s2b+0x84>
  10a92c:	e0894007 	add	r4, r9, r7
  10a930:	e2444008 	sub	r4, r4, #8
  10a934:	e1550007 	cmp	r5, r7
  10a938:	d8bd87f0 	pople	{r4, r5, r6, r7, r8, r9, sl, pc}
  10a93c:	e0455007 	sub	r5, r5, r7
  10a940:	e0845005 	add	r5, r4, r5
  10a944:	e4d43001 	ldrb	r3, [r4], #1
  10a948:	e1a01000 	mov	r1, r0
  10a94c:	e3a0200a 	mov	r2, #10
  10a950:	e1a00006 	mov	r0, r6
  10a954:	e2433030 	sub	r3, r3, #48	; 0x30
  10a958:	ebffff96 	bl	10a7b8 <__multadd>
  10a95c:	e1550004 	cmp	r5, r4
  10a960:	1afffff7 	bne	10a944 <__s2b+0xbc>
  10a964:	e8bd87f0 	pop	{r4, r5, r6, r7, r8, r9, sl, pc}

0010a968 <__hi0bits>:
  10a968:	e1a02820 	lsr	r2, r0, #16
  10a96c:	e1a03000 	mov	r3, r0
  10a970:	e1a02802 	lsl	r2, r2, #16
  10a974:	e3520000 	cmp	r2, #0
  10a978:	01a03800 	lsleq	r3, r0, #16
  10a97c:	13a00000 	movne	r0, #0
  10a980:	03a00010 	moveq	r0, #16
  10a984:	e31304ff 	tst	r3, #-16777216	; 0xff000000
  10a988:	01a03403 	lsleq	r3, r3, #8
  10a98c:	02800008 	addeq	r0, r0, #8
  10a990:	e313020f 	tst	r3, #-268435456	; 0xf0000000
  10a994:	01a03203 	lsleq	r3, r3, #4
  10a998:	02800004 	addeq	r0, r0, #4
  10a99c:	e3130103 	tst	r3, #-1073741824	; 0xc0000000
  10a9a0:	01a03103 	lsleq	r3, r3, #2
  10a9a4:	02800002 	addeq	r0, r0, #2
  10a9a8:	e3530000 	cmp	r3, #0
  10a9ac:	b12fff1e 	bxlt	lr
  10a9b0:	e3130101 	tst	r3, #1073741824	; 0x40000000
  10a9b4:	12800001 	addne	r0, r0, #1
  10a9b8:	03a00020 	moveq	r0, #32
  10a9bc:	e12fff1e 	bx	lr

0010a9c0 <__lo0bits>:
  10a9c0:	e5903000 	ldr	r3, [r0]
  10a9c4:	e1a01000 	mov	r1, r0
  10a9c8:	e2132007 	ands	r2, r3, #7
  10a9cc:	0a000008 	beq	10a9f4 <__lo0bits+0x34>
  10a9d0:	e3130001 	tst	r3, #1
  10a9d4:	1a00001b 	bne	10aa48 <__lo0bits+0x88>
  10a9d8:	e3130002 	tst	r3, #2
  10a9dc:	11a030a3 	lsrne	r3, r3, #1
  10a9e0:	01a03123 	lsreq	r3, r3, #2
  10a9e4:	13a00001 	movne	r0, #1
  10a9e8:	03a00002 	moveq	r0, #2
  10a9ec:	e5813000 	str	r3, [r1]
  10a9f0:	e12fff1e 	bx	lr
  10a9f4:	e6ff0073 	uxth	r0, r3
  10a9f8:	e3500000 	cmp	r0, #0
  10a9fc:	01a03823 	lsreq	r3, r3, #16
  10aa00:	03a00010 	moveq	r0, #16
  10aa04:	11a00002 	movne	r0, r2
  10aa08:	e31300ff 	tst	r3, #255	; 0xff
  10aa0c:	01a03423 	lsreq	r3, r3, #8
  10aa10:	02800008 	addeq	r0, r0, #8
  10aa14:	e313000f 	tst	r3, #15
  10aa18:	01a03223 	lsreq	r3, r3, #4
  10aa1c:	02800004 	addeq	r0, r0, #4
  10aa20:	e3130003 	tst	r3, #3
  10aa24:	01a03123 	lsreq	r3, r3, #2
  10aa28:	02800002 	addeq	r0, r0, #2
  10aa2c:	e3130001 	tst	r3, #1
  10aa30:	1a000002 	bne	10aa40 <__lo0bits+0x80>
  10aa34:	e1b030a3 	lsrs	r3, r3, #1
  10aa38:	0a000004 	beq	10aa50 <__lo0bits+0x90>
  10aa3c:	e2800001 	add	r0, r0, #1
  10aa40:	e5813000 	str	r3, [r1]
  10aa44:	e12fff1e 	bx	lr
  10aa48:	e3a00000 	mov	r0, #0
  10aa4c:	e12fff1e 	bx	lr
  10aa50:	e3a00020 	mov	r0, #32
  10aa54:	e12fff1e 	bx	lr

0010aa58 <__i2b>:
  10aa58:	e92d4010 	push	{r4, lr}
  10aa5c:	e1a04001 	mov	r4, r1
  10aa60:	e3a01001 	mov	r1, #1
  10aa64:	ebffff2a 	bl	10a714 <_Balloc>
  10aa68:	e3a02001 	mov	r2, #1
  10aa6c:	e5804014 	str	r4, [r0, #20]
  10aa70:	e5802010 	str	r2, [r0, #16]
  10aa74:	e8bd8010 	pop	{r4, pc}

0010aa78 <__multiply>:
  10aa78:	e92d4ff0 	push	{r4, r5, r6, r7, r8, r9, sl, fp, lr}
  10aa7c:	e24dd014 	sub	sp, sp, #20
  10aa80:	e5913010 	ldr	r3, [r1, #16]
  10aa84:	e5924010 	ldr	r4, [r2, #16]
  10aa88:	e1530004 	cmp	r3, r4
  10aa8c:	b1a05002 	movlt	r5, r2
  10aa90:	a1a05001 	movge	r5, r1
  10aa94:	a1a08003 	movge	r8, r3
  10aa98:	b1a08004 	movlt	r8, r4
  10aa9c:	b1a04003 	movlt	r4, r3
  10aaa0:	e5953008 	ldr	r3, [r5, #8]
  10aaa4:	b1a09001 	movlt	r9, r1
  10aaa8:	e0887004 	add	r7, r8, r4
  10aaac:	e5951004 	ldr	r1, [r5, #4]
  10aab0:	a1a09002 	movge	r9, r2
  10aab4:	e1530007 	cmp	r3, r7
  10aab8:	b2811001 	addlt	r1, r1, #1
  10aabc:	ebffff14 	bl	10a714 <_Balloc>
  10aac0:	e280b014 	add	fp, r0, #20
  10aac4:	e58d0004 	str	r0, [sp, #4]
  10aac8:	e08ba107 	add	sl, fp, r7, lsl #2
  10aacc:	e15b000a 	cmp	fp, sl
  10aad0:	2a000004 	bcs	10aae8 <__multiply+0x70>
  10aad4:	e1a0300b 	mov	r3, fp
  10aad8:	e3a02000 	mov	r2, #0
  10aadc:	e4832004 	str	r2, [r3], #4
  10aae0:	e15a0003 	cmp	sl, r3
  10aae4:	8afffffc 	bhi	10aadc <__multiply+0x64>
  10aae8:	e2893014 	add	r3, r9, #20
  10aaec:	e2852014 	add	r2, r5, #20
  10aaf0:	e0834104 	add	r4, r3, r4, lsl #2
  10aaf4:	e0828108 	add	r8, r2, r8, lsl #2
  10aaf8:	e1530004 	cmp	r3, r4
  10aafc:	2a000033 	bcs	10abd0 <__multiply+0x158>
  10ab00:	e0444009 	sub	r4, r4, r9
  10ab04:	e58da008 	str	sl, [sp, #8]
  10ab08:	e2444015 	sub	r4, r4, #21
  10ab0c:	e58d700c 	str	r7, [sp, #12]
  10ab10:	e3c44003 	bic	r4, r4, #3
  10ab14:	e2899010 	add	r9, r9, #16
  10ab18:	e0833004 	add	r3, r3, r4
  10ab1c:	e1a07002 	mov	r7, r2
  10ab20:	e1a0a003 	mov	sl, r3
  10ab24:	ea000002 	b	10ab34 <__multiply+0xbc>
  10ab28:	e15a0009 	cmp	sl, r9
  10ab2c:	e28bb004 	add	fp, fp, #4
  10ab30:	0a000024 	beq	10abc8 <__multiply+0x150>
  10ab34:	e5b90004 	ldr	r0, [r9, #4]!
  10ab38:	e6ff6070 	uxth	r6, r0
  10ab3c:	e3560000 	cmp	r6, #0
  10ab40:	11a05007 	movne	r5, r7
  10ab44:	11a0400b 	movne	r4, fp
  10ab48:	13a02000 	movne	r2, #0
  10ab4c:	1a000031 	bne	10ac18 <__multiply+0x1a0>
  10ab50:	e1b00820 	lsrs	r0, r0, #16
  10ab54:	0afffff3 	beq	10ab28 <__multiply+0xb0>
  10ab58:	e59b3000 	ldr	r3, [fp]
  10ab5c:	e1a0c007 	mov	ip, r7
  10ab60:	e1a0400b 	mov	r4, fp
  10ab64:	e3a05000 	mov	r5, #0
  10ab68:	e1a02003 	mov	r2, r3
  10ab6c:	ea000000 	b	10ab74 <__multiply+0xfc>
  10ab70:	e1a04001 	mov	r4, r1
  10ab74:	e1dce0b0 	ldrh	lr, [ip]
  10ab78:	e1a02822 	lsr	r2, r2, #16
  10ab7c:	e6ff3073 	uxth	r3, r3
  10ab80:	e1a01004 	mov	r1, r4
  10ab84:	e0222e90 	mla	r2, r0, lr, r2
  10ab88:	e0825005 	add	r5, r2, r5
  10ab8c:	e1833805 	orr	r3, r3, r5, lsl #16
  10ab90:	e4813004 	str	r3, [r1], #4
  10ab94:	e49c3004 	ldr	r3, [ip], #4
  10ab98:	e5942004 	ldr	r2, [r4, #4]
  10ab9c:	e158000c 	cmp	r8, ip
  10aba0:	e1a03823 	lsr	r3, r3, #16
  10aba4:	e6ffe072 	uxth	lr, r2
  10aba8:	e023e390 	mla	r3, r0, r3, lr
  10abac:	e0833825 	add	r3, r3, r5, lsr #16
  10abb0:	e1a05823 	lsr	r5, r3, #16
  10abb4:	8affffed 	bhi	10ab70 <__multiply+0xf8>
  10abb8:	e15a0009 	cmp	sl, r9
  10abbc:	e5843004 	str	r3, [r4, #4]
  10abc0:	e28bb004 	add	fp, fp, #4
  10abc4:	1affffda 	bne	10ab34 <__multiply+0xbc>
  10abc8:	e59da008 	ldr	sl, [sp, #8]
  10abcc:	e59d700c 	ldr	r7, [sp, #12]
  10abd0:	e3570000 	cmp	r7, #0
  10abd4:	da000009 	ble	10ac00 <__multiply+0x188>
  10abd8:	e51a3004 	ldr	r3, [sl, #-4]
  10abdc:	e24aa004 	sub	sl, sl, #4
  10abe0:	e3530000 	cmp	r3, #0
  10abe4:	0a000003 	beq	10abf8 <__multiply+0x180>
  10abe8:	ea000004 	b	10ac00 <__multiply+0x188>
  10abec:	e53a3004 	ldr	r3, [sl, #-4]!
  10abf0:	e3530000 	cmp	r3, #0
  10abf4:	1a000001 	bne	10ac00 <__multiply+0x188>
  10abf8:	e2577001 	subs	r7, r7, #1
  10abfc:	1afffffa 	bne	10abec <__multiply+0x174>
  10ac00:	e59d3004 	ldr	r3, [sp, #4]
  10ac04:	e1a00003 	mov	r0, r3
  10ac08:	e5837010 	str	r7, [r3, #16]
  10ac0c:	e28dd014 	add	sp, sp, #20
  10ac10:	e8bd8ff0 	pop	{r4, r5, r6, r7, r8, r9, sl, fp, pc}
  10ac14:	e1a04000 	mov	r4, r0
  10ac18:	e4951004 	ldr	r1, [r5], #4
  10ac1c:	e1a00004 	mov	r0, r4
  10ac20:	e594c000 	ldr	ip, [r4]
  10ac24:	e1580005 	cmp	r8, r5
  10ac28:	e6ff3071 	uxth	r3, r1
  10ac2c:	e1a01821 	lsr	r1, r1, #16
  10ac30:	e6ffe07c 	uxth	lr, ip
  10ac34:	e1a0c82c 	lsr	ip, ip, #16
  10ac38:	e023e396 	mla	r3, r6, r3, lr
  10ac3c:	e021c196 	mla	r1, r6, r1, ip
  10ac40:	e0833002 	add	r3, r3, r2
  10ac44:	e0812823 	add	r2, r1, r3, lsr #16
  10ac48:	e6ff3073 	uxth	r3, r3
  10ac4c:	e1831802 	orr	r1, r3, r2, lsl #16
  10ac50:	e1a02822 	lsr	r2, r2, #16
  10ac54:	e4801004 	str	r1, [r0], #4
  10ac58:	8affffed 	bhi	10ac14 <__multiply+0x19c>
  10ac5c:	e5842004 	str	r2, [r4, #4]
  10ac60:	e5990000 	ldr	r0, [r9]
  10ac64:	e1b00820 	lsrs	r0, r0, #16
  10ac68:	0affffae 	beq	10ab28 <__multiply+0xb0>
  10ac6c:	eaffffb9 	b	10ab58 <__multiply+0xe0>

0010ac70 <__pow5mult>:
  10ac70:	e2123003 	ands	r3, r2, #3
  10ac74:	e92d41f0 	push	{r4, r5, r6, r7, r8, lr}
  10ac78:	e1a04002 	mov	r4, r2
  10ac7c:	e1a07000 	mov	r7, r0
  10ac80:	01a05001 	moveq	r5, r1
  10ac84:	1a000024 	bne	10ad1c <__pow5mult+0xac>
  10ac88:	e1b04144 	asrs	r4, r4, #2
  10ac8c:	0a000019 	beq	10acf8 <__pow5mult+0x88>
  10ac90:	e5976048 	ldr	r6, [r7, #72]	; 0x48
  10ac94:	e3560000 	cmp	r6, #0
  10ac98:	0a000027 	beq	10ad3c <__pow5mult+0xcc>
  10ac9c:	e3a08000 	mov	r8, #0
  10aca0:	ea000005 	b	10acbc <__pow5mult+0x4c>
  10aca4:	e1b040c4 	asrs	r4, r4, #1
  10aca8:	0a000012 	beq	10acf8 <__pow5mult+0x88>
  10acac:	e5960000 	ldr	r0, [r6]
  10acb0:	e3500000 	cmp	r0, #0
  10acb4:	0a000011 	beq	10ad00 <__pow5mult+0x90>
  10acb8:	e1a06000 	mov	r6, r0
  10acbc:	e3140001 	tst	r4, #1
  10acc0:	0afffff7 	beq	10aca4 <__pow5mult+0x34>
  10acc4:	e1a02006 	mov	r2, r6
  10acc8:	e1a01005 	mov	r1, r5
  10accc:	e1a00007 	mov	r0, r7
  10acd0:	ebffff68 	bl	10aa78 <__multiply>
  10acd4:	e3550000 	cmp	r5, #0
  10acd8:	15952004 	ldrne	r2, [r5, #4]
  10acdc:	1597304c 	ldrne	r3, [r7, #76]	; 0x4c
  10ace0:	17931102 	ldrne	r1, [r3, r2, lsl #2]
  10ace4:	15851000 	strne	r1, [r5]
  10ace8:	17835102 	strne	r5, [r3, r2, lsl #2]
  10acec:	e1b040c4 	asrs	r4, r4, #1
  10acf0:	e1a05000 	mov	r5, r0
  10acf4:	1affffec 	bne	10acac <__pow5mult+0x3c>
  10acf8:	e1a00005 	mov	r0, r5
  10acfc:	e8bd81f0 	pop	{r4, r5, r6, r7, r8, pc}
  10ad00:	e1a02006 	mov	r2, r6
  10ad04:	e1a01006 	mov	r1, r6
  10ad08:	e1a00007 	mov	r0, r7
  10ad0c:	ebffff59 	bl	10aa78 <__multiply>
  10ad10:	e5860000 	str	r0, [r6]
  10ad14:	e5808000 	str	r8, [r0]
  10ad18:	eaffffe6 	b	10acb8 <__pow5mult+0x48>
  10ad1c:	e2432001 	sub	r2, r3, #1
  10ad20:	e30fc2d8 	movw	ip, #62168	; 0xf2d8
  10ad24:	e340c010 	movt	ip, #16
  10ad28:	e3a03000 	mov	r3, #0
  10ad2c:	e79c2102 	ldr	r2, [ip, r2, lsl #2]
  10ad30:	ebfffea0 	bl	10a7b8 <__multadd>
  10ad34:	e1a05000 	mov	r5, r0
  10ad38:	eaffffd2 	b	10ac88 <__pow5mult+0x18>
  10ad3c:	e3a01001 	mov	r1, #1
  10ad40:	e1a00007 	mov	r0, r7
  10ad44:	ebfffe72 	bl	10a714 <_Balloc>
  10ad48:	e3001271 	movw	r1, #625	; 0x271
  10ad4c:	e3a03000 	mov	r3, #0
  10ad50:	e1a06000 	mov	r6, r0
  10ad54:	e3a00001 	mov	r0, #1
  10ad58:	e1c601f0 	strd	r0, [r6, #16]
  10ad5c:	e5876048 	str	r6, [r7, #72]	; 0x48
  10ad60:	e5863000 	str	r3, [r6]
  10ad64:	eaffffcc 	b	10ac9c <__pow5mult+0x2c>

0010ad68 <__lshift>:
  10ad68:	e92d47f0 	push	{r4, r5, r6, r7, r8, r9, sl, lr}
  10ad6c:	e1a082c2 	asr	r8, r2, #5
  10ad70:	e5917010 	ldr	r7, [r1, #16]
  10ad74:	e1a05001 	mov	r5, r1
  10ad78:	e5913008 	ldr	r3, [r1, #8]
  10ad7c:	e1a09002 	mov	r9, r2
  10ad80:	e0887007 	add	r7, r8, r7
  10ad84:	e1a06000 	mov	r6, r0
  10ad88:	e2874001 	add	r4, r7, #1
  10ad8c:	e5911004 	ldr	r1, [r1, #4]
  10ad90:	e1540003 	cmp	r4, r3
  10ad94:	da000003 	ble	10ada8 <__lshift+0x40>
  10ad98:	e1a03083 	lsl	r3, r3, #1
  10ad9c:	e2811001 	add	r1, r1, #1
  10ada0:	e1540003 	cmp	r4, r3
  10ada4:	cafffffb 	bgt	10ad98 <__lshift+0x30>
  10ada8:	e1a00006 	mov	r0, r6
  10adac:	ebfffe58 	bl	10a714 <_Balloc>
  10adb0:	e3580000 	cmp	r8, #0
  10adb4:	e2803014 	add	r3, r0, #20
  10adb8:	e1a0c000 	mov	ip, r0
  10adbc:	d1a01003 	movle	r1, r3
  10adc0:	da000004 	ble	10add8 <__lshift+0x70>
  10adc4:	e0831108 	add	r1, r3, r8, lsl #2
  10adc8:	e3a02000 	mov	r2, #0
  10adcc:	e4832004 	str	r2, [r3], #4
  10add0:	e1530001 	cmp	r3, r1
  10add4:	1afffffc 	bne	10adcc <__lshift+0x64>
  10add8:	e5958010 	ldr	r8, [r5, #16]
  10addc:	e219201f 	ands	r2, r9, #31
  10ade0:	e2853014 	add	r3, r5, #20
  10ade4:	12629020 	rsbne	r9, r2, #32
  10ade8:	13a00000 	movne	r0, #0
  10adec:	e0838108 	add	r8, r3, r8, lsl #2
  10adf0:	1a00000e 	bne	10ae30 <__lshift+0xc8>
  10adf4:	e2411004 	sub	r1, r1, #4
  10adf8:	e4932004 	ldr	r2, [r3], #4
  10adfc:	e1580003 	cmp	r8, r3
  10ae00:	e5a12004 	str	r2, [r1, #4]!
  10ae04:	8afffffb 	bhi	10adf8 <__lshift+0x90>
  10ae08:	e596304c 	ldr	r3, [r6, #76]	; 0x4c
  10ae0c:	e2444001 	sub	r4, r4, #1
  10ae10:	e5952004 	ldr	r2, [r5, #4]
  10ae14:	e1a0000c 	mov	r0, ip
  10ae18:	e58c4010 	str	r4, [ip, #16]
  10ae1c:	e7931102 	ldr	r1, [r3, r2, lsl #2]
  10ae20:	e5851000 	str	r1, [r5]
  10ae24:	e7835102 	str	r5, [r3, r2, lsl #2]
  10ae28:	e8bd87f0 	pop	{r4, r5, r6, r7, r8, r9, sl, pc}
  10ae2c:	e1a0100e 	mov	r1, lr
  10ae30:	e593a000 	ldr	sl, [r3]
  10ae34:	e1a0e001 	mov	lr, r1
  10ae38:	e180021a 	orr	r0, r0, sl, lsl r2
  10ae3c:	e48e0004 	str	r0, [lr], #4
  10ae40:	e4930004 	ldr	r0, [r3], #4
  10ae44:	e1530008 	cmp	r3, r8
  10ae48:	e1a00930 	lsr	r0, r0, r9
  10ae4c:	3afffff6 	bcc	10ae2c <__lshift+0xc4>
  10ae50:	e3500000 	cmp	r0, #0
  10ae54:	e5810004 	str	r0, [r1, #4]
  10ae58:	12874002 	addne	r4, r7, #2
  10ae5c:	eaffffe9 	b	10ae08 <__lshift+0xa0>

0010ae60 <__mcmp>:
  10ae60:	e52de004 	push	{lr}		; (str lr, [sp, #-4]!)
  10ae64:	e1a0e000 	mov	lr, r0
  10ae68:	e5913010 	ldr	r3, [r1, #16]
  10ae6c:	e5900010 	ldr	r0, [r0, #16]
  10ae70:	e0500003 	subs	r0, r0, r3
  10ae74:	149df004 	popne	{pc}		; (ldrne pc, [sp], #4)
  10ae78:	e1a02103 	lsl	r2, r3, #2
  10ae7c:	e28ee014 	add	lr, lr, #20
  10ae80:	e2811014 	add	r1, r1, #20
  10ae84:	e08e3002 	add	r3, lr, r2
  10ae88:	e0811002 	add	r1, r1, r2
  10ae8c:	ea000001 	b	10ae98 <__mcmp+0x38>
  10ae90:	e15e0003 	cmp	lr, r3
  10ae94:	249df004 	popcs	{pc}		; (ldrcs pc, [sp], #4)
  10ae98:	e533c004 	ldr	ip, [r3, #-4]!
  10ae9c:	e5312004 	ldr	r2, [r1, #-4]!
  10aea0:	e15c0002 	cmp	ip, r2
  10aea4:	0afffff9 	beq	10ae90 <__mcmp+0x30>
  10aea8:	3a000001 	bcc	10aeb4 <__mcmp+0x54>
  10aeac:	e3a00001 	mov	r0, #1
  10aeb0:	e49df004 	pop	{pc}		; (ldr pc, [sp], #4)
  10aeb4:	e3e00000 	mvn	r0, #0
  10aeb8:	e49df004 	pop	{pc}		; (ldr pc, [sp], #4)

0010aebc <__mdiff>:
  10aebc:	e92d41f0 	push	{r4, r5, r6, r7, r8, lr}
  10aec0:	e1a06001 	mov	r6, r1
  10aec4:	e5918010 	ldr	r8, [r1, #16]
  10aec8:	e1a04002 	mov	r4, r2
  10aecc:	e5923010 	ldr	r3, [r2, #16]
  10aed0:	e2815014 	add	r5, r1, #20
  10aed4:	e2827014 	add	r7, r2, #20
  10aed8:	e0488003 	sub	r8, r8, r3
  10aedc:	e3580000 	cmp	r8, #0
  10aee0:	1a00003f 	bne	10afe4 <__mdiff+0x128>
  10aee4:	e1a03103 	lsl	r3, r3, #2
  10aee8:	e0852003 	add	r2, r5, r3
  10aeec:	e0873003 	add	r3, r7, r3
  10aef0:	ea000001 	b	10aefc <__mdiff+0x40>
  10aef4:	e1520005 	cmp	r2, r5
  10aef8:	9a000043 	bls	10b00c <__mdiff+0x150>
  10aefc:	e532c004 	ldr	ip, [r2, #-4]!
  10af00:	e5331004 	ldr	r1, [r3, #-4]!
  10af04:	e15c0001 	cmp	ip, r1
  10af08:	0afffff9 	beq	10aef4 <__mdiff+0x38>
  10af0c:	3a000036 	bcc	10afec <__mdiff+0x130>
  10af10:	e5961004 	ldr	r1, [r6, #4]
  10af14:	ebfffdfe 	bl	10a714 <_Balloc>
  10af18:	e5942010 	ldr	r2, [r4, #16]
  10af1c:	e5966010 	ldr	r6, [r6, #16]
  10af20:	e1a04007 	mov	r4, r7
  10af24:	e1a0e005 	mov	lr, r5
  10af28:	e3a03000 	mov	r3, #0
  10af2c:	e0877102 	add	r7, r7, r2, lsl #2
  10af30:	e0855106 	add	r5, r5, r6, lsl #2
  10af34:	e280c014 	add	ip, r0, #20
  10af38:	e580800c 	str	r8, [r0, #12]
  10af3c:	e4942004 	ldr	r2, [r4], #4
  10af40:	e49e8004 	ldr	r8, [lr], #4
  10af44:	e1570004 	cmp	r7, r4
  10af48:	e6f31078 	uxtah	r1, r3, r8
  10af4c:	e6ff3072 	uxth	r3, r2
  10af50:	e0411003 	sub	r1, r1, r3
  10af54:	e1a02822 	lsr	r2, r2, #16
  10af58:	e0623828 	rsb	r3, r2, r8, lsr #16
  10af5c:	e0833841 	add	r3, r3, r1, asr #16
  10af60:	e6ff1071 	uxth	r1, r1
  10af64:	e1811803 	orr	r1, r1, r3, lsl #16
  10af68:	e1a03843 	asr	r3, r3, #16
  10af6c:	e48c1004 	str	r1, [ip], #4
  10af70:	8afffff1 	bhi	10af3c <__mdiff+0x80>
  10af74:	e155000e 	cmp	r5, lr
  10af78:	9a000010 	bls	10afc0 <__mdiff+0x104>
  10af7c:	e1a0700c 	mov	r7, ip
  10af80:	e1a0200e 	mov	r2, lr
  10af84:	e4924004 	ldr	r4, [r2], #4
  10af88:	e1550002 	cmp	r5, r2
  10af8c:	e6f31074 	uxtah	r1, r3, r4
  10af90:	e1a03841 	asr	r3, r1, #16
  10af94:	e6ff1071 	uxth	r1, r1
  10af98:	e0833824 	add	r3, r3, r4, lsr #16
  10af9c:	e1811803 	orr	r1, r1, r3, lsl #16
  10afa0:	e1a03843 	asr	r3, r3, #16
  10afa4:	e4871004 	str	r1, [r7], #4
  10afa8:	8afffff5 	bhi	10af84 <__mdiff+0xc8>
  10afac:	e1e0e00e 	mvn	lr, lr
  10afb0:	e08e5005 	add	r5, lr, r5
  10afb4:	e3c55003 	bic	r5, r5, #3
  10afb8:	e2855004 	add	r5, r5, #4
  10afbc:	e08cc005 	add	ip, ip, r5
  10afc0:	e3510000 	cmp	r1, #0
  10afc4:	e24cc004 	sub	ip, ip, #4
  10afc8:	1a000003 	bne	10afdc <__mdiff+0x120>
  10afcc:	e53c3004 	ldr	r3, [ip, #-4]!
  10afd0:	e2466001 	sub	r6, r6, #1
  10afd4:	e3530000 	cmp	r3, #0
  10afd8:	0afffffb 	beq	10afcc <__mdiff+0x110>
  10afdc:	e5806010 	str	r6, [r0, #16]
  10afe0:	e8bd81f0 	pop	{r4, r5, r6, r7, r8, pc}
  10afe4:	a3a08000 	movge	r8, #0
  10afe8:	aaffffc8 	bge	10af10 <__mdiff+0x54>
  10afec:	e1a02005 	mov	r2, r5
  10aff0:	e1a03006 	mov	r3, r6
  10aff4:	e1a05007 	mov	r5, r7
  10aff8:	e1a06004 	mov	r6, r4
  10affc:	e1a07002 	mov	r7, r2
  10b000:	e1a04003 	mov	r4, r3
  10b004:	e3a08001 	mov	r8, #1
  10b008:	eaffffc0 	b	10af10 <__mdiff+0x54>
  10b00c:	e3a01000 	mov	r1, #0
  10b010:	ebfffdbf 	bl	10a714 <_Balloc>
  10b014:	e3a02001 	mov	r2, #1
  10b018:	e3a03000 	mov	r3, #0
  10b01c:	e1c021f0 	strd	r2, [r0, #16]
  10b020:	e8bd81f0 	pop	{r4, r5, r6, r7, r8, pc}

0010b024 <__ulp>:
  10b024:	ee102a90 	vmov	r2, s1
  10b028:	e3a03000 	mov	r3, #0
  10b02c:	e3473ff0 	movt	r3, #32752	; 0x7ff0
  10b030:	e0022003 	and	r2, r2, r3
  10b034:	e242350d 	sub	r3, r2, #54525952	; 0x3400000
  10b038:	e3530000 	cmp	r3, #0
  10b03c:	da000003 	ble	10b050 <__ulp+0x2c>
  10b040:	e3a00000 	mov	r0, #0
  10b044:	e1a01003 	mov	r1, r3
  10b048:	ec410b10 	vmov	d0, r0, r1
  10b04c:	e12fff1e 	bx	lr
  10b050:	e2633000 	rsb	r3, r3, #0
  10b054:	e1a03a43 	asr	r3, r3, #20
  10b058:	e3530013 	cmp	r3, #19
  10b05c:	da000009 	ble	10b088 <__ulp+0x64>
  10b060:	e2433014 	sub	r3, r3, #20
  10b064:	e3a01000 	mov	r1, #0
  10b068:	e353001e 	cmp	r3, #30
  10b06c:	d263301f 	rsble	r3, r3, #31
  10b070:	d3a02001 	movle	r2, #1
  10b074:	c3a03001 	movgt	r3, #1
  10b078:	d1a03312 	lslle	r3, r2, r3
  10b07c:	e1a00003 	mov	r0, r3
  10b080:	ec410b10 	vmov	d0, r0, r1
  10b084:	e12fff1e 	bx	lr
  10b088:	e3a02702 	mov	r2, #524288	; 0x80000
  10b08c:	e3a00000 	mov	r0, #0
  10b090:	e1a01352 	asr	r1, r2, r3
  10b094:	ec410b10 	vmov	d0, r0, r1
  10b098:	e12fff1e 	bx	lr

0010b09c <__b2d>:
  10b09c:	e92d41f0 	push	{r4, r5, r6, r7, r8, lr}
  10b0a0:	e2805014 	add	r5, r0, #20
  10b0a4:	e5904010 	ldr	r4, [r0, #16]
  10b0a8:	e0854104 	add	r4, r5, r4, lsl #2
  10b0ac:	e2446004 	sub	r6, r4, #4
  10b0b0:	e5147004 	ldr	r7, [r4, #-4]
  10b0b4:	e1a00007 	mov	r0, r7
  10b0b8:	ebfffe2a 	bl	10a968 <__hi0bits>
  10b0bc:	e350000a 	cmp	r0, #10
  10b0c0:	e2603020 	rsb	r3, r0, #32
  10b0c4:	e5813000 	str	r3, [r1]
  10b0c8:	ca00000b 	bgt	10b0fc <__b2d+0x60>
  10b0cc:	e1550006 	cmp	r5, r6
  10b0d0:	e260e00b 	rsb	lr, r0, #11
  10b0d4:	e3a0c000 	mov	ip, #0
  10b0d8:	e2800015 	add	r0, r0, #21
  10b0dc:	35141008 	ldrcc	r1, [r4, #-8]
  10b0e0:	e343cff0 	movt	ip, #16368	; 0x3ff0
  10b0e4:	e18c3e37 	orr	r3, ip, r7, lsr lr
  10b0e8:	23a01000 	movcs	r1, #0
  10b0ec:	31a01e31 	lsrcc	r1, r1, lr
  10b0f0:	e1812017 	orr	r2, r1, r7, lsl r0
  10b0f4:	ec432b10 	vmov	d0, r2, r3
  10b0f8:	e8bd81f0 	pop	{r4, r5, r6, r7, r8, pc}
  10b0fc:	e1550006 	cmp	r5, r6
  10b100:	e240000b 	sub	r0, r0, #11
  10b104:	2a00000f 	bcs	10b148 <__b2d+0xac>
  10b108:	e3500000 	cmp	r0, #0
  10b10c:	e5141008 	ldr	r1, [r4, #-8]
  10b110:	0a00000f 	beq	10b154 <__b2d+0xb8>
  10b114:	e2442008 	sub	r2, r4, #8
  10b118:	e3a03000 	mov	r3, #0
  10b11c:	e1550002 	cmp	r5, r2
  10b120:	e3433ff0 	movt	r3, #16368	; 0x3ff0
  10b124:	e260e020 	rsb	lr, r0, #32
  10b128:	e1837017 	orr	r7, r3, r7, lsl r0
  10b12c:	e1a0c011 	lsl	ip, r1, r0
  10b130:	e1873e31 	orr	r3, r7, r1, lsr lr
  10b134:	3514100c 	ldrcc	r1, [r4, #-12]
  10b138:	318cce31 	orrcc	ip, ip, r1, lsr lr
  10b13c:	e1a0200c 	mov	r2, ip
  10b140:	ec432b10 	vmov	d0, r2, r3
  10b144:	e8bd81f0 	pop	{r4, r5, r6, r7, r8, pc}
  10b148:	e3500000 	cmp	r0, #0
  10b14c:	01a01000 	moveq	r1, r0
  10b150:	1a000004 	bne	10b168 <__b2d+0xcc>
  10b154:	e38735ff 	orr	r3, r7, #1069547520	; 0x3fc00000
  10b158:	e1a02001 	mov	r2, r1
  10b15c:	e3833603 	orr	r3, r3, #3145728	; 0x300000
  10b160:	ec432b10 	vmov	d0, r2, r3
  10b164:	e8bd81f0 	pop	{r4, r5, r6, r7, r8, pc}
  10b168:	e3a01000 	mov	r1, #0
  10b16c:	e3431ff0 	movt	r1, #16368	; 0x3ff0
  10b170:	e3a0c000 	mov	ip, #0
  10b174:	e1813017 	orr	r3, r1, r7, lsl r0
  10b178:	eaffffef 	b	10b13c <__b2d+0xa0>

0010b17c <__d2b>:
  10b17c:	e92d43f0 	push	{r4, r5, r6, r7, r8, r9, lr}
  10b180:	e1a08001 	mov	r8, r1
  10b184:	e24dd00c 	sub	sp, sp, #12
  10b188:	e3a01001 	mov	r1, #1
  10b18c:	ec576b10 	vmov	r6, r7, d0
  10b190:	e1a05002 	mov	r5, r2
  10b194:	ebfffd5e 	bl	10a714 <_Balloc>
  10b198:	e7ea4a57 	ubfx	r4, r7, #20, #11
  10b19c:	e7f33057 	ubfx	r3, r7, #0, #20
  10b1a0:	e3540000 	cmp	r4, #0
  10b1a4:	13833601 	orrne	r3, r3, #1048576	; 0x100000
  10b1a8:	e3560000 	cmp	r6, #0
  10b1ac:	e58d3004 	str	r3, [sp, #4]
  10b1b0:	e1a09000 	mov	r9, r0
  10b1b4:	0a00001e 	beq	10b234 <__d2b+0xb8>
  10b1b8:	e28d0008 	add	r0, sp, #8
  10b1bc:	e5206008 	str	r6, [r0, #-8]!
  10b1c0:	ebfffdfe 	bl	10a9c0 <__lo0bits>
  10b1c4:	e3500000 	cmp	r0, #0
  10b1c8:	12602020 	rsbne	r2, r0, #32
  10b1cc:	159d3004 	ldrne	r3, [sp, #4]
  10b1d0:	159d1000 	ldrne	r1, [sp]
  10b1d4:	01cd20d0 	ldrdeq	r2, [sp]
  10b1d8:	11812213 	orrne	r2, r1, r3, lsl r2
  10b1dc:	11a03033 	lsrne	r3, r3, r0
  10b1e0:	15892014 	strne	r2, [r9, #20]
  10b1e4:	158d3004 	strne	r3, [sp, #4]
  10b1e8:	05892014 	streq	r2, [r9, #20]
  10b1ec:	e3530000 	cmp	r3, #0
  10b1f0:	e5893018 	str	r3, [r9, #24]
  10b1f4:	03a01001 	moveq	r1, #1
  10b1f8:	13a01002 	movne	r1, #2
  10b1fc:	e3540000 	cmp	r4, #0
  10b200:	e5891010 	str	r1, [r9, #16]
  10b204:	1a000013 	bne	10b258 <__d2b+0xdc>
  10b208:	e0893101 	add	r3, r9, r1, lsl #2
  10b20c:	e2404e43 	sub	r4, r0, #1072	; 0x430
  10b210:	e2444002 	sub	r4, r4, #2
  10b214:	e5884000 	str	r4, [r8]
  10b218:	e5930010 	ldr	r0, [r3, #16]
  10b21c:	ebfffdd1 	bl	10a968 <__hi0bits>
  10b220:	e0600281 	rsb	r0, r0, r1, lsl #5
  10b224:	e5850000 	str	r0, [r5]
  10b228:	e1a00009 	mov	r0, r9
  10b22c:	e28dd00c 	add	sp, sp, #12
  10b230:	e8bd83f0 	pop	{r4, r5, r6, r7, r8, r9, pc}
  10b234:	e28d0004 	add	r0, sp, #4
  10b238:	ebfffde0 	bl	10a9c0 <__lo0bits>
  10b23c:	e59d3004 	ldr	r3, [sp, #4]
  10b240:	e3540000 	cmp	r4, #0
  10b244:	e3a01001 	mov	r1, #1
  10b248:	e5891010 	str	r1, [r9, #16]
  10b24c:	e5893014 	str	r3, [r9, #20]
  10b250:	e2800020 	add	r0, r0, #32
  10b254:	0affffeb 	beq	10b208 <__d2b+0x8c>
  10b258:	e2444e43 	sub	r4, r4, #1072	; 0x430
  10b25c:	e2603035 	rsb	r3, r0, #53	; 0x35
  10b260:	e2444003 	sub	r4, r4, #3
  10b264:	e0844000 	add	r4, r4, r0
  10b268:	e1a00009 	mov	r0, r9
  10b26c:	e5884000 	str	r4, [r8]
  10b270:	e5853000 	str	r3, [r5]
  10b274:	e28dd00c 	add	sp, sp, #12
  10b278:	e8bd83f0 	pop	{r4, r5, r6, r7, r8, r9, pc}

0010b27c <__ratio>:
  10b27c:	e92d4030 	push	{r4, r5, lr}
  10b280:	e24dd01c 	sub	sp, sp, #28
  10b284:	e1a04001 	mov	r4, r1
  10b288:	e28d1010 	add	r1, sp, #16
  10b28c:	e1a05000 	mov	r5, r0
  10b290:	ebffff81 	bl	10b09c <__b2d>
  10b294:	e1a00004 	mov	r0, r4
  10b298:	e28d1014 	add	r1, sp, #20
  10b29c:	ed8d0b00 	vstr	d0, [sp]
  10b2a0:	ebffff7d 	bl	10b09c <__b2d>
  10b2a4:	e5940010 	ldr	r0, [r4, #16]
  10b2a8:	e5952010 	ldr	r2, [r5, #16]
  10b2ac:	e59d1014 	ldr	r1, [sp, #20]
  10b2b0:	e59d3010 	ldr	r3, [sp, #16]
  10b2b4:	e0422000 	sub	r2, r2, r0
  10b2b8:	e0433001 	sub	r3, r3, r1
  10b2bc:	e1cd00d0 	ldrd	r0, [sp]
  10b2c0:	e0833282 	add	r3, r3, r2, lsl #5
  10b2c4:	e3530000 	cmp	r3, #0
  10b2c8:	c59d2004 	ldrgt	r2, [sp, #4]
  10b2cc:	c0821a03 	addgt	r1, r2, r3, lsl #20
  10b2d0:	c1cd00f0 	strdgt	r0, [sp]
  10b2d4:	ed9d7b00 	vldr	d7, [sp]
  10b2d8:	ed8d0b02 	vstr	d0, [sp, #8]
  10b2dc:	e1cd40d8 	ldrd	r4, [sp, #8]
  10b2e0:	d59d200c 	ldrle	r2, [sp, #12]
  10b2e4:	d0425a03 	suble	r5, r2, r3, lsl #20
  10b2e8:	d1cd40f8 	strdle	r4, [sp, #8]
  10b2ec:	ed9d6b02 	vldr	d6, [sp, #8]
  10b2f0:	ee870b06 	vdiv.f64	d0, d7, d6
  10b2f4:	e28dd01c 	add	sp, sp, #28
  10b2f8:	e8bd8030 	pop	{r4, r5, pc}

0010b2fc <_mprec_log10>:
  10b2fc:	e3500017 	cmp	r0, #23
  10b300:	da000005 	ble	10b31c <_mprec_log10+0x20>
  10b304:	eeb70b00 	vmov.f64	d0, #112	; 0x3f800000  1.0
  10b308:	eeb27b04 	vmov.f64	d7, #36	; 0x41200000  10.0
  10b30c:	e2500001 	subs	r0, r0, #1
  10b310:	ee200b07 	vmul.f64	d0, d0, d7
  10b314:	1afffffc 	bne	10b30c <_mprec_log10+0x10>
  10b318:	e12fff1e 	bx	lr
  10b31c:	e30f32d8 	movw	r3, #62168	; 0xf2d8
  10b320:	e3403010 	movt	r3, #16
  10b324:	e0830180 	add	r0, r3, r0, lsl #3
  10b328:	ed900b04 	vldr	d0, [r0, #16]
  10b32c:	e12fff1e 	bx	lr

0010b330 <__copybits>:
  10b330:	e592c010 	ldr	ip, [r2, #16]
  10b334:	e2411001 	sub	r1, r1, #1
  10b338:	e2823014 	add	r3, r2, #20
  10b33c:	e1a012c1 	asr	r1, r1, #5
  10b340:	e92d4010 	push	{r4, lr}
  10b344:	e281e001 	add	lr, r1, #1
  10b348:	e083110c 	add	r1, r3, ip, lsl #2
  10b34c:	e1530001 	cmp	r3, r1
  10b350:	e080c10e 	add	ip, r0, lr, lsl #2
  10b354:	2a000009 	bcs	10b380 <__copybits+0x50>
  10b358:	e240e004 	sub	lr, r0, #4
  10b35c:	e4934004 	ldr	r4, [r3], #4
  10b360:	e1510003 	cmp	r1, r3
  10b364:	e5ae4004 	str	r4, [lr, #4]!
  10b368:	8afffffb 	bhi	10b35c <__copybits+0x2c>
  10b36c:	e0413002 	sub	r3, r1, r2
  10b370:	e2433015 	sub	r3, r3, #21
  10b374:	e3c33003 	bic	r3, r3, #3
  10b378:	e2833004 	add	r3, r3, #4
  10b37c:	e0800003 	add	r0, r0, r3
  10b380:	e15c0000 	cmp	ip, r0
  10b384:	98bd8010 	popls	{r4, pc}
  10b388:	e3a03000 	mov	r3, #0
  10b38c:	e4803004 	str	r3, [r0], #4
  10b390:	e15c0000 	cmp	ip, r0
  10b394:	8afffffc 	bhi	10b38c <__copybits+0x5c>
  10b398:	e8bd8010 	pop	{r4, pc}

0010b39c <__any_on>:
  10b39c:	e5903010 	ldr	r3, [r0, #16]
  10b3a0:	e1a0c2c1 	asr	ip, r1, #5
  10b3a4:	e2802014 	add	r2, r0, #20
  10b3a8:	e153000c 	cmp	r3, ip
  10b3ac:	b0823103 	addlt	r3, r2, r3, lsl #2
  10b3b0:	ba000001 	blt	10b3bc <__any_on+0x20>
  10b3b4:	e082310c 	add	r3, r2, ip, lsl #2
  10b3b8:	ca00000c 	bgt	10b3f0 <__any_on+0x54>
  10b3bc:	e1520003 	cmp	r2, r3
  10b3c0:	2a000011 	bcs	10b40c <__any_on+0x70>
  10b3c4:	e5130004 	ldr	r0, [r3, #-4]
  10b3c8:	e2433004 	sub	r3, r3, #4
  10b3cc:	e3500000 	cmp	r0, #0
  10b3d0:	1a000004 	bne	10b3e8 <__any_on+0x4c>
  10b3d4:	e1520003 	cmp	r2, r3
  10b3d8:	212fff1e 	bxcs	lr
  10b3dc:	e5331004 	ldr	r1, [r3, #-4]!
  10b3e0:	e3510000 	cmp	r1, #0
  10b3e4:	0afffffa 	beq	10b3d4 <__any_on+0x38>
  10b3e8:	e3a00001 	mov	r0, #1
  10b3ec:	e12fff1e 	bx	lr
  10b3f0:	e211101f 	ands	r1, r1, #31
  10b3f4:	0afffff0 	beq	10b3bc <__any_on+0x20>
  10b3f8:	e792010c 	ldr	r0, [r2, ip, lsl #2]
  10b3fc:	e1a0c130 	lsr	ip, r0, r1
  10b400:	e150011c 	cmp	r0, ip, lsl r1
  10b404:	1afffff7 	bne	10b3e8 <__any_on+0x4c>
  10b408:	eaffffeb 	b	10b3bc <__any_on+0x20>
  10b40c:	e3a00000 	mov	r0, #0
  10b410:	e12fff1e 	bx	lr

0010b414 <_realloc_r>:
  10b414:	e92d4ff0 	push	{r4, r5, r6, r7, r8, r9, sl, fp, lr}
  10b418:	e2516000 	subs	r6, r1, #0
  10b41c:	e24dd00c 	sub	sp, sp, #12
  10b420:	e1a0a002 	mov	sl, r2
  10b424:	0a00005d 	beq	10b5a0 <_realloc_r+0x18c>
  10b428:	e1a08000 	mov	r8, r0
  10b42c:	ebfffcb6 	bl	10a70c <__malloc_lock>
  10b430:	e28a400b 	add	r4, sl, #11
  10b434:	e5161004 	ldr	r1, [r6, #-4]
  10b438:	e3540016 	cmp	r4, #22
  10b43c:	e2467008 	sub	r7, r6, #8
  10b440:	83c44007 	bichi	r4, r4, #7
  10b444:	e3c15003 	bic	r5, r1, #3
  10b448:	93a02010 	movls	r2, #16
  10b44c:	93a03000 	movls	r3, #0
  10b450:	81a03fa4 	lsrhi	r3, r4, #31
  10b454:	81a02004 	movhi	r2, r4
  10b458:	91a04002 	movls	r4, r2
  10b45c:	e154000a 	cmp	r4, sl
  10b460:	33833001 	orrcc	r3, r3, #1
  10b464:	e3530000 	cmp	r3, #0
  10b468:	13a0300c 	movne	r3, #12
  10b46c:	13a0a000 	movne	sl, #0
  10b470:	15883000 	strne	r3, [r8]
  10b474:	1a00002c 	bne	10b52c <_realloc_r+0x118>
  10b478:	e1550002 	cmp	r5, r2
  10b47c:	e0879005 	add	r9, r7, r5
  10b480:	aa000036 	bge	10b560 <_realloc_r+0x14c>
  10b484:	e30fbcf0 	movw	fp, #64752	; 0xfcf0
  10b488:	e340b010 	movt	fp, #16
  10b48c:	e59b3008 	ldr	r3, [fp, #8]
  10b490:	e1530009 	cmp	r3, r9
  10b494:	0a000051 	beq	10b5e0 <_realloc_r+0x1cc>
  10b498:	e5990004 	ldr	r0, [r9, #4]
  10b49c:	e3c03001 	bic	r3, r0, #1
  10b4a0:	e0893003 	add	r3, r9, r3
  10b4a4:	e5933004 	ldr	r3, [r3, #4]
  10b4a8:	e3130001 	tst	r3, #1
  10b4ac:	0a000021 	beq	10b538 <_realloc_r+0x124>
  10b4b0:	e3110001 	tst	r1, #1
  10b4b4:	0a0000a8 	beq	10b75c <_realloc_r+0x348>
  10b4b8:	e1a0100a 	mov	r1, sl
  10b4bc:	e1a00008 	mov	r0, r8
  10b4c0:	ebfff82e 	bl	109580 <_malloc_r>
  10b4c4:	e250a000 	subs	sl, r0, #0
  10b4c8:	0a000015 	beq	10b524 <_realloc_r+0x110>
  10b4cc:	e5163004 	ldr	r3, [r6, #-4]
  10b4d0:	e24a2008 	sub	r2, sl, #8
  10b4d4:	e3c33001 	bic	r3, r3, #1
  10b4d8:	e0873003 	add	r3, r7, r3
  10b4dc:	e1530002 	cmp	r3, r2
  10b4e0:	0a0000d8 	beq	10b848 <_realloc_r+0x434>
  10b4e4:	e2452004 	sub	r2, r5, #4
  10b4e8:	e3520024 	cmp	r2, #36	; 0x24
  10b4ec:	8a0000da 	bhi	10b85c <_realloc_r+0x448>
  10b4f0:	e3520013 	cmp	r2, #19
  10b4f4:	e5961000 	ldr	r1, [r6]
  10b4f8:	91a0300a 	movls	r3, sl
  10b4fc:	91a02006 	movls	r2, r6
  10b500:	8a0000c7 	bhi	10b824 <_realloc_r+0x410>
  10b504:	e5831000 	str	r1, [r3]
  10b508:	e5921004 	ldr	r1, [r2, #4]
  10b50c:	e5831004 	str	r1, [r3, #4]
  10b510:	e5922008 	ldr	r2, [r2, #8]
  10b514:	e5832008 	str	r2, [r3, #8]
  10b518:	e1a01006 	mov	r1, r6
  10b51c:	e1a00008 	mov	r0, r8
  10b520:	ebfff239 	bl	107e0c <_free_r>
  10b524:	e1a00008 	mov	r0, r8
  10b528:	ebfffc78 	bl	10a710 <__malloc_unlock>
  10b52c:	e1a0000a 	mov	r0, sl
  10b530:	e28dd00c 	add	sp, sp, #12
  10b534:	e8bd8ff0 	pop	{r4, r5, r6, r7, r8, r9, sl, fp, pc}
  10b538:	e3c00003 	bic	r0, r0, #3
  10b53c:	e0853000 	add	r3, r5, r0
  10b540:	e1530002 	cmp	r3, r2
  10b544:	ba000066 	blt	10b6e4 <_realloc_r+0x2d0>
  10b548:	e599200c 	ldr	r2, [r9, #12]
  10b54c:	e1a05003 	mov	r5, r3
  10b550:	e5991008 	ldr	r1, [r9, #8]
  10b554:	e0879003 	add	r9, r7, r3
  10b558:	e581200c 	str	r2, [r1, #12]
  10b55c:	e5821008 	str	r1, [r2, #8]
  10b560:	e0452004 	sub	r2, r5, r4
  10b564:	e5973004 	ldr	r3, [r7, #4]
  10b568:	e352000f 	cmp	r2, #15
  10b56c:	e2033001 	and	r3, r3, #1
  10b570:	8a00000e 	bhi	10b5b0 <_realloc_r+0x19c>
  10b574:	e1853003 	orr	r3, r5, r3
  10b578:	e5873004 	str	r3, [r7, #4]
  10b57c:	e5993004 	ldr	r3, [r9, #4]
  10b580:	e3833001 	orr	r3, r3, #1
  10b584:	e5893004 	str	r3, [r9, #4]
  10b588:	e1a00008 	mov	r0, r8
  10b58c:	e1a0a006 	mov	sl, r6
  10b590:	ebfffc5e 	bl	10a710 <__malloc_unlock>
  10b594:	e1a0000a 	mov	r0, sl
  10b598:	e28dd00c 	add	sp, sp, #12
  10b59c:	e8bd8ff0 	pop	{r4, r5, r6, r7, r8, r9, sl, fp, pc}
  10b5a0:	e1a01002 	mov	r1, r2
  10b5a4:	e28dd00c 	add	sp, sp, #12
  10b5a8:	e8bd4ff0 	pop	{r4, r5, r6, r7, r8, r9, sl, fp, lr}
  10b5ac:	eafff7f3 	b	109580 <_malloc_r>
  10b5b0:	e0871004 	add	r1, r7, r4
  10b5b4:	e1843003 	orr	r3, r4, r3
  10b5b8:	e3822001 	orr	r2, r2, #1
  10b5bc:	e5873004 	str	r3, [r7, #4]
  10b5c0:	e5812004 	str	r2, [r1, #4]
  10b5c4:	e1a00008 	mov	r0, r8
  10b5c8:	e5993004 	ldr	r3, [r9, #4]
  10b5cc:	e2811008 	add	r1, r1, #8
  10b5d0:	e3833001 	orr	r3, r3, #1
  10b5d4:	e5893004 	str	r3, [r9, #4]
  10b5d8:	ebfff20b 	bl	107e0c <_free_r>
  10b5dc:	eaffffe9 	b	10b588 <_realloc_r+0x174>
  10b5e0:	e5939004 	ldr	r9, [r3, #4]
  10b5e4:	e2840010 	add	r0, r4, #16
  10b5e8:	e3c99003 	bic	r9, r9, #3
  10b5ec:	e0899005 	add	r9, r9, r5
  10b5f0:	e1590000 	cmp	r9, r0
  10b5f4:	aa00009b 	bge	10b868 <_realloc_r+0x454>
  10b5f8:	e3110001 	tst	r1, #1
  10b5fc:	1affffad 	bne	10b4b8 <_realloc_r+0xa4>
  10b600:	e5163008 	ldr	r3, [r6, #-8]
  10b604:	e0473003 	sub	r3, r7, r3
  10b608:	e5931004 	ldr	r1, [r3, #4]
  10b60c:	e3c11003 	bic	r1, r1, #3
  10b610:	e0899001 	add	r9, r9, r1
  10b614:	e1500009 	cmp	r0, r9
  10b618:	ca000053 	bgt	10b76c <_realloc_r+0x358>
  10b61c:	e1a0a003 	mov	sl, r3
  10b620:	e593100c 	ldr	r1, [r3, #12]
  10b624:	e5ba0008 	ldr	r0, [sl, #8]!
  10b628:	e2452004 	sub	r2, r5, #4
  10b62c:	e3520024 	cmp	r2, #36	; 0x24
  10b630:	e580100c 	str	r1, [r0, #12]
  10b634:	e5810008 	str	r0, [r1, #8]
  10b638:	8a0000a7 	bhi	10b8dc <_realloc_r+0x4c8>
  10b63c:	e3520013 	cmp	r2, #19
  10b640:	e5961000 	ldr	r1, [r6]
  10b644:	91a0200a 	movls	r2, sl
  10b648:	9a000014 	bls	10b6a0 <_realloc_r+0x28c>
  10b64c:	e5831008 	str	r1, [r3, #8]
  10b650:	e352001b 	cmp	r2, #27
  10b654:	e5961004 	ldr	r1, [r6, #4]
  10b658:	92832010 	addls	r2, r3, #16
  10b65c:	e583100c 	str	r1, [r3, #12]
  10b660:	e5961008 	ldr	r1, [r6, #8]
  10b664:	92866008 	addls	r6, r6, #8
  10b668:	9a00000c 	bls	10b6a0 <_realloc_r+0x28c>
  10b66c:	e3520024 	cmp	r2, #36	; 0x24
  10b670:	e5831010 	str	r1, [r3, #16]
  10b674:	e596200c 	ldr	r2, [r6, #12]
  10b678:	e5832014 	str	r2, [r3, #20]
  10b67c:	12832018 	addne	r2, r3, #24
  10b680:	e5961010 	ldr	r1, [r6, #16]
  10b684:	02832020 	addeq	r2, r3, #32
  10b688:	12866010 	addne	r6, r6, #16
  10b68c:	05831018 	streq	r1, [r3, #24]
  10b690:	05961014 	ldreq	r1, [r6, #20]
  10b694:	0583101c 	streq	r1, [r3, #28]
  10b698:	05961018 	ldreq	r1, [r6, #24]
  10b69c:	02866018 	addeq	r6, r6, #24
  10b6a0:	e5821000 	str	r1, [r2]
  10b6a4:	e5961004 	ldr	r1, [r6, #4]
  10b6a8:	e5821004 	str	r1, [r2, #4]
  10b6ac:	e5961008 	ldr	r1, [r6, #8]
  10b6b0:	e5821008 	str	r1, [r2, #8]
  10b6b4:	e0832004 	add	r2, r3, r4
  10b6b8:	e0499004 	sub	r9, r9, r4
  10b6bc:	e58b2008 	str	r2, [fp, #8]
  10b6c0:	e3899001 	orr	r9, r9, #1
  10b6c4:	e5829004 	str	r9, [r2, #4]
  10b6c8:	e1a00008 	mov	r0, r8
  10b6cc:	e5932004 	ldr	r2, [r3, #4]
  10b6d0:	e2022001 	and	r2, r2, #1
  10b6d4:	e1824004 	orr	r4, r2, r4
  10b6d8:	e5834004 	str	r4, [r3, #4]
  10b6dc:	ebfffc0b 	bl	10a710 <__malloc_unlock>
  10b6e0:	eaffff91 	b	10b52c <_realloc_r+0x118>
  10b6e4:	e3110001 	tst	r1, #1
  10b6e8:	1affff72 	bne	10b4b8 <_realloc_r+0xa4>
  10b6ec:	e5163008 	ldr	r3, [r6, #-8]
  10b6f0:	e0473003 	sub	r3, r7, r3
  10b6f4:	e5931004 	ldr	r1, [r3, #4]
  10b6f8:	e3c11003 	bic	r1, r1, #3
  10b6fc:	e0810000 	add	r0, r1, r0
  10b700:	e080c005 	add	ip, r0, r5
  10b704:	e15c0002 	cmp	ip, r2
  10b708:	ba000017 	blt	10b76c <_realloc_r+0x358>
  10b70c:	e599100c 	ldr	r1, [r9, #12]
  10b710:	e1a0a003 	mov	sl, r3
  10b714:	e5990008 	ldr	r0, [r9, #8]
  10b718:	e2452004 	sub	r2, r5, #4
  10b71c:	e3520024 	cmp	r2, #36	; 0x24
  10b720:	e083900c 	add	r9, r3, ip
  10b724:	e580100c 	str	r1, [r0, #12]
  10b728:	e5810008 	str	r0, [r1, #8]
  10b72c:	e593100c 	ldr	r1, [r3, #12]
  10b730:	e5ba0008 	ldr	r0, [sl, #8]!
  10b734:	e580100c 	str	r1, [r0, #12]
  10b738:	e5810008 	str	r0, [r1, #8]
  10b73c:	9a000016 	bls	10b79c <_realloc_r+0x388>
  10b740:	e1a01006 	mov	r1, r6
  10b744:	e1a0000a 	mov	r0, sl
  10b748:	e1a0500c 	mov	r5, ip
  10b74c:	e1a07003 	mov	r7, r3
  10b750:	e1a0600a 	mov	r6, sl
  10b754:	ebfffb59 	bl	10a4c0 <memmove>
  10b758:	eaffff80 	b	10b560 <_realloc_r+0x14c>
  10b75c:	e5163008 	ldr	r3, [r6, #-8]
  10b760:	e0473003 	sub	r3, r7, r3
  10b764:	e5931004 	ldr	r1, [r3, #4]
  10b768:	e3c11003 	bic	r1, r1, #3
  10b76c:	e085c001 	add	ip, r5, r1
  10b770:	e15c0002 	cmp	ip, r2
  10b774:	baffff4f 	blt	10b4b8 <_realloc_r+0xa4>
  10b778:	e1a0a003 	mov	sl, r3
  10b77c:	e593100c 	ldr	r1, [r3, #12]
  10b780:	e5ba0008 	ldr	r0, [sl, #8]!
  10b784:	e2452004 	sub	r2, r5, #4
  10b788:	e3520024 	cmp	r2, #36	; 0x24
  10b78c:	e083900c 	add	r9, r3, ip
  10b790:	e580100c 	str	r1, [r0, #12]
  10b794:	e5810008 	str	r0, [r1, #8]
  10b798:	8affffe8 	bhi	10b740 <_realloc_r+0x32c>
  10b79c:	e3520013 	cmp	r2, #19
  10b7a0:	e5961000 	ldr	r1, [r6]
  10b7a4:	91a0200a 	movls	r2, sl
  10b7a8:	9a000014 	bls	10b800 <_realloc_r+0x3ec>
  10b7ac:	e5831008 	str	r1, [r3, #8]
  10b7b0:	e352001b 	cmp	r2, #27
  10b7b4:	e5961004 	ldr	r1, [r6, #4]
  10b7b8:	92832010 	addls	r2, r3, #16
  10b7bc:	e583100c 	str	r1, [r3, #12]
  10b7c0:	e5961008 	ldr	r1, [r6, #8]
  10b7c4:	92866008 	addls	r6, r6, #8
  10b7c8:	9a00000c 	bls	10b800 <_realloc_r+0x3ec>
  10b7cc:	e3520024 	cmp	r2, #36	; 0x24
  10b7d0:	e5831010 	str	r1, [r3, #16]
  10b7d4:	e596200c 	ldr	r2, [r6, #12]
  10b7d8:	e5832014 	str	r2, [r3, #20]
  10b7dc:	12832018 	addne	r2, r3, #24
  10b7e0:	e5961010 	ldr	r1, [r6, #16]
  10b7e4:	02832020 	addeq	r2, r3, #32
  10b7e8:	12866010 	addne	r6, r6, #16
  10b7ec:	05831018 	streq	r1, [r3, #24]
  10b7f0:	05961014 	ldreq	r1, [r6, #20]
  10b7f4:	0583101c 	streq	r1, [r3, #28]
  10b7f8:	05961018 	ldreq	r1, [r6, #24]
  10b7fc:	02866018 	addeq	r6, r6, #24
  10b800:	e5821000 	str	r1, [r2]
  10b804:	e1a07003 	mov	r7, r3
  10b808:	e5961004 	ldr	r1, [r6, #4]
  10b80c:	e1a0500c 	mov	r5, ip
  10b810:	e5821004 	str	r1, [r2, #4]
  10b814:	e5963008 	ldr	r3, [r6, #8]
  10b818:	e1a0600a 	mov	r6, sl
  10b81c:	e5823008 	str	r3, [r2, #8]
  10b820:	eaffff4e 	b	10b560 <_realloc_r+0x14c>
  10b824:	e58a1000 	str	r1, [sl]
  10b828:	e352001b 	cmp	r2, #27
  10b82c:	e5963004 	ldr	r3, [r6, #4]
  10b830:	e58a3004 	str	r3, [sl, #4]
  10b834:	8a000018 	bhi	10b89c <_realloc_r+0x488>
  10b838:	e2862008 	add	r2, r6, #8
  10b83c:	e28a3008 	add	r3, sl, #8
  10b840:	e5961008 	ldr	r1, [r6, #8]
  10b844:	eaffff2e 	b	10b504 <_realloc_r+0xf0>
  10b848:	e51a3004 	ldr	r3, [sl, #-4]
  10b84c:	e3c33003 	bic	r3, r3, #3
  10b850:	e0855003 	add	r5, r5, r3
  10b854:	e0879005 	add	r9, r7, r5
  10b858:	eaffff40 	b	10b560 <_realloc_r+0x14c>
  10b85c:	e1a01006 	mov	r1, r6
  10b860:	ebfffb16 	bl	10a4c0 <memmove>
  10b864:	eaffff2b 	b	10b518 <_realloc_r+0x104>
  10b868:	e0877004 	add	r7, r7, r4
  10b86c:	e0499004 	sub	r9, r9, r4
  10b870:	e58b7008 	str	r7, [fp, #8]
  10b874:	e3899001 	orr	r9, r9, #1
  10b878:	e5879004 	str	r9, [r7, #4]
  10b87c:	e1a00008 	mov	r0, r8
  10b880:	e5163004 	ldr	r3, [r6, #-4]
  10b884:	e1a0a006 	mov	sl, r6
  10b888:	e2033001 	and	r3, r3, #1
  10b88c:	e1834004 	orr	r4, r3, r4
  10b890:	e5064004 	str	r4, [r6, #-4]
  10b894:	ebfffb9d 	bl	10a710 <__malloc_unlock>
  10b898:	eaffff23 	b	10b52c <_realloc_r+0x118>
  10b89c:	e5963008 	ldr	r3, [r6, #8]
  10b8a0:	e3520024 	cmp	r2, #36	; 0x24
  10b8a4:	12862010 	addne	r2, r6, #16
  10b8a8:	02862018 	addeq	r2, r6, #24
  10b8ac:	e58a3008 	str	r3, [sl, #8]
  10b8b0:	e596300c 	ldr	r3, [r6, #12]
  10b8b4:	e58a300c 	str	r3, [sl, #12]
  10b8b8:	128a3010 	addne	r3, sl, #16
  10b8bc:	05961010 	ldreq	r1, [r6, #16]
  10b8c0:	028a3018 	addeq	r3, sl, #24
  10b8c4:	15961010 	ldrne	r1, [r6, #16]
  10b8c8:	058a1010 	streq	r1, [sl, #16]
  10b8cc:	05961014 	ldreq	r1, [r6, #20]
  10b8d0:	058a1014 	streq	r1, [sl, #20]
  10b8d4:	05961018 	ldreq	r1, [r6, #24]
  10b8d8:	eaffff09 	b	10b504 <_realloc_r+0xf0>
  10b8dc:	e1a01006 	mov	r1, r6
  10b8e0:	e1a0000a 	mov	r0, sl
  10b8e4:	e58d3004 	str	r3, [sp, #4]
  10b8e8:	ebfffaf4 	bl	10a4c0 <memmove>
  10b8ec:	e59d3004 	ldr	r3, [sp, #4]
  10b8f0:	eaffff6f 	b	10b6b4 <_realloc_r+0x2a0>

0010b8f4 <cleanup_glue>:
  10b8f4:	e92d4070 	push	{r4, r5, r6, lr}
  10b8f8:	e1a04001 	mov	r4, r1
  10b8fc:	e5911000 	ldr	r1, [r1]
  10b900:	e1a05000 	mov	r5, r0
  10b904:	e3510000 	cmp	r1, #0
  10b908:	1a000003 	bne	10b91c <cleanup_glue+0x28>
  10b90c:	e1a01004 	mov	r1, r4
  10b910:	e1a00005 	mov	r0, r5
  10b914:	e8bd4070 	pop	{r4, r5, r6, lr}
  10b918:	eafff13b 	b	107e0c <_free_r>
  10b91c:	ebfffff4 	bl	10b8f4 <cleanup_glue>
  10b920:	e1a01004 	mov	r1, r4
  10b924:	e1a00005 	mov	r0, r5
  10b928:	e8bd4070 	pop	{r4, r5, r6, lr}
  10b92c:	eafff136 	b	107e0c <_free_r>

0010b930 <_reclaim_reent>:
  10b930:	e30f3740 	movw	r3, #63296	; 0xf740
  10b934:	e3403010 	movt	r3, #16
  10b938:	e5933000 	ldr	r3, [r3]
  10b93c:	e1530000 	cmp	r3, r0
  10b940:	012fff1e 	bxeq	lr
  10b944:	e590304c 	ldr	r3, [r0, #76]	; 0x4c
  10b948:	e92d4070 	push	{r4, r5, r6, lr}
  10b94c:	e3530000 	cmp	r3, #0
  10b950:	e1a05000 	mov	r5, r0
  10b954:	0a00000f 	beq	10b998 <_reclaim_reent+0x68>
  10b958:	e3a06000 	mov	r6, #0
  10b95c:	e7931006 	ldr	r1, [r3, r6]
  10b960:	e3510000 	cmp	r1, #0
  10b964:	0a000005 	beq	10b980 <_reclaim_reent+0x50>
  10b968:	e5914000 	ldr	r4, [r1]
  10b96c:	e1a00005 	mov	r0, r5
  10b970:	ebfff125 	bl	107e0c <_free_r>
  10b974:	e2541000 	subs	r1, r4, #0
  10b978:	1afffffa 	bne	10b968 <_reclaim_reent+0x38>
  10b97c:	e595304c 	ldr	r3, [r5, #76]	; 0x4c
  10b980:	e2866004 	add	r6, r6, #4
  10b984:	e3560080 	cmp	r6, #128	; 0x80
  10b988:	1afffff3 	bne	10b95c <_reclaim_reent+0x2c>
  10b98c:	e1a01003 	mov	r1, r3
  10b990:	e1a00005 	mov	r0, r5
  10b994:	ebfff11c 	bl	107e0c <_free_r>
  10b998:	e5951040 	ldr	r1, [r5, #64]	; 0x40
  10b99c:	e3510000 	cmp	r1, #0
  10b9a0:	0a000001 	beq	10b9ac <_reclaim_reent+0x7c>
  10b9a4:	e1a00005 	mov	r0, r5
  10b9a8:	ebfff117 	bl	107e0c <_free_r>
  10b9ac:	e5951148 	ldr	r1, [r5, #328]	; 0x148
  10b9b0:	e3510000 	cmp	r1, #0
  10b9b4:	0a000008 	beq	10b9dc <_reclaim_reent+0xac>
  10b9b8:	e2856f53 	add	r6, r5, #332	; 0x14c
  10b9bc:	e1510006 	cmp	r1, r6
  10b9c0:	0a000005 	beq	10b9dc <_reclaim_reent+0xac>
  10b9c4:	e5914000 	ldr	r4, [r1]
  10b9c8:	e1a00005 	mov	r0, r5
  10b9cc:	ebfff10e 	bl	107e0c <_free_r>
  10b9d0:	e1560004 	cmp	r6, r4
  10b9d4:	e1a01004 	mov	r1, r4
  10b9d8:	1afffff9 	bne	10b9c4 <_reclaim_reent+0x94>
  10b9dc:	e5951054 	ldr	r1, [r5, #84]	; 0x54
  10b9e0:	e3510000 	cmp	r1, #0
  10b9e4:	0a000001 	beq	10b9f0 <_reclaim_reent+0xc0>
  10b9e8:	e1a00005 	mov	r0, r5
  10b9ec:	ebfff106 	bl	107e0c <_free_r>
  10b9f0:	e5953038 	ldr	r3, [r5, #56]	; 0x38
  10b9f4:	e3530000 	cmp	r3, #0
  10b9f8:	08bd8070 	popeq	{r4, r5, r6, pc}
  10b9fc:	e595303c 	ldr	r3, [r5, #60]	; 0x3c
  10ba00:	e1a00005 	mov	r0, r5
  10ba04:	e12fff33 	blx	r3
  10ba08:	e59512e0 	ldr	r1, [r5, #736]	; 0x2e0
  10ba0c:	e3510000 	cmp	r1, #0
  10ba10:	08bd8070 	popeq	{r4, r5, r6, pc}
  10ba14:	e1a00005 	mov	r0, r5
  10ba18:	e8bd4070 	pop	{r4, r5, r6, lr}
  10ba1c:	eaffffb4 	b	10b8f4 <cleanup_glue>

0010ba20 <_sbrk_r>:
  10ba20:	e92d4070 	push	{r4, r5, r6, lr}
  10ba24:	e3084414 	movw	r4, #33812	; 0x8414
  10ba28:	e3404012 	movt	r4, #18
  10ba2c:	e1a05000 	mov	r5, r0
  10ba30:	e1a00001 	mov	r0, r1
  10ba34:	e3a03000 	mov	r3, #0
  10ba38:	e5843000 	str	r3, [r4]
  10ba3c:	eb000afb 	bl	10e630 <_sbrk>
  10ba40:	e3700001 	cmn	r0, #1
  10ba44:	18bd8070 	popne	{r4, r5, r6, pc}
  10ba48:	e5943000 	ldr	r3, [r4]
  10ba4c:	e3530000 	cmp	r3, #0
  10ba50:	15853000 	strne	r3, [r5]
  10ba54:	e8bd8070 	pop	{r4, r5, r6, pc}

0010ba58 <frexp>:
  10ba58:	e52de004 	push	{lr}		; (str lr, [sp, #-4]!)
  10ba5c:	e24dd00c 	sub	sp, sp, #12
  10ba60:	e30f2fff 	movw	r2, #65535	; 0xffff
  10ba64:	e3472fef 	movt	r2, #32751	; 0x7fef
  10ba68:	ed8d0b00 	vstr	d0, [sp]
  10ba6c:	e3a0c000 	mov	ip, #0
  10ba70:	e59d3004 	ldr	r3, [sp, #4]
  10ba74:	e580c000 	str	ip, [r0]
  10ba78:	e3c31102 	bic	r1, r3, #-2147483648	; 0x80000000
  10ba7c:	e1510002 	cmp	r1, r2
  10ba80:	ca000016 	bgt	10bae0 <frexp+0x88>
  10ba84:	e59d2000 	ldr	r2, [sp]
  10ba88:	e1912002 	orrs	r2, r1, r2
  10ba8c:	0a000013 	beq	10bae0 <frexp+0x88>
  10ba90:	e3510601 	cmp	r1, #1048576	; 0x100000
  10ba94:	bd9f7b15 	vldrlt	d7, [pc, #84]	; 10baf0 <frexp+0x98>
  10ba98:	a1a0e00c 	movge	lr, ip
  10ba9c:	b3e0e035 	mvnlt	lr, #53	; 0x35
  10baa0:	beb06b40 	vmovlt.f64	d6, d0
  10baa4:	be267b07 	vmullt.f64	d7, d6, d7
  10baa8:	bd8d7b00 	vstrlt	d7, [sp]
  10baac:	b59d3004 	ldrlt	r3, [sp, #4]
  10bab0:	b3c31102 	biclt	r1, r3, #-2147483648	; 0x80000000
  10bab4:	e3c3c47f 	bic	ip, r3, #2130706432	; 0x7f000000
  10bab8:	e1cd20d0 	ldrd	r2, [sp]
  10babc:	e3ccc60f 	bic	ip, ip, #15728640	; 0xf00000
  10bac0:	e1a01a41 	asr	r1, r1, #20
  10bac4:	e38c35ff 	orr	r3, ip, #1069547520	; 0x3fc00000
  10bac8:	e2411fff 	sub	r1, r1, #1020	; 0x3fc
  10bacc:	e3833602 	orr	r3, r3, #2097152	; 0x200000
  10bad0:	e2411002 	sub	r1, r1, #2
  10bad4:	e1cd20f0 	strd	r2, [sp]
  10bad8:	e081100e 	add	r1, r1, lr
  10badc:	e5801000 	str	r1, [r0]
  10bae0:	ed9d0b00 	vldr	d0, [sp]
  10bae4:	e28dd00c 	add	sp, sp, #12
  10bae8:	e49df004 	pop	{pc}		; (ldr pc, [sp], #4)
  10baec:	e320f000 	nop	{0}
  10baf0:	00000000 	.word	0x00000000
  10baf4:	43500000 	.word	0x43500000

0010baf8 <__sread>:
  10baf8:	e92d4010 	push	{r4, lr}
  10bafc:	e1a04001 	mov	r4, r1
  10bb00:	e1d110fe 	ldrsh	r1, [r1, #14]
  10bb04:	eb000ab5 	bl	10e5e0 <_read_r>
  10bb08:	e3500000 	cmp	r0, #0
  10bb0c:	a5943050 	ldrge	r3, [r4, #80]	; 0x50
  10bb10:	b1d430bc 	ldrhlt	r3, [r4, #12]
  10bb14:	a0833000 	addge	r3, r3, r0
  10bb18:	b3c33a01 	biclt	r3, r3, #4096	; 0x1000
  10bb1c:	a5843050 	strge	r3, [r4, #80]	; 0x50
  10bb20:	b1c430bc 	strhlt	r3, [r4, #12]
  10bb24:	e8bd8010 	pop	{r4, pc}

0010bb28 <__seofread>:
  10bb28:	e3a00000 	mov	r0, #0
  10bb2c:	e12fff1e 	bx	lr

0010bb30 <__swrite>:
  10bb30:	e92d41f0 	push	{r4, r5, r6, r7, r8, lr}
  10bb34:	e1a06002 	mov	r6, r2
  10bb38:	e1d120fc 	ldrsh	r2, [r1, #12]
  10bb3c:	e1a04001 	mov	r4, r1
  10bb40:	e1a07003 	mov	r7, r3
  10bb44:	e1d110fe 	ldrsh	r1, [r1, #14]
  10bb48:	e3120c01 	tst	r2, #256	; 0x100
  10bb4c:	e1a05000 	mov	r5, r0
  10bb50:	0a000004 	beq	10bb68 <__swrite+0x38>
  10bb54:	e3a02000 	mov	r2, #0
  10bb58:	e3a03002 	mov	r3, #2
  10bb5c:	eb000a8e 	bl	10e59c <_lseek_r>
  10bb60:	e1d420fc 	ldrsh	r2, [r4, #12]
  10bb64:	e1d410fe 	ldrsh	r1, [r4, #14]
  10bb68:	e3c22a01 	bic	r2, r2, #4096	; 0x1000
  10bb6c:	e1a03007 	mov	r3, r7
  10bb70:	e1c420bc 	strh	r2, [r4, #12]
  10bb74:	e1a00005 	mov	r0, r5
  10bb78:	e1a02006 	mov	r2, r6
  10bb7c:	e8bd41f0 	pop	{r4, r5, r6, r7, r8, lr}
  10bb80:	ea00093f 	b	10e084 <_write_r>

0010bb84 <__sseek>:
  10bb84:	e92d4010 	push	{r4, lr}
  10bb88:	e1a04001 	mov	r4, r1
  10bb8c:	e1d110fe 	ldrsh	r1, [r1, #14]
  10bb90:	eb000a81 	bl	10e59c <_lseek_r>
  10bb94:	e1d430bc 	ldrh	r3, [r4, #12]
  10bb98:	e3700001 	cmn	r0, #1
  10bb9c:	15840050 	strne	r0, [r4, #80]	; 0x50
  10bba0:	03c33a01 	biceq	r3, r3, #4096	; 0x1000
  10bba4:	13833a01 	orrne	r3, r3, #4096	; 0x1000
  10bba8:	e1c430bc 	strh	r3, [r4, #12]
  10bbac:	e8bd8010 	pop	{r4, pc}

0010bbb0 <__sclose>:
  10bbb0:	e1d110fe 	ldrsh	r1, [r1, #14]
  10bbb4:	ea000967 	b	10e158 <_close_r>

0010bbb8 <strcasecmp>:
  10bbb8:	e3003104 	movw	r3, #260	; 0x104
  10bbbc:	e3403011 	movt	r3, #17
  10bbc0:	e52de004 	push	{lr}		; (str lr, [sp, #-4]!)
  10bbc4:	e593e000 	ldr	lr, [r3]
  10bbc8:	e4d03001 	ldrb	r3, [r0], #1
  10bbcc:	e08e2003 	add	r2, lr, r3
  10bbd0:	e5d22001 	ldrb	r2, [r2, #1]
  10bbd4:	e2022003 	and	r2, r2, #3
  10bbd8:	e3520001 	cmp	r2, #1
  10bbdc:	e4d12001 	ldrb	r2, [r1], #1
  10bbe0:	02833020 	addeq	r3, r3, #32
  10bbe4:	e08ec002 	add	ip, lr, r2
  10bbe8:	e5dcc001 	ldrb	ip, [ip, #1]
  10bbec:	e20cc003 	and	ip, ip, #3
  10bbf0:	e35c0001 	cmp	ip, #1
  10bbf4:	0a000005 	beq	10bc10 <strcasecmp+0x58>
  10bbf8:	e0533002 	subs	r3, r3, r2
  10bbfc:	1a000001 	bne	10bc08 <strcasecmp+0x50>
  10bc00:	e3520000 	cmp	r2, #0
  10bc04:	1affffef 	bne	10bbc8 <strcasecmp+0x10>
  10bc08:	e1a00003 	mov	r0, r3
  10bc0c:	e49df004 	pop	{pc}		; (ldr pc, [sp], #4)
  10bc10:	e2822020 	add	r2, r2, #32
  10bc14:	e0533002 	subs	r3, r3, r2
  10bc18:	0affffea 	beq	10bbc8 <strcasecmp+0x10>
  10bc1c:	e1a00003 	mov	r0, r3
  10bc20:	e49df004 	pop	{pc}		; (ldr pc, [sp], #4)

0010bc24 <strcat>:
  10bc24:	e3100003 	tst	r0, #3
  10bc28:	e92d4010 	push	{r4, lr}
  10bc2c:	e1a04000 	mov	r4, r0
  10bc30:	1a00000e 	bne	10bc70 <strcat+0x4c>
  10bc34:	e5942000 	ldr	r2, [r4]
  10bc38:	e30feeff 	movw	lr, #65279	; 0xfeff
  10bc3c:	e34feefe 	movt	lr, #65278	; 0xfefe
  10bc40:	e308c080 	movw	ip, #32896	; 0x8080
  10bc44:	e082300e 	add	r3, r2, lr
  10bc48:	e348c080 	movt	ip, #32896	; 0x8080
  10bc4c:	e1c33002 	bic	r3, r3, r2
  10bc50:	e1a00004 	mov	r0, r4
  10bc54:	e113000c 	tst	r3, ip
  10bc58:	1a000004 	bne	10bc70 <strcat+0x4c>
  10bc5c:	e5b02004 	ldr	r2, [r0, #4]!
  10bc60:	e082300e 	add	r3, r2, lr
  10bc64:	e1c33002 	bic	r3, r3, r2
  10bc68:	e113000c 	tst	r3, ip
  10bc6c:	0afffffa 	beq	10bc5c <strcat+0x38>
  10bc70:	e5d03000 	ldrb	r3, [r0]
  10bc74:	e3530000 	cmp	r3, #0
  10bc78:	0a000002 	beq	10bc88 <strcat+0x64>
  10bc7c:	e5f03001 	ldrb	r3, [r0, #1]!
  10bc80:	e3530000 	cmp	r3, #0
  10bc84:	1afffffc 	bne	10bc7c <strcat+0x58>
  10bc88:	eb00011b 	bl	10c0fc <strcpy>
  10bc8c:	e1a00004 	mov	r0, r4
  10bc90:	e8bd8010 	pop	{r4, pc}

0010bc94 <strchr>:
  10bc94:	e6ef1071 	uxtb	r1, r1
  10bc98:	e2003003 	and	r3, r0, #3
  10bc9c:	e3510000 	cmp	r1, #0
  10bca0:	0a000036 	beq	10bd80 <strchr+0xec>
  10bca4:	e3530000 	cmp	r3, #0
  10bca8:	0a00000e 	beq	10bce8 <strchr+0x54>
  10bcac:	e5d03000 	ldrb	r3, [r0]
  10bcb0:	e3530000 	cmp	r3, #0
  10bcb4:	0a000056 	beq	10be14 <strchr+0x180>
  10bcb8:	e1510003 	cmp	r1, r3
  10bcbc:	012fff1e 	bxeq	lr
  10bcc0:	e2803001 	add	r3, r0, #1
  10bcc4:	ea000004 	b	10bcdc <strchr+0x48>
  10bcc8:	e4d32001 	ldrb	r2, [r3], #1
  10bccc:	e3520000 	cmp	r2, #0
  10bcd0:	0a00004d 	beq	10be0c <strchr+0x178>
  10bcd4:	e1520001 	cmp	r2, r1
  10bcd8:	012fff1e 	bxeq	lr
  10bcdc:	e3130003 	tst	r3, #3
  10bce0:	e1a00003 	mov	r0, r3
  10bce4:	1afffff7 	bne	10bcc8 <strchr+0x34>
  10bce8:	e92d4070 	push	{r4, r5, r6, lr}
  10bcec:	e1815401 	orr	r5, r1, r1, lsl #8
  10bcf0:	e5903000 	ldr	r3, [r0]
  10bcf4:	e30f4eff 	movw	r4, #65279	; 0xfeff
  10bcf8:	e1855805 	orr	r5, r5, r5, lsl #16
  10bcfc:	e34f4efe 	movt	r4, #65278	; 0xfefe
  10bd00:	e0832004 	add	r2, r3, r4
  10bd04:	e025c003 	eor	ip, r5, r3
  10bd08:	e1c22003 	bic	r2, r2, r3
  10bd0c:	e08c3004 	add	r3, ip, r4
  10bd10:	e1c3300c 	bic	r3, r3, ip
  10bd14:	e3086080 	movw	r6, #32896	; 0x8080
  10bd18:	e1833002 	orr	r3, r3, r2
  10bd1c:	e3486080 	movt	r6, #32896	; 0x8080
  10bd20:	e1130006 	tst	r3, r6
  10bd24:	1a000008 	bne	10bd4c <strchr+0xb8>
  10bd28:	e5b0c004 	ldr	ip, [r0, #4]!
  10bd2c:	e02ce005 	eor	lr, ip, r5
  10bd30:	e08c3004 	add	r3, ip, r4
  10bd34:	e08e2004 	add	r2, lr, r4
  10bd38:	e1c3300c 	bic	r3, r3, ip
  10bd3c:	e1c2200e 	bic	r2, r2, lr
  10bd40:	e1833002 	orr	r3, r3, r2
  10bd44:	e1130006 	tst	r3, r6
  10bd48:	0afffff6 	beq	10bd28 <strchr+0x94>
  10bd4c:	e5d03000 	ldrb	r3, [r0]
  10bd50:	e3530000 	cmp	r3, #0
  10bd54:	0a000007 	beq	10bd78 <strchr+0xe4>
  10bd58:	e1510003 	cmp	r1, r3
  10bd5c:	1a000002 	bne	10bd6c <strchr+0xd8>
  10bd60:	e8bd8070 	pop	{r4, r5, r6, pc}
  10bd64:	e1530001 	cmp	r3, r1
  10bd68:	08bd8070 	popeq	{r4, r5, r6, pc}
  10bd6c:	e5f03001 	ldrb	r3, [r0, #1]!
  10bd70:	e3530000 	cmp	r3, #0
  10bd74:	1afffffa 	bne	10bd64 <strchr+0xd0>
  10bd78:	e1a00003 	mov	r0, r3
  10bd7c:	e8bd8070 	pop	{r4, r5, r6, pc}
  10bd80:	e3530000 	cmp	r3, #0
  10bd84:	0a00000b 	beq	10bdb8 <strchr+0x124>
  10bd88:	e5d03000 	ldrb	r3, [r0]
  10bd8c:	e3530000 	cmp	r3, #0
  10bd90:	012fff1e 	bxeq	lr
  10bd94:	e2803001 	add	r3, r0, #1
  10bd98:	ea000002 	b	10bda8 <strchr+0x114>
  10bd9c:	e5d02000 	ldrb	r2, [r0]
  10bda0:	e3520000 	cmp	r2, #0
  10bda4:	012fff1e 	bxeq	lr
  10bda8:	e3130003 	tst	r3, #3
  10bdac:	e1a00003 	mov	r0, r3
  10bdb0:	e2833001 	add	r3, r3, #1
  10bdb4:	1afffff8 	bne	10bd9c <strchr+0x108>
  10bdb8:	e5902000 	ldr	r2, [r0]
  10bdbc:	e30fceff 	movw	ip, #65279	; 0xfeff
  10bdc0:	e34fcefe 	movt	ip, #65278	; 0xfefe
  10bdc4:	e3081080 	movw	r1, #32896	; 0x8080
  10bdc8:	e082300c 	add	r3, r2, ip
  10bdcc:	e3481080 	movt	r1, #32896	; 0x8080
  10bdd0:	e1c33002 	bic	r3, r3, r2
  10bdd4:	e1130001 	tst	r3, r1
  10bdd8:	1a000004 	bne	10bdf0 <strchr+0x15c>
  10bddc:	e5b02004 	ldr	r2, [r0, #4]!
  10bde0:	e082300c 	add	r3, r2, ip
  10bde4:	e1c33002 	bic	r3, r3, r2
  10bde8:	e1130001 	tst	r3, r1
  10bdec:	0afffffa 	beq	10bddc <strchr+0x148>
  10bdf0:	e5d03000 	ldrb	r3, [r0]
  10bdf4:	e3530000 	cmp	r3, #0
  10bdf8:	012fff1e 	bxeq	lr
  10bdfc:	e5f03001 	ldrb	r3, [r0, #1]!
  10be00:	e3530000 	cmp	r3, #0
  10be04:	1afffffc 	bne	10bdfc <strchr+0x168>
  10be08:	e12fff1e 	bx	lr
  10be0c:	e1a00002 	mov	r0, r2
  10be10:	e12fff1e 	bx	lr
  10be14:	e1a00003 	mov	r0, r3
  10be18:	e12fff1e 	bx	lr
  10be1c:	00000000 	andeq	r0, r0, r0
  10be20:	eba2 0003 	sub.w	r0, r2, r3
  10be24:	4770      	bx	lr
  10be26:	bf00      	nop

0010be28 <strcmp>:
  10be28:	7802      	ldrb	r2, [r0, #0]
  10be2a:	780b      	ldrb	r3, [r1, #0]
  10be2c:	2a01      	cmp	r2, #1
  10be2e:	bf28      	it	cs
  10be30:	429a      	cmpcs	r2, r3
  10be32:	d1f5      	bne.n	10be20 <strchr+0x18c>
  10be34:	e96d 4504 	strd	r4, r5, [sp, #-16]!
  10be38:	ea40 0401 	orr.w	r4, r0, r1
  10be3c:	e9cd 6702 	strd	r6, r7, [sp, #8]
  10be40:	f06f 0c00 	mvn.w	ip, #0
  10be44:	ea4f 7244 	mov.w	r2, r4, lsl #29
  10be48:	b312      	cbz	r2, 10be90 <strcmp+0x68>
  10be4a:	ea80 0401 	eor.w	r4, r0, r1
  10be4e:	f014 0f07 	tst.w	r4, #7
  10be52:	d16a      	bne.n	10bf2a <strcmp+0x102>
  10be54:	f000 0407 	and.w	r4, r0, #7
  10be58:	f020 0007 	bic.w	r0, r0, #7
  10be5c:	f004 0503 	and.w	r5, r4, #3
  10be60:	f021 0107 	bic.w	r1, r1, #7
  10be64:	ea4f 05c5 	mov.w	r5, r5, lsl #3
  10be68:	e8f0 2304 	ldrd	r2, r3, [r0], #16
  10be6c:	f014 0f04 	tst.w	r4, #4
  10be70:	e8f1 6704 	ldrd	r6, r7, [r1], #16
  10be74:	fa0c f405 	lsl.w	r4, ip, r5
  10be78:	ea62 0204 	orn	r2, r2, r4
  10be7c:	ea66 0604 	orn	r6, r6, r4
  10be80:	d00a      	beq.n	10be98 <strcmp+0x70>
  10be82:	ea63 0304 	orn	r3, r3, r4
  10be86:	4662      	mov	r2, ip
  10be88:	ea67 0704 	orn	r7, r7, r4
  10be8c:	4666      	mov	r6, ip
  10be8e:	e003      	b.n	10be98 <strcmp+0x70>
  10be90:	e8f0 2304 	ldrd	r2, r3, [r0], #16
  10be94:	e8f1 6704 	ldrd	r6, r7, [r1], #16
  10be98:	fa82 f54c 	uadd8	r5, r2, ip
  10be9c:	ea82 0406 	eor.w	r4, r2, r6
  10bea0:	faa4 f48c 	sel	r4, r4, ip
  10bea4:	bb6c      	cbnz	r4, 10bf02 <strcmp+0xda>
  10bea6:	fa83 f54c 	uadd8	r5, r3, ip
  10beaa:	ea83 0507 	eor.w	r5, r3, r7
  10beae:	faa5 f58c 	sel	r5, r5, ip
  10beb2:	b995      	cbnz	r5, 10beda <strcmp+0xb2>
  10beb4:	e950 2302 	ldrd	r2, r3, [r0, #-8]
  10beb8:	e951 6702 	ldrd	r6, r7, [r1, #-8]
  10bebc:	fa82 f54c 	uadd8	r5, r2, ip
  10bec0:	ea82 0406 	eor.w	r4, r2, r6
  10bec4:	faa4 f48c 	sel	r4, r4, ip
  10bec8:	fa83 f54c 	uadd8	r5, r3, ip
  10becc:	ea83 0507 	eor.w	r5, r3, r7
  10bed0:	faa5 f58c 	sel	r5, r5, ip
  10bed4:	4325      	orrs	r5, r4
  10bed6:	d0db      	beq.n	10be90 <strcmp+0x68>
  10bed8:	b99c      	cbnz	r4, 10bf02 <strcmp+0xda>
  10beda:	ba2d      	rev	r5, r5
  10bedc:	fab5 f485 	clz	r4, r5
  10bee0:	f024 0407 	bic.w	r4, r4, #7
  10bee4:	fa27 f104 	lsr.w	r1, r7, r4
  10bee8:	e9dd 6702 	ldrd	r6, r7, [sp, #8]
  10beec:	fa23 f304 	lsr.w	r3, r3, r4
  10bef0:	f003 00ff 	and.w	r0, r3, #255	; 0xff
  10bef4:	f001 01ff 	and.w	r1, r1, #255	; 0xff
  10bef8:	e8fd 4504 	ldrd	r4, r5, [sp], #16
  10befc:	eba0 0001 	sub.w	r0, r0, r1
  10bf00:	4770      	bx	lr
  10bf02:	ba24      	rev	r4, r4
  10bf04:	fab4 f484 	clz	r4, r4
  10bf08:	f024 0407 	bic.w	r4, r4, #7
  10bf0c:	fa26 f104 	lsr.w	r1, r6, r4
  10bf10:	e9dd 6702 	ldrd	r6, r7, [sp, #8]
  10bf14:	fa22 f204 	lsr.w	r2, r2, r4
  10bf18:	f002 00ff 	and.w	r0, r2, #255	; 0xff
  10bf1c:	f001 01ff 	and.w	r1, r1, #255	; 0xff
  10bf20:	e8fd 4504 	ldrd	r4, r5, [sp], #16
  10bf24:	eba0 0001 	sub.w	r0, r0, r1
  10bf28:	4770      	bx	lr
  10bf2a:	f014 0f03 	tst.w	r4, #3
  10bf2e:	d13c      	bne.n	10bfaa <strcmp+0x182>
  10bf30:	f010 0403 	ands.w	r4, r0, #3
  10bf34:	d128      	bne.n	10bf88 <strcmp+0x160>
  10bf36:	f850 2b08 	ldr.w	r2, [r0], #8
  10bf3a:	f851 3b08 	ldr.w	r3, [r1], #8
  10bf3e:	fa82 f54c 	uadd8	r5, r2, ip
  10bf42:	ea82 0503 	eor.w	r5, r2, r3
  10bf46:	faa5 f58c 	sel	r5, r5, ip
  10bf4a:	b95d      	cbnz	r5, 10bf64 <strcmp+0x13c>
  10bf4c:	f850 2c04 	ldr.w	r2, [r0, #-4]
  10bf50:	f851 3c04 	ldr.w	r3, [r1, #-4]
  10bf54:	fa82 f54c 	uadd8	r5, r2, ip
  10bf58:	ea82 0503 	eor.w	r5, r2, r3
  10bf5c:	faa5 f58c 	sel	r5, r5, ip
  10bf60:	2d00      	cmp	r5, #0
  10bf62:	d0e8      	beq.n	10bf36 <strcmp+0x10e>
  10bf64:	ba2d      	rev	r5, r5
  10bf66:	fab5 f485 	clz	r4, r5
  10bf6a:	f024 0407 	bic.w	r4, r4, #7
  10bf6e:	fa23 f104 	lsr.w	r1, r3, r4
  10bf72:	fa22 f204 	lsr.w	r2, r2, r4
  10bf76:	f002 00ff 	and.w	r0, r2, #255	; 0xff
  10bf7a:	f001 01ff 	and.w	r1, r1, #255	; 0xff
  10bf7e:	e8fd 4504 	ldrd	r4, r5, [sp], #16
  10bf82:	eba0 0001 	sub.w	r0, r0, r1
  10bf86:	4770      	bx	lr
  10bf88:	ea4f 04c4 	mov.w	r4, r4, lsl #3
  10bf8c:	f020 0003 	bic.w	r0, r0, #3
  10bf90:	f850 2b08 	ldr.w	r2, [r0], #8
  10bf94:	f021 0103 	bic.w	r1, r1, #3
  10bf98:	f851 3b08 	ldr.w	r3, [r1], #8
  10bf9c:	fa0c f404 	lsl.w	r4, ip, r4
  10bfa0:	ea62 0204 	orn	r2, r2, r4
  10bfa4:	ea63 0304 	orn	r3, r3, r4
  10bfa8:	e7c9      	b.n	10bf3e <strcmp+0x116>
  10bfaa:	f010 0403 	ands.w	r4, r0, #3
  10bfae:	d01a      	beq.n	10bfe6 <strcmp+0x1be>
  10bfb0:	eba1 0104 	sub.w	r1, r1, r4
  10bfb4:	f020 0003 	bic.w	r0, r0, #3
  10bfb8:	07e4      	lsls	r4, r4, #31
  10bfba:	f850 2b04 	ldr.w	r2, [r0], #4
  10bfbe:	d006      	beq.n	10bfce <strcmp+0x1a6>
  10bfc0:	d20f      	bcs.n	10bfe2 <strcmp+0x1ba>
  10bfc2:	788b      	ldrb	r3, [r1, #2]
  10bfc4:	fa5f f4a2 	uxtb.w	r4, r2, ror #16
  10bfc8:	1ae4      	subs	r4, r4, r3
  10bfca:	d106      	bne.n	10bfda <strcmp+0x1b2>
  10bfcc:	b12b      	cbz	r3, 10bfda <strcmp+0x1b2>
  10bfce:	78cb      	ldrb	r3, [r1, #3]
  10bfd0:	fa5f f4b2 	uxtb.w	r4, r2, ror #24
  10bfd4:	1ae4      	subs	r4, r4, r3
  10bfd6:	d100      	bne.n	10bfda <strcmp+0x1b2>
  10bfd8:	b91b      	cbnz	r3, 10bfe2 <strcmp+0x1ba>
  10bfda:	4620      	mov	r0, r4
  10bfdc:	f85d 4b10 	ldr.w	r4, [sp], #16
  10bfe0:	4770      	bx	lr
  10bfe2:	f101 0104 	add.w	r1, r1, #4
  10bfe6:	f850 2b04 	ldr.w	r2, [r0], #4
  10bfea:	07cc      	lsls	r4, r1, #31
  10bfec:	f021 0103 	bic.w	r1, r1, #3
  10bff0:	f851 3b04 	ldr.w	r3, [r1], #4
  10bff4:	d848      	bhi.n	10c088 <strcmp+0x260>
  10bff6:	d224      	bcs.n	10c042 <strcmp+0x21a>
  10bff8:	f022 447f 	bic.w	r4, r2, #4278190080	; 0xff000000
  10bffc:	fa82 f54c 	uadd8	r5, r2, ip
  10c000:	ea94 2513 	eors.w	r5, r4, r3, lsr #8
  10c004:	faa5 f58c 	sel	r5, r5, ip
  10c008:	d10a      	bne.n	10c020 <strcmp+0x1f8>
  10c00a:	b965      	cbnz	r5, 10c026 <strcmp+0x1fe>
  10c00c:	f851 3b04 	ldr.w	r3, [r1], #4
  10c010:	ea84 0402 	eor.w	r4, r4, r2
  10c014:	ebb4 6f03 	cmp.w	r4, r3, lsl #24
  10c018:	d10e      	bne.n	10c038 <strcmp+0x210>
  10c01a:	f850 2b04 	ldr.w	r2, [r0], #4
  10c01e:	e7eb      	b.n	10bff8 <strcmp+0x1d0>
  10c020:	ea4f 2313 	mov.w	r3, r3, lsr #8
  10c024:	e055      	b.n	10c0d2 <strcmp+0x2aa>
  10c026:	f035 457f 	bics.w	r5, r5, #4278190080	; 0xff000000
  10c02a:	d14d      	bne.n	10c0c8 <strcmp+0x2a0>
  10c02c:	7808      	ldrb	r0, [r1, #0]
  10c02e:	e8fd 4504 	ldrd	r4, r5, [sp], #16
  10c032:	f1c0 0000 	rsb	r0, r0, #0
  10c036:	4770      	bx	lr
  10c038:	ea4f 6212 	mov.w	r2, r2, lsr #24
  10c03c:	f003 03ff 	and.w	r3, r3, #255	; 0xff
  10c040:	e047      	b.n	10c0d2 <strcmp+0x2aa>
  10c042:	ea02 441c 	and.w	r4, r2, ip, lsr #16
  10c046:	fa82 f54c 	uadd8	r5, r2, ip
  10c04a:	ea94 4513 	eors.w	r5, r4, r3, lsr #16
  10c04e:	faa5 f58c 	sel	r5, r5, ip
  10c052:	d10a      	bne.n	10c06a <strcmp+0x242>
  10c054:	b965      	cbnz	r5, 10c070 <strcmp+0x248>
  10c056:	f851 3b04 	ldr.w	r3, [r1], #4
  10c05a:	ea84 0402 	eor.w	r4, r4, r2
  10c05e:	ebb4 4f03 	cmp.w	r4, r3, lsl #16
  10c062:	d10c      	bne.n	10c07e <strcmp+0x256>
  10c064:	f850 2b04 	ldr.w	r2, [r0], #4
  10c068:	e7eb      	b.n	10c042 <strcmp+0x21a>
  10c06a:	ea4f 4313 	mov.w	r3, r3, lsr #16
  10c06e:	e030      	b.n	10c0d2 <strcmp+0x2aa>
  10c070:	ea15 451c 	ands.w	r5, r5, ip, lsr #16
  10c074:	d128      	bne.n	10c0c8 <strcmp+0x2a0>
  10c076:	880b      	ldrh	r3, [r1, #0]
  10c078:	ea4f 4212 	mov.w	r2, r2, lsr #16
  10c07c:	e029      	b.n	10c0d2 <strcmp+0x2aa>
  10c07e:	ea4f 4212 	mov.w	r2, r2, lsr #16
  10c082:	ea03 431c 	and.w	r3, r3, ip, lsr #16
  10c086:	e024      	b.n	10c0d2 <strcmp+0x2aa>
  10c088:	f002 04ff 	and.w	r4, r2, #255	; 0xff
  10c08c:	fa82 f54c 	uadd8	r5, r2, ip
  10c090:	ea94 6513 	eors.w	r5, r4, r3, lsr #24
  10c094:	faa5 f58c 	sel	r5, r5, ip
  10c098:	d10a      	bne.n	10c0b0 <strcmp+0x288>
  10c09a:	b965      	cbnz	r5, 10c0b6 <strcmp+0x28e>
  10c09c:	f851 3b04 	ldr.w	r3, [r1], #4
  10c0a0:	ea84 0402 	eor.w	r4, r4, r2
  10c0a4:	ebb4 2f03 	cmp.w	r4, r3, lsl #8
  10c0a8:	d109      	bne.n	10c0be <strcmp+0x296>
  10c0aa:	f850 2b04 	ldr.w	r2, [r0], #4
  10c0ae:	e7eb      	b.n	10c088 <strcmp+0x260>
  10c0b0:	ea4f 6313 	mov.w	r3, r3, lsr #24
  10c0b4:	e00d      	b.n	10c0d2 <strcmp+0x2aa>
  10c0b6:	f015 0fff 	tst.w	r5, #255	; 0xff
  10c0ba:	d105      	bne.n	10c0c8 <strcmp+0x2a0>
  10c0bc:	680b      	ldr	r3, [r1, #0]
  10c0be:	ea4f 2212 	mov.w	r2, r2, lsr #8
  10c0c2:	f023 437f 	bic.w	r3, r3, #4278190080	; 0xff000000
  10c0c6:	e004      	b.n	10c0d2 <strcmp+0x2aa>
  10c0c8:	f04f 0000 	mov.w	r0, #0
  10c0cc:	e8fd 4504 	ldrd	r4, r5, [sp], #16
  10c0d0:	4770      	bx	lr
  10c0d2:	ba12      	rev	r2, r2
  10c0d4:	ba1b      	rev	r3, r3
  10c0d6:	fa82 f44c 	uadd8	r4, r2, ip
  10c0da:	ea82 0403 	eor.w	r4, r2, r3
  10c0de:	faa4 f58c 	sel	r5, r4, ip
  10c0e2:	fab5 f485 	clz	r4, r5
  10c0e6:	fa02 f204 	lsl.w	r2, r2, r4
  10c0ea:	fa03 f304 	lsl.w	r3, r3, r4
  10c0ee:	ea4f 6012 	mov.w	r0, r2, lsr #24
  10c0f2:	e8fd 4504 	ldrd	r4, r5, [sp], #16
  10c0f6:	eba0 6013 	sub.w	r0, r0, r3, lsr #24
  10c0fa:	4770      	bx	lr

0010c0fc <strcpy>:
  10c0fc:	f5d1f000 	pld	[r1]
  10c100:	e0202001 	eor	r2, r0, r1
  10c104:	e1a0c000 	mov	ip, r0
  10c108:	e3120003 	tst	r2, #3
  10c10c:	1a000033 	bne	10c1e0 <strcpy+0xe4>
  10c110:	e3110003 	tst	r1, #3
  10c114:	1a000022 	bne	10c1a4 <strcpy+0xa8>
  10c118:	e52d5004 	push	{r5}		; (str r5, [sp, #-4]!)
  10c11c:	e3a05001 	mov	r5, #1
  10c120:	e1855405 	orr	r5, r5, r5, lsl #8
  10c124:	e1855805 	orr	r5, r5, r5, lsl #16
  10c128:	e52d4004 	push	{r4}		; (str r4, [sp, #-4]!)
  10c12c:	e3110004 	tst	r1, #4
  10c130:	e4913004 	ldr	r3, [r1], #4
  10c134:	0a000005 	beq	10c150 <strcpy+0x54>
  10c138:	e0432005 	sub	r2, r3, r5
  10c13c:	e1d22003 	bics	r2, r2, r3
  10c140:	e1120385 	tst	r2, r5, lsl #7
  10c144:	048c3004 	streq	r3, [ip], #4
  10c148:	04913004 	ldreq	r3, [r1], #4
  10c14c:	1a00000d 	bne	10c188 <strcpy+0x8c>
  10c150:	f5d1f008 	pld	[r1, #8]
  10c154:	e4914004 	ldr	r4, [r1], #4
  10c158:	e0432005 	sub	r2, r3, r5
  10c15c:	e1d22003 	bics	r2, r2, r3
  10c160:	e1120385 	tst	r2, r5, lsl #7
  10c164:	e0442005 	sub	r2, r4, r5
  10c168:	1a000006 	bne	10c188 <strcpy+0x8c>
  10c16c:	e48c3004 	str	r3, [ip], #4
  10c170:	e1d22004 	bics	r2, r2, r4
  10c174:	e1120385 	tst	r2, r5, lsl #7
  10c178:	04913004 	ldreq	r3, [r1], #4
  10c17c:	048c4004 	streq	r4, [ip], #4
  10c180:	0afffff2 	beq	10c150 <strcpy+0x54>
  10c184:	e1a03004 	mov	r3, r4
  10c188:	e4cc3001 	strb	r3, [ip], #1
  10c18c:	e31300ff 	tst	r3, #255	; 0xff
  10c190:	e1a03463 	ror	r3, r3, #8
  10c194:	1afffffb 	bne	10c188 <strcpy+0x8c>
  10c198:	e49d4004 	pop	{r4}		; (ldr r4, [sp], #4)
  10c19c:	e49d5004 	pop	{r5}		; (ldr r5, [sp], #4)
  10c1a0:	e12fff1e 	bx	lr
  10c1a4:	e3110001 	tst	r1, #1
  10c1a8:	0a000003 	beq	10c1bc <strcpy+0xc0>
  10c1ac:	e4d12001 	ldrb	r2, [r1], #1
  10c1b0:	e4cc2001 	strb	r2, [ip], #1
  10c1b4:	e3520000 	cmp	r2, #0
  10c1b8:	012fff1e 	bxeq	lr
  10c1bc:	e3110002 	tst	r1, #2
  10c1c0:	0affffd4 	beq	10c118 <strcpy+0x1c>
  10c1c4:	e0d120b2 	ldrh	r2, [r1], #2
  10c1c8:	e31200ff 	tst	r2, #255	; 0xff
  10c1cc:	10cc20b2 	strhne	r2, [ip], #2
  10c1d0:	05cc2000 	strbeq	r2, [ip]
  10c1d4:	13120cff 	tstne	r2, #65280	; 0xff00
  10c1d8:	1affffce 	bne	10c118 <strcpy+0x1c>
  10c1dc:	e12fff1e 	bx	lr
  10c1e0:	e4d12001 	ldrb	r2, [r1], #1
  10c1e4:	e4cc2001 	strb	r2, [ip], #1
  10c1e8:	e3520000 	cmp	r2, #0
  10c1ec:	1afffffb 	bne	10c1e0 <strcpy+0xe4>
  10c1f0:	e12fff1e 	bx	lr

0010c1f4 <strlcpy>:
  10c1f4:	e3520000 	cmp	r2, #0
  10c1f8:	e1a03001 	mov	r3, r1
  10c1fc:	0a00000a 	beq	10c22c <strlcpy+0x38>
  10c200:	e2522001 	subs	r2, r2, #1
  10c204:	0a000006 	beq	10c224 <strlcpy+0x30>
  10c208:	e4d3c001 	ldrb	ip, [r3], #1
  10c20c:	e35c0000 	cmp	ip, #0
  10c210:	e4c0c001 	strb	ip, [r0], #1
  10c214:	1afffff9 	bne	10c200 <strlcpy+0xc>
  10c218:	e0430001 	sub	r0, r3, r1
  10c21c:	e2400001 	sub	r0, r0, #1
  10c220:	e12fff1e 	bx	lr
  10c224:	e3a02000 	mov	r2, #0
  10c228:	e5c02000 	strb	r2, [r0]
  10c22c:	e4d32001 	ldrb	r2, [r3], #1
  10c230:	e3520000 	cmp	r2, #0
  10c234:	0afffff7 	beq	10c218 <strlcpy+0x24>
  10c238:	e4d32001 	ldrb	r2, [r3], #1
  10c23c:	e3520000 	cmp	r2, #0
  10c240:	1afffff9 	bne	10c22c <strlcpy+0x38>
  10c244:	eafffff3 	b	10c218 <strlcpy+0x24>

0010c248 <strncasecmp>:
  10c248:	e3520000 	cmp	r2, #0
  10c24c:	0a00001f 	beq	10c2d0 <strncasecmp+0x88>
  10c250:	e3003104 	movw	r3, #260	; 0x104
  10c254:	e3403011 	movt	r3, #17
  10c258:	e92d4010 	push	{r4, lr}
  10c25c:	e0814002 	add	r4, r1, r2
  10c260:	e593e000 	ldr	lr, [r3]
  10c264:	ea000005 	b	10c280 <strncasecmp+0x38>
  10c268:	e0522003 	subs	r2, r2, r3
  10c26c:	1a000012 	bne	10c2bc <strncasecmp+0x74>
  10c270:	e3530000 	cmp	r3, #0
  10c274:	0a000010 	beq	10c2bc <strncasecmp+0x74>
  10c278:	e1510004 	cmp	r1, r4
  10c27c:	0a000010 	beq	10c2c4 <strncasecmp+0x7c>
  10c280:	e4d02001 	ldrb	r2, [r0], #1
  10c284:	e08e3002 	add	r3, lr, r2
  10c288:	e5d33001 	ldrb	r3, [r3, #1]
  10c28c:	e2033003 	and	r3, r3, #3
  10c290:	e3530001 	cmp	r3, #1
  10c294:	e4d13001 	ldrb	r3, [r1], #1
  10c298:	02822020 	addeq	r2, r2, #32
  10c29c:	e08ec003 	add	ip, lr, r3
  10c2a0:	e5dcc001 	ldrb	ip, [ip, #1]
  10c2a4:	e20cc003 	and	ip, ip, #3
  10c2a8:	e35c0001 	cmp	ip, #1
  10c2ac:	1affffed 	bne	10c268 <strncasecmp+0x20>
  10c2b0:	e2833020 	add	r3, r3, #32
  10c2b4:	e0522003 	subs	r2, r2, r3
  10c2b8:	0affffee 	beq	10c278 <strncasecmp+0x30>
  10c2bc:	e1a00002 	mov	r0, r2
  10c2c0:	e8bd8010 	pop	{r4, pc}
  10c2c4:	e3a02000 	mov	r2, #0
  10c2c8:	e1a00002 	mov	r0, r2
  10c2cc:	e8bd8010 	pop	{r4, pc}
  10c2d0:	e1a00002 	mov	r0, r2
  10c2d4:	e12fff1e 	bx	lr

0010c2d8 <strncmp>:
  10c2d8:	e3520000 	cmp	r2, #0
  10c2dc:	0a000037 	beq	10c3c0 <strncmp+0xe8>
  10c2e0:	e1803001 	orr	r3, r0, r1
  10c2e4:	e2133003 	ands	r3, r3, #3
  10c2e8:	e92d40f0 	push	{r4, r5, r6, r7, lr}
  10c2ec:	1a000021 	bne	10c378 <strncmp+0xa0>
  10c2f0:	e3520003 	cmp	r2, #3
  10c2f4:	9a00001f 	bls	10c378 <strncmp+0xa0>
  10c2f8:	e590c000 	ldr	ip, [r0]
  10c2fc:	e591e000 	ldr	lr, [r1]
  10c300:	e15c000e 	cmp	ip, lr
  10c304:	1a00001b 	bne	10c378 <strncmp+0xa0>
  10c308:	e2522004 	subs	r2, r2, #4
  10c30c:	0a000029 	beq	10c3b8 <strncmp+0xe0>
  10c310:	e30f6eff 	movw	r6, #65279	; 0xfeff
  10c314:	e34f6efe 	movt	r6, #65278	; 0xfefe
  10c318:	e08ce006 	add	lr, ip, r6
  10c31c:	e3087080 	movw	r7, #32896	; 0x8080
  10c320:	e1cec00c 	bic	ip, lr, ip
  10c324:	e3487080 	movt	r7, #32896	; 0x8080
  10c328:	e11c0007 	tst	ip, r7
  10c32c:	1a000021 	bne	10c3b8 <strncmp+0xe0>
  10c330:	e2804004 	add	r4, r0, #4
  10c334:	e281e004 	add	lr, r1, #4
  10c338:	ea000009 	b	10c364 <strncmp+0x8c>
  10c33c:	e4943004 	ldr	r3, [r4], #4
  10c340:	e5915000 	ldr	r5, [r1]
  10c344:	e083c006 	add	ip, r3, r6
  10c348:	e1530005 	cmp	r3, r5
  10c34c:	e1ccc003 	bic	ip, ip, r3
  10c350:	1a000008 	bne	10c378 <strncmp+0xa0>
  10c354:	e2522004 	subs	r2, r2, #4
  10c358:	0a000016 	beq	10c3b8 <strncmp+0xe0>
  10c35c:	e11c0007 	tst	ip, r7
  10c360:	1a000014 	bne	10c3b8 <strncmp+0xe0>
  10c364:	e3520003 	cmp	r2, #3
  10c368:	e1a0100e 	mov	r1, lr
  10c36c:	e1a00004 	mov	r0, r4
  10c370:	e28ee004 	add	lr, lr, #4
  10c374:	8afffff0 	bhi	10c33c <strncmp+0x64>
  10c378:	e5d0c000 	ldrb	ip, [r0]
  10c37c:	e2422001 	sub	r2, r2, #1
  10c380:	e5d13000 	ldrb	r3, [r1]
  10c384:	e153000c 	cmp	r3, ip
  10c388:	1a00000e 	bne	10c3c8 <strncmp+0xf0>
  10c38c:	e3520000 	cmp	r2, #0
  10c390:	13530000 	cmpne	r3, #0
  10c394:	0a000007 	beq	10c3b8 <strncmp+0xe0>
  10c398:	e5f0c001 	ldrb	ip, [r0, #1]!
  10c39c:	e2422001 	sub	r2, r2, #1
  10c3a0:	e5f13001 	ldrb	r3, [r1, #1]!
  10c3a4:	e15c0003 	cmp	ip, r3
  10c3a8:	1a000006 	bne	10c3c8 <strncmp+0xf0>
  10c3ac:	e3520000 	cmp	r2, #0
  10c3b0:	135c0000 	cmpne	ip, #0
  10c3b4:	1afffff7 	bne	10c398 <strncmp+0xc0>
  10c3b8:	e3a00000 	mov	r0, #0
  10c3bc:	e8bd80f0 	pop	{r4, r5, r6, r7, pc}
  10c3c0:	e1a00002 	mov	r0, r2
  10c3c4:	e12fff1e 	bx	lr
  10c3c8:	e04c0003 	sub	r0, ip, r3
  10c3cc:	e8bd80f0 	pop	{r4, r5, r6, r7, pc}

0010c3d0 <strncpy>:
  10c3d0:	e3520003 	cmp	r2, #3
  10c3d4:	e1803001 	orr	r3, r0, r1
  10c3d8:	e7e1c053 	ubfx	ip, r3, #0, #2
  10c3dc:	e92d4070 	push	{r4, r5, r6, lr}
  10c3e0:	93a0e000 	movls	lr, #0
  10c3e4:	83a0e001 	movhi	lr, #1
  10c3e8:	e35c0000 	cmp	ip, #0
  10c3ec:	13a0e000 	movne	lr, #0
  10c3f0:	e35e0000 	cmp	lr, #0
  10c3f4:	01a04000 	moveq	r4, r0
  10c3f8:	1a000016 	bne	10c458 <strncpy+0x88>
  10c3fc:	e3520000 	cmp	r2, #0
  10c400:	08bd8070 	popeq	{r4, r5, r6, pc}
  10c404:	e5d1c000 	ldrb	ip, [r1]
  10c408:	e2422001 	sub	r2, r2, #1
  10c40c:	e2843001 	add	r3, r4, #1
  10c410:	e35c0000 	cmp	ip, #0
  10c414:	e5c4c000 	strb	ip, [r4]
  10c418:	0a000006 	beq	10c438 <strncpy+0x68>
  10c41c:	e3520000 	cmp	r2, #0
  10c420:	e2422001 	sub	r2, r2, #1
  10c424:	08bd8070 	popeq	{r4, r5, r6, pc}
  10c428:	e5f1c001 	ldrb	ip, [r1, #1]!
  10c42c:	e35c0000 	cmp	ip, #0
  10c430:	e4c3c001 	strb	ip, [r3], #1
  10c434:	1afffff8 	bne	10c41c <strncpy+0x4c>
  10c438:	e3520000 	cmp	r2, #0
  10c43c:	08bd8070 	popeq	{r4, r5, r6, pc}
  10c440:	e0832002 	add	r2, r3, r2
  10c444:	e3a01000 	mov	r1, #0
  10c448:	e4c31001 	strb	r1, [r3], #1
  10c44c:	e1530002 	cmp	r3, r2
  10c450:	1afffffc 	bne	10c448 <strncpy+0x78>
  10c454:	e8bd8070 	pop	{r4, r5, r6, pc}
  10c458:	e30f6eff 	movw	r6, #65279	; 0xfeff
  10c45c:	e3085080 	movw	r5, #32896	; 0x8080
  10c460:	e34f6efe 	movt	r6, #65278	; 0xfefe
  10c464:	e3485080 	movt	r5, #32896	; 0x8080
  10c468:	e1a03001 	mov	r3, r1
  10c46c:	e1a04000 	mov	r4, r0
  10c470:	e1a01003 	mov	r1, r3
  10c474:	e493e004 	ldr	lr, [r3], #4
  10c478:	e08ec006 	add	ip, lr, r6
  10c47c:	e1ccc00e 	bic	ip, ip, lr
  10c480:	e11c0005 	tst	ip, r5
  10c484:	1affffde 	bne	10c404 <strncpy+0x34>
  10c488:	e2422004 	sub	r2, r2, #4
  10c48c:	e484e004 	str	lr, [r4], #4
  10c490:	e3520003 	cmp	r2, #3
  10c494:	e1a01003 	mov	r1, r3
  10c498:	8afffff4 	bhi	10c470 <strncpy+0xa0>
  10c49c:	e3520000 	cmp	r2, #0
  10c4a0:	1affffd7 	bne	10c404 <strncpy+0x34>
  10c4a4:	e8bd8070 	pop	{r4, r5, r6, pc}

0010c4a8 <_strtol_r>:
  10c4a8:	e92d4ff0 	push	{r4, r5, r6, r7, r8, r9, sl, fp, lr}
  10c4ac:	e300c104 	movw	ip, #260	; 0x104
  10c4b0:	e24dd00c 	sub	sp, sp, #12
  10c4b4:	e340c011 	movt	ip, #17
  10c4b8:	e1a08003 	mov	r8, r3
  10c4bc:	e1a0a001 	mov	sl, r1
  10c4c0:	e58d0004 	str	r0, [sp, #4]
  10c4c4:	e1a0b002 	mov	fp, r2
  10c4c8:	e59c7000 	ldr	r7, [ip]
  10c4cc:	e1a03001 	mov	r3, r1
  10c4d0:	ea000000 	b	10c4d8 <_strtol_r+0x30>
  10c4d4:	e1a03005 	mov	r3, r5
  10c4d8:	e1a05003 	mov	r5, r3
  10c4dc:	e4d54001 	ldrb	r4, [r5], #1
  10c4e0:	e0872004 	add	r2, r7, r4
  10c4e4:	e5d26001 	ldrb	r6, [r2, #1]
  10c4e8:	e2166008 	ands	r6, r6, #8
  10c4ec:	1afffff8 	bne	10c4d4 <_strtol_r+0x2c>
  10c4f0:	e354002d 	cmp	r4, #45	; 0x2d
  10c4f4:	0a000047 	beq	10c618 <_strtol_r+0x170>
  10c4f8:	e354002b 	cmp	r4, #43	; 0x2b
  10c4fc:	02835002 	addeq	r5, r3, #2
  10c500:	05d34001 	ldrbeq	r4, [r3, #1]
  10c504:	e3d83010 	bics	r3, r8, #16
  10c508:	1a000003 	bne	10c51c <_strtol_r+0x74>
  10c50c:	e3540030 	cmp	r4, #48	; 0x30
  10c510:	0a000044 	beq	10c628 <_strtol_r+0x180>
  10c514:	e3580000 	cmp	r8, #0
  10c518:	03a0800a 	moveq	r8, #10
  10c51c:	e1a09008 	mov	r9, r8
  10c520:	e3560000 	cmp	r6, #0
  10c524:	e1a01009 	mov	r1, r9
  10c528:	03e03102 	mvneq	r3, #-2147483648	; 0x80000000
  10c52c:	13a03102 	movne	r3, #-2147483648	; 0x80000000
  10c530:	e1a00003 	mov	r0, r3
  10c534:	e58d3000 	str	r3, [sp]
  10c538:	eb00094c 	bl	10ea70 <__aeabi_uidivmod>
  10c53c:	e3a02000 	mov	r2, #0
  10c540:	e59d3000 	ldr	r3, [sp]
  10c544:	e1a0e000 	mov	lr, r0
  10c548:	e1a00002 	mov	r0, r2
  10c54c:	ea000009 	b	10c578 <_strtol_r+0xd0>
  10c550:	e040200e 	sub	r2, r0, lr
  10c554:	e1540001 	cmp	r4, r1
  10c558:	e16f2f12 	clz	r2, r2
  10c55c:	e1a022a2 	lsr	r2, r2, #5
  10c560:	d3a02000 	movle	r2, #0
  10c564:	e3520000 	cmp	r2, #0
  10c568:	1a000014 	bne	10c5c0 <_strtol_r+0x118>
  10c56c:	e0204099 	mla	r0, r9, r0, r4
  10c570:	e3a02001 	mov	r2, #1
  10c574:	e4d54001 	ldrb	r4, [r5], #1
  10c578:	e087c004 	add	ip, r7, r4
  10c57c:	e5dcc001 	ldrb	ip, [ip, #1]
  10c580:	e31c0004 	tst	ip, #4
  10c584:	12444030 	subne	r4, r4, #48	; 0x30
  10c588:	1a000005 	bne	10c5a4 <_strtol_r+0xfc>
  10c58c:	e21cc003 	ands	ip, ip, #3
  10c590:	0a00000c 	beq	10c5c8 <_strtol_r+0x120>
  10c594:	e35c0001 	cmp	ip, #1
  10c598:	13a0c057 	movne	ip, #87	; 0x57
  10c59c:	03a0c037 	moveq	ip, #55	; 0x37
  10c5a0:	e044400c 	sub	r4, r4, ip
  10c5a4:	e1580004 	cmp	r8, r4
  10c5a8:	da000006 	ble	10c5c8 <_strtol_r+0x120>
  10c5ac:	e150000e 	cmp	r0, lr
  10c5b0:	93a0c000 	movls	ip, #0
  10c5b4:	83a0c001 	movhi	ip, #1
  10c5b8:	e19c2fa2 	orrs	r2, ip, r2, lsr #31
  10c5bc:	0affffe3 	beq	10c550 <_strtol_r+0xa8>
  10c5c0:	e3e02000 	mvn	r2, #0
  10c5c4:	eaffffea 	b	10c574 <_strtol_r+0xcc>
  10c5c8:	e3720001 	cmn	r2, #1
  10c5cc:	0a000008 	beq	10c5f4 <_strtol_r+0x14c>
  10c5d0:	e3560000 	cmp	r6, #0
  10c5d4:	12600000 	rsbne	r0, r0, #0
  10c5d8:	e35b0000 	cmp	fp, #0
  10c5dc:	0a000002 	beq	10c5ec <_strtol_r+0x144>
  10c5e0:	e3520000 	cmp	r2, #0
  10c5e4:	1a000018 	bne	10c64c <_strtol_r+0x1a4>
  10c5e8:	e58ba000 	str	sl, [fp]
  10c5ec:	e28dd00c 	add	sp, sp, #12
  10c5f0:	e8bd8ff0 	pop	{r4, r5, r6, r7, r8, r9, sl, fp, pc}
  10c5f4:	e59d1004 	ldr	r1, [sp, #4]
  10c5f8:	e35b0000 	cmp	fp, #0
  10c5fc:	e3a02022 	mov	r2, #34	; 0x22
  10c600:	01a00003 	moveq	r0, r3
  10c604:	e5812000 	str	r2, [r1]
  10c608:	0afffff7 	beq	10c5ec <_strtol_r+0x144>
  10c60c:	e245a001 	sub	sl, r5, #1
  10c610:	e1a00003 	mov	r0, r3
  10c614:	eafffff3 	b	10c5e8 <_strtol_r+0x140>
  10c618:	e2835002 	add	r5, r3, #2
  10c61c:	e5d34001 	ldrb	r4, [r3, #1]
  10c620:	e3a06001 	mov	r6, #1
  10c624:	eaffffb6 	b	10c504 <_strtol_r+0x5c>
  10c628:	e5d53000 	ldrb	r3, [r5]
  10c62c:	e20330df 	and	r3, r3, #223	; 0xdf
  10c630:	e3530058 	cmp	r3, #88	; 0x58
  10c634:	1a000006 	bne	10c654 <_strtol_r+0x1ac>
  10c638:	e3a08010 	mov	r8, #16
  10c63c:	e5d54001 	ldrb	r4, [r5, #1]
  10c640:	e1a09008 	mov	r9, r8
  10c644:	e2855002 	add	r5, r5, #2
  10c648:	eaffffb4 	b	10c520 <_strtol_r+0x78>
  10c64c:	e1a03000 	mov	r3, r0
  10c650:	eaffffed 	b	10c60c <_strtol_r+0x164>
  10c654:	e3580000 	cmp	r8, #0
  10c658:	03a08008 	moveq	r8, #8
  10c65c:	01a09008 	moveq	r9, r8
  10c660:	0affffae 	beq	10c520 <_strtol_r+0x78>
  10c664:	eaffffac 	b	10c51c <_strtol_r+0x74>

0010c668 <strtol>:
  10c668:	e30fc740 	movw	ip, #63296	; 0xf740
  10c66c:	e340c010 	movt	ip, #16
  10c670:	e1a03002 	mov	r3, r2
  10c674:	e1a02001 	mov	r2, r1
  10c678:	e1a01000 	mov	r1, r0
  10c67c:	e59c0000 	ldr	r0, [ip]
  10c680:	eaffff88 	b	10c4a8 <_strtol_r>

0010c684 <__sprint_r.part.0>:
  10c684:	e92d4ff8 	push	{r3, r4, r5, r6, r7, r8, r9, sl, fp, lr}
  10c688:	e1a0a002 	mov	sl, r2
  10c68c:	e5913064 	ldr	r3, [r1, #100]	; 0x64
  10c690:	e3130a02 	tst	r3, #8192	; 0x2000
  10c694:	0a000022 	beq	10c724 <__sprint_r.part.0+0xa0>
  10c698:	e5923008 	ldr	r3, [r2, #8]
  10c69c:	e5929000 	ldr	r9, [r2]
  10c6a0:	e3530000 	cmp	r3, #0
  10c6a4:	12899008 	addne	r9, r9, #8
  10c6a8:	11a06001 	movne	r6, r1
  10c6ac:	11a07000 	movne	r7, r0
  10c6b0:	0a000019 	beq	10c71c <__sprint_r.part.0+0x98>
  10c6b4:	e9190820 	ldmdb	r9, {r5, fp}
  10c6b8:	e1b0812b 	lsrs	r8, fp, #2
  10c6bc:	0a000010 	beq	10c704 <__sprint_r.part.0+0x80>
  10c6c0:	e2455004 	sub	r5, r5, #4
  10c6c4:	e3a04000 	mov	r4, #0
  10c6c8:	ea000001 	b	10c6d4 <__sprint_r.part.0+0x50>
  10c6cc:	e1580004 	cmp	r8, r4
  10c6d0:	0a00000a 	beq	10c700 <__sprint_r.part.0+0x7c>
  10c6d4:	e1a02006 	mov	r2, r6
  10c6d8:	e5b51004 	ldr	r1, [r5, #4]!
  10c6dc:	e1a00007 	mov	r0, r7
  10c6e0:	e2844001 	add	r4, r4, #1
  10c6e4:	eb000734 	bl	10e3bc <_fputwc_r>
  10c6e8:	e3700001 	cmn	r0, #1
  10c6ec:	1afffff6 	bne	10c6cc <__sprint_r.part.0+0x48>
  10c6f0:	e3a03000 	mov	r3, #0
  10c6f4:	e58a3008 	str	r3, [sl, #8]
  10c6f8:	e58a3004 	str	r3, [sl, #4]
  10c6fc:	e8bd8ff8 	pop	{r3, r4, r5, r6, r7, r8, r9, sl, fp, pc}
  10c700:	e59a3008 	ldr	r3, [sl, #8]
  10c704:	e3cbb003 	bic	fp, fp, #3
  10c708:	e2899008 	add	r9, r9, #8
  10c70c:	e043300b 	sub	r3, r3, fp
  10c710:	e58a3008 	str	r3, [sl, #8]
  10c714:	e3530000 	cmp	r3, #0
  10c718:	1affffe5 	bne	10c6b4 <__sprint_r.part.0+0x30>
  10c71c:	e3a00000 	mov	r0, #0
  10c720:	eafffff2 	b	10c6f0 <__sprint_r.part.0+0x6c>
  10c724:	ebffee71 	bl	1080f0 <__sfvwrite_r>
  10c728:	eafffff0 	b	10c6f0 <__sprint_r.part.0+0x6c>

0010c72c <__sprint_r>:
  10c72c:	e5923008 	ldr	r3, [r2, #8]
  10c730:	e3530000 	cmp	r3, #0
  10c734:	0a000000 	beq	10c73c <__sprint_r+0x10>
  10c738:	eaffffd1 	b	10c684 <__sprint_r.part.0>
  10c73c:	e5823004 	str	r3, [r2, #4]
  10c740:	e1a00003 	mov	r0, r3
  10c744:	e12fff1e 	bx	lr

0010c748 <_vfiprintf_r>:
  10c748:	e92d4ff0 	push	{r4, r5, r6, r7, r8, r9, sl, fp, lr}
  10c74c:	e24ddf47 	sub	sp, sp, #284	; 0x11c
  10c750:	e28db058 	add	fp, sp, #88	; 0x58
  10c754:	e1a08000 	mov	r8, r0
  10c758:	e58d100c 	str	r1, [sp, #12]
  10c75c:	e1a0a002 	mov	sl, r2
  10c760:	e1a0000b 	mov	r0, fp
  10c764:	e3a02008 	mov	r2, #8
  10c768:	e3a01000 	mov	r1, #0
  10c76c:	e1a04003 	mov	r4, r3
  10c770:	ebfff7a1 	bl	10a5fc <memset>
  10c774:	e3580000 	cmp	r8, #0
  10c778:	e58d401c 	str	r4, [sp, #28]
  10c77c:	0a000002 	beq	10c78c <_vfiprintf_r+0x44>
  10c780:	e5983038 	ldr	r3, [r8, #56]	; 0x38
  10c784:	e3530000 	cmp	r3, #0
  10c788:	0a00033f 	beq	10d48c <_vfiprintf_r+0xd44>
  10c78c:	e59d100c 	ldr	r1, [sp, #12]
  10c790:	e1d120fc 	ldrsh	r2, [r1, #12]
  10c794:	e6ff3072 	uxth	r3, r2
  10c798:	e3130a02 	tst	r3, #8192	; 0x2000
  10c79c:	1a000005 	bne	10c7b8 <_vfiprintf_r+0x70>
  10c7a0:	e3823a02 	orr	r3, r2, #8192	; 0x2000
  10c7a4:	e5912064 	ldr	r2, [r1, #100]	; 0x64
  10c7a8:	e1c130bc 	strh	r3, [r1, #12]
  10c7ac:	e6ff3073 	uxth	r3, r3
  10c7b0:	e3c22a02 	bic	r2, r2, #8192	; 0x2000
  10c7b4:	e5812064 	str	r2, [r1, #100]	; 0x64
  10c7b8:	e3130008 	tst	r3, #8
  10c7bc:	0a000030 	beq	10c884 <_vfiprintf_r+0x13c>
  10c7c0:	e59d200c 	ldr	r2, [sp, #12]
  10c7c4:	e5922010 	ldr	r2, [r2, #16]
  10c7c8:	e3520000 	cmp	r2, #0
  10c7cc:	0a00002c 	beq	10c884 <_vfiprintf_r+0x13c>
  10c7d0:	e203301a 	and	r3, r3, #26
  10c7d4:	e353000a 	cmp	r3, #10
  10c7d8:	0a000033 	beq	10c8ac <_vfiprintf_r+0x164>
  10c7dc:	e3a03000 	mov	r3, #0
  10c7e0:	e58d3034 	str	r3, [sp, #52]	; 0x34
  10c7e4:	e58d3070 	str	r3, [sp, #112]	; 0x70
  10c7e8:	e58d306c 	str	r3, [sp, #108]	; 0x6c
  10c7ec:	e58d3038 	str	r3, [sp, #56]	; 0x38
  10c7f0:	e58d3040 	str	r3, [sp, #64]	; 0x40
  10c7f4:	e58d303c 	str	r3, [sp, #60]	; 0x3c
  10c7f8:	e58d3018 	str	r3, [sp, #24]
  10c7fc:	e28d3074 	add	r3, sp, #116	; 0x74
  10c800:	e58d3068 	str	r3, [sp, #104]	; 0x68
  10c804:	e1a09003 	mov	r9, r3
  10c808:	e3003100 	movw	r3, #256	; 0x100
  10c80c:	e3403011 	movt	r3, #17
  10c810:	e58d3030 	str	r3, [sp, #48]	; 0x30
  10c814:	e1a0400a 	mov	r4, sl
  10c818:	e59d6030 	ldr	r6, [sp, #48]	; 0x30
  10c81c:	ea000003 	b	10c830 <_vfiprintf_r+0xe8>
  10c820:	e59d2050 	ldr	r2, [sp, #80]	; 0x50
  10c824:	e3520025 	cmp	r2, #37	; 0x25
  10c828:	0a00002b 	beq	10c8dc <_vfiprintf_r+0x194>
  10c82c:	e0844003 	add	r4, r4, r3
  10c830:	e5965000 	ldr	r5, [r6]
  10c834:	ebfff2dc 	bl	1093ac <__locale_mb_cur_max>
  10c838:	e1a07000 	mov	r7, r0
  10c83c:	ebfff2d7 	bl	1093a0 <__locale_charset>
  10c840:	e1a03007 	mov	r3, r7
  10c844:	e58db004 	str	fp, [sp, #4]
  10c848:	e1a02004 	mov	r2, r4
  10c84c:	e28d1050 	add	r1, sp, #80	; 0x50
  10c850:	e58d0000 	str	r0, [sp]
  10c854:	e1a00008 	mov	r0, r8
  10c858:	e12fff35 	blx	r5
  10c85c:	e3500000 	cmp	r0, #0
  10c860:	e1a03000 	mov	r3, r0
  10c864:	0a00001c 	beq	10c8dc <_vfiprintf_r+0x194>
  10c868:	aaffffec 	bge	10c820 <_vfiprintf_r+0xd8>
  10c86c:	e3a02008 	mov	r2, #8
  10c870:	e3a01000 	mov	r1, #0
  10c874:	e1a0000b 	mov	r0, fp
  10c878:	ebfff75f 	bl	10a5fc <memset>
  10c87c:	e3a03001 	mov	r3, #1
  10c880:	eaffffe9 	b	10c82c <_vfiprintf_r+0xe4>
  10c884:	e59d500c 	ldr	r5, [sp, #12]
  10c888:	e1a00008 	mov	r0, r8
  10c88c:	e1a01005 	mov	r1, r5
  10c890:	ebffe60e 	bl	1060d0 <__swsetup_r>
  10c894:	e3500000 	cmp	r0, #0
  10c898:	1a000546 	bne	10ddb8 <_vfiprintf_r+0x1670>
  10c89c:	e1d530bc 	ldrh	r3, [r5, #12]
  10c8a0:	e203301a 	and	r3, r3, #26
  10c8a4:	e353000a 	cmp	r3, #10
  10c8a8:	1affffcb 	bne	10c7dc <_vfiprintf_r+0x94>
  10c8ac:	e59d100c 	ldr	r1, [sp, #12]
  10c8b0:	e1d130fe 	ldrsh	r3, [r1, #14]
  10c8b4:	e3530000 	cmp	r3, #0
  10c8b8:	baffffc7 	blt	10c7dc <_vfiprintf_r+0x94>
  10c8bc:	e1a03004 	mov	r3, r4
  10c8c0:	e1a0200a 	mov	r2, sl
  10c8c4:	e1a00008 	mov	r0, r8
  10c8c8:	eb00054d 	bl	10de04 <__sbprintf>
  10c8cc:	e58d0018 	str	r0, [sp, #24]
  10c8d0:	e59d0018 	ldr	r0, [sp, #24]
  10c8d4:	e28ddf47 	add	sp, sp, #284	; 0x11c
  10c8d8:	e8bd8ff0 	pop	{r4, r5, r6, r7, r8, r9, sl, fp, pc}
  10c8dc:	e054600a 	subs	r6, r4, sl
  10c8e0:	e1a05000 	mov	r5, r0
  10c8e4:	0a000010 	beq	10c92c <_vfiprintf_r+0x1e4>
  10c8e8:	e59d306c 	ldr	r3, [sp, #108]	; 0x6c
  10c8ec:	e59d2070 	ldr	r2, [sp, #112]	; 0x70
  10c8f0:	e2833001 	add	r3, r3, #1
  10c8f4:	e589a000 	str	sl, [r9]
  10c8f8:	e3530007 	cmp	r3, #7
  10c8fc:	e58d306c 	str	r3, [sp, #108]	; 0x6c
  10c900:	e5896004 	str	r6, [r9, #4]
  10c904:	e0863002 	add	r3, r6, r2
  10c908:	e58d3070 	str	r3, [sp, #112]	; 0x70
  10c90c:	da00008c 	ble	10cb44 <_vfiprintf_r+0x3fc>
  10c910:	e3530000 	cmp	r3, #0
  10c914:	1a0003ea 	bne	10d8c4 <_vfiprintf_r+0x117c>
  10c918:	e28d9074 	add	r9, sp, #116	; 0x74
  10c91c:	e58d306c 	str	r3, [sp, #108]	; 0x6c
  10c920:	e59d3018 	ldr	r3, [sp, #24]
  10c924:	e0833006 	add	r3, r3, r6
  10c928:	e58d3018 	str	r3, [sp, #24]
  10c92c:	e3550000 	cmp	r5, #0
  10c930:	0a0004a4 	beq	10dbc8 <_vfiprintf_r+0x1480>
  10c934:	e3a03000 	mov	r3, #0
  10c938:	e58d3014 	str	r3, [sp, #20]
  10c93c:	e1a06003 	mov	r6, r3
  10c940:	e5cd304b 	strb	r3, [sp, #75]	; 0x4b
  10c944:	e5d43001 	ldrb	r3, [r4, #1]
  10c948:	e3e07000 	mvn	r7, #0
  10c94c:	e284a001 	add	sl, r4, #1
  10c950:	e1a05007 	mov	r5, r7
  10c954:	e28aa001 	add	sl, sl, #1
  10c958:	e2432020 	sub	r2, r3, #32
  10c95c:	e352005a 	cmp	r2, #90	; 0x5a
  10c960:	979ff102 	ldrls	pc, [pc, r2, lsl #2]
  10c964:	ea0002cb 	b	10d498 <_vfiprintf_r+0xd50>
  10c968:	0010d174 	.word	0x0010d174
  10c96c:	0010d498 	.word	0x0010d498
  10c970:	0010d498 	.word	0x0010d498
  10c974:	0010d168 	.word	0x0010d168
  10c978:	0010d498 	.word	0x0010d498
  10c97c:	0010d498 	.word	0x0010d498
  10c980:	0010d498 	.word	0x0010d498
  10c984:	0010d118 	.word	0x0010d118
  10c988:	0010d498 	.word	0x0010d498
  10c98c:	0010d498 	.word	0x0010d498
  10c990:	0010d0e8 	.word	0x0010d0e8
  10c994:	0010d0d8 	.word	0x0010d0d8
  10c998:	0010d498 	.word	0x0010d498
  10c99c:	0010d0cc 	.word	0x0010d0cc
  10c9a0:	0010d3ec 	.word	0x0010d3ec
  10c9a4:	0010d498 	.word	0x0010d498
  10c9a8:	0010d0c0 	.word	0x0010d0c0
  10c9ac:	0010d028 	.word	0x0010d028
  10c9b0:	0010d028 	.word	0x0010d028
  10c9b4:	0010d028 	.word	0x0010d028
  10c9b8:	0010d028 	.word	0x0010d028
  10c9bc:	0010d028 	.word	0x0010d028
  10c9c0:	0010d028 	.word	0x0010d028
  10c9c4:	0010d028 	.word	0x0010d028
  10c9c8:	0010d028 	.word	0x0010d028
  10c9cc:	0010d028 	.word	0x0010d028
  10c9d0:	0010d498 	.word	0x0010d498
  10c9d4:	0010d498 	.word	0x0010d498
  10c9d8:	0010d498 	.word	0x0010d498
  10c9dc:	0010d498 	.word	0x0010d498
  10c9e0:	0010d498 	.word	0x0010d498
  10c9e4:	0010d498 	.word	0x0010d498
  10c9e8:	0010d498 	.word	0x0010d498
  10c9ec:	0010d498 	.word	0x0010d498
  10c9f0:	0010d498 	.word	0x0010d498
  10c9f4:	0010d050 	.word	0x0010d050
  10c9f8:	0010d39c 	.word	0x0010d39c
  10c9fc:	0010d498 	.word	0x0010d498
  10ca00:	0010d498 	.word	0x0010d498
  10ca04:	0010d498 	.word	0x0010d498
  10ca08:	0010d498 	.word	0x0010d498
  10ca0c:	0010d498 	.word	0x0010d498
  10ca10:	0010d498 	.word	0x0010d498
  10ca14:	0010d498 	.word	0x0010d498
  10ca18:	0010d498 	.word	0x0010d498
  10ca1c:	0010d498 	.word	0x0010d498
  10ca20:	0010d498 	.word	0x0010d498
  10ca24:	0010cae0 	.word	0x0010cae0
  10ca28:	0010d498 	.word	0x0010d498
  10ca2c:	0010d498 	.word	0x0010d498
  10ca30:	0010d498 	.word	0x0010d498
  10ca34:	0010d274 	.word	0x0010d274
  10ca38:	0010d498 	.word	0x0010d498
  10ca3c:	0010cb14 	.word	0x0010cb14
  10ca40:	0010d498 	.word	0x0010d498
  10ca44:	0010d498 	.word	0x0010d498
  10ca48:	0010d234 	.word	0x0010d234
  10ca4c:	0010d498 	.word	0x0010d498
  10ca50:	0010d498 	.word	0x0010d498
  10ca54:	0010d498 	.word	0x0010d498
  10ca58:	0010d498 	.word	0x0010d498
  10ca5c:	0010d498 	.word	0x0010d498
  10ca60:	0010d498 	.word	0x0010d498
  10ca64:	0010d498 	.word	0x0010d498
  10ca68:	0010d498 	.word	0x0010d498
  10ca6c:	0010d498 	.word	0x0010d498
  10ca70:	0010d498 	.word	0x0010d498
  10ca74:	0010d050 	.word	0x0010d050
  10ca78:	0010cf9c 	.word	0x0010cf9c
  10ca7c:	0010d498 	.word	0x0010d498
  10ca80:	0010d498 	.word	0x0010d498
  10ca84:	0010d498 	.word	0x0010d498
  10ca88:	0010d218 	.word	0x0010d218
  10ca8c:	0010cf9c 	.word	0x0010cf9c
  10ca90:	0010cad4 	.word	0x0010cad4
  10ca94:	0010d498 	.word	0x0010d498
  10ca98:	0010d1fc 	.word	0x0010d1fc
  10ca9c:	0010d498 	.word	0x0010d498
  10caa0:	0010d1c4 	.word	0x0010d1c4
  10caa4:	0010cae4 	.word	0x0010cae4
  10caa8:	0010d18c 	.word	0x0010d18c
  10caac:	0010cad4 	.word	0x0010cad4
  10cab0:	0010d498 	.word	0x0010d498
  10cab4:	0010d274 	.word	0x0010d274
  10cab8:	0010cad8 	.word	0x0010cad8
  10cabc:	0010cb18 	.word	0x0010cb18
  10cac0:	0010d498 	.word	0x0010d498
  10cac4:	0010d498 	.word	0x0010d498
  10cac8:	0010cb4c 	.word	0x0010cb4c
  10cacc:	0010d498 	.word	0x0010d498
  10cad0:	0010cad8 	.word	0x0010cad8
  10cad4:	e3866020 	orr	r6, r6, #32
  10cad8:	e5da3000 	ldrb	r3, [sl]
  10cadc:	eaffff9c 	b	10c954 <_vfiprintf_r+0x20c>
  10cae0:	e3866010 	orr	r6, r6, #16
  10cae4:	e3160020 	tst	r6, #32
  10cae8:	0a00025c 	beq	10d460 <_vfiprintf_r+0xd18>
  10caec:	e59d301c 	ldr	r3, [sp, #28]
  10caf0:	e2833007 	add	r3, r3, #7
  10caf4:	e3c33007 	bic	r3, r3, #7
  10caf8:	e2832008 	add	r2, r3, #8
  10cafc:	e58d201c 	str	r2, [sp, #28]
  10cb00:	e1c340d0 	ldrd	r4, [r3]
  10cb04:	e3c63b01 	bic	r3, r6, #1024	; 0x400
  10cb08:	e3a02000 	mov	r2, #0
  10cb0c:	e58d3008 	str	r3, [sp, #8]
  10cb10:	ea000023 	b	10cba4 <_vfiprintf_r+0x45c>
  10cb14:	e3866010 	orr	r6, r6, #16
  10cb18:	e3160020 	tst	r6, #32
  10cb1c:	0a000242 	beq	10d42c <_vfiprintf_r+0xce4>
  10cb20:	e59d301c 	ldr	r3, [sp, #28]
  10cb24:	e3a02001 	mov	r2, #1
  10cb28:	e58d6008 	str	r6, [sp, #8]
  10cb2c:	e2833007 	add	r3, r3, #7
  10cb30:	e3c33007 	bic	r3, r3, #7
  10cb34:	e2831008 	add	r1, r3, #8
  10cb38:	e58d101c 	str	r1, [sp, #28]
  10cb3c:	e1c340d0 	ldrd	r4, [r3]
  10cb40:	ea000017 	b	10cba4 <_vfiprintf_r+0x45c>
  10cb44:	e2899008 	add	r9, r9, #8
  10cb48:	eaffff74 	b	10c920 <_vfiprintf_r+0x1d8>
  10cb4c:	e3160020 	tst	r6, #32
  10cb50:	e30f2594 	movw	r2, #62868	; 0xf594
  10cb54:	e3402010 	movt	r2, #16
  10cb58:	e58d2034 	str	r2, [sp, #52]	; 0x34
  10cb5c:	0a0001b9 	beq	10d248 <_vfiprintf_r+0xb00>
  10cb60:	e59d201c 	ldr	r2, [sp, #28]
  10cb64:	e2822007 	add	r2, r2, #7
  10cb68:	e3c22007 	bic	r2, r2, #7
  10cb6c:	e2821008 	add	r1, r2, #8
  10cb70:	e58d101c 	str	r1, [sp, #28]
  10cb74:	e1c240d0 	ldrd	r4, [r2]
  10cb78:	e1942005 	orrs	r2, r4, r5
  10cb7c:	12062001 	andne	r2, r6, #1
  10cb80:	03a02000 	moveq	r2, #0
  10cb84:	e3520000 	cmp	r2, #0
  10cb88:	e3a02002 	mov	r2, #2
  10cb8c:	13866002 	orrne	r6, r6, #2
  10cb90:	15cd304d 	strbne	r3, [sp, #77]	; 0x4d
  10cb94:	13a03030 	movne	r3, #48	; 0x30
  10cb98:	15cd304c 	strbne	r3, [sp, #76]	; 0x4c
  10cb9c:	e3c63b01 	bic	r3, r6, #1024	; 0x400
  10cba0:	e58d3008 	str	r3, [sp, #8]
  10cba4:	e3770001 	cmn	r7, #1
  10cba8:	e3a03000 	mov	r3, #0
  10cbac:	e5cd304b 	strb	r3, [sp, #75]	; 0x4b
  10cbb0:	e28d3f46 	add	r3, sp, #280	; 0x118
  10cbb4:	e58d3010 	str	r3, [sp, #16]
  10cbb8:	0a0002d1 	beq	10d704 <_vfiprintf_r+0xfbc>
  10cbbc:	e1943005 	orrs	r3, r4, r5
  10cbc0:	e59d3008 	ldr	r3, [sp, #8]
  10cbc4:	e3c36080 	bic	r6, r3, #128	; 0x80
  10cbc8:	13a03001 	movne	r3, #1
  10cbcc:	03a03000 	moveq	r3, #0
  10cbd0:	e3570000 	cmp	r7, #0
  10cbd4:	13a03001 	movne	r3, #1
  10cbd8:	e3530000 	cmp	r3, #0
  10cbdc:	1a0002c7 	bne	10d700 <_vfiprintf_r+0xfb8>
  10cbe0:	e3520000 	cmp	r2, #0
  10cbe4:	1a00031c 	bne	10d85c <_vfiprintf_r+0x1114>
  10cbe8:	e59d3008 	ldr	r3, [sp, #8]
  10cbec:	e2133001 	ands	r3, r3, #1
  10cbf0:	e58d3010 	str	r3, [sp, #16]
  10cbf4:	0a00032e 	beq	10d8b4 <_vfiprintf_r+0x116c>
  10cbf8:	e28d1f46 	add	r1, sp, #280	; 0x118
  10cbfc:	e1a07002 	mov	r7, r2
  10cc00:	e3a03030 	mov	r3, #48	; 0x30
  10cc04:	e5613001 	strb	r3, [r1, #-1]!
  10cc08:	e58d102c 	str	r1, [sp, #44]	; 0x2c
  10cc0c:	e59d3010 	ldr	r3, [sp, #16]
  10cc10:	e3a02000 	mov	r2, #0
  10cc14:	e58d2020 	str	r2, [sp, #32]
  10cc18:	e1530007 	cmp	r3, r7
  10cc1c:	b1a03007 	movlt	r3, r7
  10cc20:	e58d3008 	str	r3, [sp, #8]
  10cc24:	e5dd304b 	ldrb	r3, [sp, #75]	; 0x4b
  10cc28:	e3530000 	cmp	r3, #0
  10cc2c:	159d3008 	ldrne	r3, [sp, #8]
  10cc30:	12833001 	addne	r3, r3, #1
  10cc34:	158d3008 	strne	r3, [sp, #8]
  10cc38:	e2163002 	ands	r3, r6, #2
  10cc3c:	e58d3028 	str	r3, [sp, #40]	; 0x28
  10cc40:	e59d106c 	ldr	r1, [sp, #108]	; 0x6c
  10cc44:	159d3008 	ldrne	r3, [sp, #8]
  10cc48:	e281c001 	add	ip, r1, #1
  10cc4c:	e59d2070 	ldr	r2, [sp, #112]	; 0x70
  10cc50:	12833002 	addne	r3, r3, #2
  10cc54:	158d3008 	strne	r3, [sp, #8]
  10cc58:	e2163084 	ands	r3, r6, #132	; 0x84
  10cc5c:	e1a0000c 	mov	r0, ip
  10cc60:	e58d3024 	str	r3, [sp, #36]	; 0x24
  10cc64:	1a000035 	bne	10cd40 <_vfiprintf_r+0x5f8>
  10cc68:	e59d3014 	ldr	r3, [sp, #20]
  10cc6c:	e59de008 	ldr	lr, [sp, #8]
  10cc70:	e043400e 	sub	r4, r3, lr
  10cc74:	e3540000 	cmp	r4, #0
  10cc78:	da000030 	ble	10cd40 <_vfiprintf_r+0x5f8>
  10cc7c:	e3540010 	cmp	r4, #16
  10cc80:	e30f5400 	movw	r5, #62464	; 0xf400
  10cc84:	e3405010 	movt	r5, #16
  10cc88:	da0003e6 	ble	10dc28 <_vfiprintf_r+0x14e0>
  10cc8c:	e3a03010 	mov	r3, #16
  10cc90:	ea000003 	b	10cca4 <_vfiprintf_r+0x55c>
  10cc94:	e2444010 	sub	r4, r4, #16
  10cc98:	e281c001 	add	ip, r1, #1
  10cc9c:	e3540010 	cmp	r4, #16
  10cca0:	da00001c 	ble	10cd18 <_vfiprintf_r+0x5d0>
  10cca4:	e35c0007 	cmp	ip, #7
  10cca8:	e2822010 	add	r2, r2, #16
  10ccac:	e5895000 	str	r5, [r9]
  10ccb0:	e281e002 	add	lr, r1, #2
  10ccb4:	e5893004 	str	r3, [r9, #4]
  10ccb8:	e1a0100c 	mov	r1, ip
  10ccbc:	e58d2070 	str	r2, [sp, #112]	; 0x70
  10ccc0:	e2899008 	add	r9, r9, #8
  10ccc4:	e58dc06c 	str	ip, [sp, #108]	; 0x6c
  10ccc8:	dafffff1 	ble	10cc94 <_vfiprintf_r+0x54c>
  10cccc:	e3520000 	cmp	r2, #0
  10ccd0:	e1a01002 	mov	r1, r2
  10ccd4:	e3a0e001 	mov	lr, #1
  10ccd8:	e28d9074 	add	r9, sp, #116	; 0x74
  10ccdc:	0affffec 	beq	10cc94 <_vfiprintf_r+0x54c>
  10cce0:	e28d2068 	add	r2, sp, #104	; 0x68
  10cce4:	e59d100c 	ldr	r1, [sp, #12]
  10cce8:	e1a00008 	mov	r0, r8
  10ccec:	ebfffe64 	bl	10c684 <__sprint_r.part.0>
  10ccf0:	e3500000 	cmp	r0, #0
  10ccf4:	1a0002e1 	bne	10d880 <_vfiprintf_r+0x1138>
  10ccf8:	e2444010 	sub	r4, r4, #16
  10ccfc:	e59d106c 	ldr	r1, [sp, #108]	; 0x6c
  10cd00:	e3540010 	cmp	r4, #16
  10cd04:	e59d2070 	ldr	r2, [sp, #112]	; 0x70
  10cd08:	e281e001 	add	lr, r1, #1
  10cd0c:	e3a03010 	mov	r3, #16
  10cd10:	e281c001 	add	ip, r1, #1
  10cd14:	caffffe2 	bgt	10cca4 <_vfiprintf_r+0x55c>
  10cd18:	e35e0007 	cmp	lr, #7
  10cd1c:	e0822004 	add	r2, r2, r4
  10cd20:	e5895000 	str	r5, [r9]
  10cd24:	e58d2070 	str	r2, [sp, #112]	; 0x70
  10cd28:	e5894004 	str	r4, [r9, #4]
  10cd2c:	e58de06c 	str	lr, [sp, #108]	; 0x6c
  10cd30:	ca0002a2 	bgt	10d7c0 <_vfiprintf_r+0x1078>
  10cd34:	e2899008 	add	r9, r9, #8
  10cd38:	e28e0001 	add	r0, lr, #1
  10cd3c:	e1a0100e 	mov	r1, lr
  10cd40:	e5dde04b 	ldrb	lr, [sp, #75]	; 0x4b
  10cd44:	e289c008 	add	ip, r9, #8
  10cd48:	e35e0000 	cmp	lr, #0
  10cd4c:	0a0001f9 	beq	10d538 <_vfiprintf_r+0xdf0>
  10cd50:	e3500007 	cmp	r0, #7
  10cd54:	e2822001 	add	r2, r2, #1
  10cd58:	e28de04b 	add	lr, sp, #75	; 0x4b
  10cd5c:	e3a01001 	mov	r1, #1
  10cd60:	e58d006c 	str	r0, [sp, #108]	; 0x6c
  10cd64:	e58d2070 	str	r2, [sp, #112]	; 0x70
  10cd68:	e589e000 	str	lr, [r9]
  10cd6c:	e5891004 	str	r1, [r9, #4]
  10cd70:	da00029e 	ble	10d7f0 <_vfiprintf_r+0x10a8>
  10cd74:	e3520000 	cmp	r2, #0
  10cd78:	1a0001e3 	bne	10d50c <_vfiprintf_r+0xdc4>
  10cd7c:	e59d3028 	ldr	r3, [sp, #40]	; 0x28
  10cd80:	e3530000 	cmp	r3, #0
  10cd84:	1a00029e 	bne	10d804 <_vfiprintf_r+0x10bc>
  10cd88:	e28dc07c 	add	ip, sp, #124	; 0x7c
  10cd8c:	e28d9074 	add	r9, sp, #116	; 0x74
  10cd90:	e1a00001 	mov	r0, r1
  10cd94:	e1a01002 	mov	r1, r2
  10cd98:	e59d3024 	ldr	r3, [sp, #36]	; 0x24
  10cd9c:	e3530080 	cmp	r3, #128	; 0x80
  10cda0:	0a0001f8 	beq	10d588 <_vfiprintf_r+0xe40>
  10cda4:	e59d3010 	ldr	r3, [sp, #16]
  10cda8:	e0475003 	sub	r5, r7, r3
  10cdac:	e3550000 	cmp	r5, #0
  10cdb0:	da00002e 	ble	10ce70 <_vfiprintf_r+0x728>
  10cdb4:	e3550010 	cmp	r5, #16
  10cdb8:	e59f4ff4 	ldr	r4, [pc, #4084]	; 10ddb4 <_vfiprintf_r+0x166c>
  10cdbc:	da000330 	ble	10da84 <_vfiprintf_r+0x133c>
  10cdc0:	e3a07010 	mov	r7, #16
  10cdc4:	ea000002 	b	10cdd4 <_vfiprintf_r+0x68c>
  10cdc8:	e2455010 	sub	r5, r5, #16
  10cdcc:	e3550010 	cmp	r5, #16
  10cdd0:	da00001b 	ble	10ce44 <_vfiprintf_r+0x6fc>
  10cdd4:	e2813001 	add	r3, r1, #1
  10cdd8:	e2822010 	add	r2, r2, #16
  10cddc:	e3530007 	cmp	r3, #7
  10cde0:	e5894000 	str	r4, [r9]
  10cde4:	e2810002 	add	r0, r1, #2
  10cde8:	e5897004 	str	r7, [r9, #4]
  10cdec:	e58d2070 	str	r2, [sp, #112]	; 0x70
  10cdf0:	e1a01003 	mov	r1, r3
  10cdf4:	e58d306c 	str	r3, [sp, #108]	; 0x6c
  10cdf8:	d2899008 	addle	r9, r9, #8
  10cdfc:	dafffff1 	ble	10cdc8 <_vfiprintf_r+0x680>
  10ce00:	e3520000 	cmp	r2, #0
  10ce04:	e3a00001 	mov	r0, #1
  10ce08:	e1a01002 	mov	r1, r2
  10ce0c:	e28d9074 	add	r9, sp, #116	; 0x74
  10ce10:	0affffec 	beq	10cdc8 <_vfiprintf_r+0x680>
  10ce14:	e28d2068 	add	r2, sp, #104	; 0x68
  10ce18:	e59d100c 	ldr	r1, [sp, #12]
  10ce1c:	e1a00008 	mov	r0, r8
  10ce20:	ebfffe17 	bl	10c684 <__sprint_r.part.0>
  10ce24:	e3500000 	cmp	r0, #0
  10ce28:	1a000294 	bne	10d880 <_vfiprintf_r+0x1138>
  10ce2c:	e2455010 	sub	r5, r5, #16
  10ce30:	e59d106c 	ldr	r1, [sp, #108]	; 0x6c
  10ce34:	e3550010 	cmp	r5, #16
  10ce38:	e59d2070 	ldr	r2, [sp, #112]	; 0x70
  10ce3c:	e2810001 	add	r0, r1, #1
  10ce40:	caffffe3 	bgt	10cdd4 <_vfiprintf_r+0x68c>
  10ce44:	e2893008 	add	r3, r9, #8
  10ce48:	e3500007 	cmp	r0, #7
  10ce4c:	e0822005 	add	r2, r2, r5
  10ce50:	e5894000 	str	r4, [r9]
  10ce54:	e58d2070 	str	r2, [sp, #112]	; 0x70
  10ce58:	e5895004 	str	r5, [r9, #4]
  10ce5c:	e58d006c 	str	r0, [sp, #108]	; 0x6c
  10ce60:	ca000272 	bgt	10d830 <_vfiprintf_r+0x10e8>
  10ce64:	e2800001 	add	r0, r0, #1
  10ce68:	e283c008 	add	ip, r3, #8
  10ce6c:	e1a09003 	mov	r9, r3
  10ce70:	e59d3010 	ldr	r3, [sp, #16]
  10ce74:	e3500007 	cmp	r0, #7
  10ce78:	e59d102c 	ldr	r1, [sp, #44]	; 0x2c
  10ce7c:	e0832002 	add	r2, r3, r2
  10ce80:	e58d006c 	str	r0, [sp, #108]	; 0x6c
  10ce84:	e58d2070 	str	r2, [sp, #112]	; 0x70
  10ce88:	e5891000 	str	r1, [r9]
  10ce8c:	e5893004 	str	r3, [r9, #4]
  10ce90:	da0001fa 	ble	10d680 <_vfiprintf_r+0xf38>
  10ce94:	e3520000 	cmp	r2, #0
  10ce98:	1a0001f0 	bne	10d660 <_vfiprintf_r+0xf18>
  10ce9c:	e3160004 	tst	r6, #4
  10cea0:	e58d206c 	str	r2, [sp, #108]	; 0x6c
  10cea4:	0a000035 	beq	10cf80 <_vfiprintf_r+0x838>
  10cea8:	e59d3014 	ldr	r3, [sp, #20]
  10ceac:	e59d1008 	ldr	r1, [sp, #8]
  10ceb0:	e0434001 	sub	r4, r3, r1
  10ceb4:	e3540000 	cmp	r4, #0
  10ceb8:	da000030 	ble	10cf80 <_vfiprintf_r+0x838>
  10cebc:	e28dc074 	add	ip, sp, #116	; 0x74
  10cec0:	e3540010 	cmp	r4, #16
  10cec4:	e59d106c 	ldr	r1, [sp, #108]	; 0x6c
  10cec8:	da00035f 	ble	10dc4c <_vfiprintf_r+0x1504>
  10cecc:	e30f5400 	movw	r5, #62464	; 0xf400
  10ced0:	e3a06010 	mov	r6, #16
  10ced4:	e3405010 	movt	r5, #16
  10ced8:	ea000002 	b	10cee8 <_vfiprintf_r+0x7a0>
  10cedc:	e2444010 	sub	r4, r4, #16
  10cee0:	e3540010 	cmp	r4, #16
  10cee4:	da00001c 	ble	10cf5c <_vfiprintf_r+0x814>
  10cee8:	e2813001 	add	r3, r1, #1
  10ceec:	e2822010 	add	r2, r2, #16
  10cef0:	e3530007 	cmp	r3, #7
  10cef4:	e58c5000 	str	r5, [ip]
  10cef8:	e2810002 	add	r0, r1, #2
  10cefc:	e58c6004 	str	r6, [ip, #4]
  10cf00:	e58d2070 	str	r2, [sp, #112]	; 0x70
  10cf04:	e1a01003 	mov	r1, r3
  10cf08:	e58d306c 	str	r3, [sp, #108]	; 0x6c
  10cf0c:	d28cc008 	addle	ip, ip, #8
  10cf10:	dafffff1 	ble	10cedc <_vfiprintf_r+0x794>
  10cf14:	e3520000 	cmp	r2, #0
  10cf18:	e3a00001 	mov	r0, #1
  10cf1c:	e1a01002 	mov	r1, r2
  10cf20:	e28dc074 	add	ip, sp, #116	; 0x74
  10cf24:	0affffec 	beq	10cedc <_vfiprintf_r+0x794>
  10cf28:	e28d2068 	add	r2, sp, #104	; 0x68
  10cf2c:	e59d100c 	ldr	r1, [sp, #12]
  10cf30:	e1a00008 	mov	r0, r8
  10cf34:	ebfffdd2 	bl	10c684 <__sprint_r.part.0>
  10cf38:	e28dc074 	add	ip, sp, #116	; 0x74
  10cf3c:	e3500000 	cmp	r0, #0
  10cf40:	1a00024e 	bne	10d880 <_vfiprintf_r+0x1138>
  10cf44:	e2444010 	sub	r4, r4, #16
  10cf48:	e59d106c 	ldr	r1, [sp, #108]	; 0x6c
  10cf4c:	e3540010 	cmp	r4, #16
  10cf50:	e59d2070 	ldr	r2, [sp, #112]	; 0x70
  10cf54:	e2810001 	add	r0, r1, #1
  10cf58:	caffffe2 	bgt	10cee8 <_vfiprintf_r+0x7a0>
  10cf5c:	e3500007 	cmp	r0, #7
  10cf60:	e0822004 	add	r2, r2, r4
  10cf64:	e58c5000 	str	r5, [ip]
  10cf68:	e58d2070 	str	r2, [sp, #112]	; 0x70
  10cf6c:	e58c4004 	str	r4, [ip, #4]
  10cf70:	e58d006c 	str	r0, [sp, #108]	; 0x6c
  10cf74:	da0001c8 	ble	10d69c <_vfiprintf_r+0xf54>
  10cf78:	e3520000 	cmp	r2, #0
  10cf7c:	1a00029b 	bne	10d9f0 <_vfiprintf_r+0x12a8>
  10cf80:	e1cd21d4 	ldrd	r2, [sp, #20]
  10cf84:	e59d1008 	ldr	r1, [sp, #8]
  10cf88:	e1520001 	cmp	r2, r1
  10cf8c:	a0833002 	addge	r3, r3, r2
  10cf90:	b0833001 	addlt	r3, r3, r1
  10cf94:	e58d3018 	str	r3, [sp, #24]
  10cf98:	ea0001ce 	b	10d6d8 <_vfiprintf_r+0xf90>
  10cf9c:	e58d6008 	str	r6, [sp, #8]
  10cfa0:	e59d3008 	ldr	r3, [sp, #8]
  10cfa4:	e3130020 	tst	r3, #32
  10cfa8:	0a000100 	beq	10d3b0 <_vfiprintf_r+0xc68>
  10cfac:	e59d301c 	ldr	r3, [sp, #28]
  10cfb0:	e2833007 	add	r3, r3, #7
  10cfb4:	e3c33007 	bic	r3, r3, #7
  10cfb8:	e2832008 	add	r2, r3, #8
  10cfbc:	e58d201c 	str	r2, [sp, #28]
  10cfc0:	e1c320d0 	ldrd	r2, [r3]
  10cfc4:	e1a04002 	mov	r4, r2
  10cfc8:	e1a05003 	mov	r5, r3
  10cfcc:	e3520000 	cmp	r2, #0
  10cfd0:	e2d33000 	sbcs	r3, r3, #0
  10cfd4:	aa000003 	bge	10cfe8 <_vfiprintf_r+0x8a0>
  10cfd8:	e2744000 	rsbs	r4, r4, #0
  10cfdc:	e3a0302d 	mov	r3, #45	; 0x2d
  10cfe0:	e2e55000 	rsc	r5, r5, #0
  10cfe4:	e5cd304b 	strb	r3, [sp, #75]	; 0x4b
  10cfe8:	e3770001 	cmn	r7, #1
  10cfec:	e28d3f46 	add	r3, sp, #280	; 0x118
  10cff0:	e58d3010 	str	r3, [sp, #16]
  10cff4:	13a02001 	movne	r2, #1
  10cff8:	1afffeef 	bne	10cbbc <_vfiprintf_r+0x474>
  10cffc:	e3550000 	cmp	r5, #0
  10d000:	03540009 	cmpeq	r4, #9
  10d004:	8a0002a0 	bhi	10da8c <_vfiprintf_r+0x1344>
  10d008:	e28d3f46 	add	r3, sp, #280	; 0x118
  10d00c:	e2844030 	add	r4, r4, #48	; 0x30
  10d010:	e59d6008 	ldr	r6, [sp, #8]
  10d014:	e5634001 	strb	r4, [r3, #-1]!
  10d018:	e58d302c 	str	r3, [sp, #44]	; 0x2c
  10d01c:	e3a03001 	mov	r3, #1
  10d020:	e58d3010 	str	r3, [sp, #16]
  10d024:	eafffef8 	b	10cc0c <_vfiprintf_r+0x4c4>
  10d028:	e2432030 	sub	r2, r3, #48	; 0x30
  10d02c:	e3a01000 	mov	r1, #0
  10d030:	e4da3001 	ldrb	r3, [sl], #1
  10d034:	e3a0000a 	mov	r0, #10
  10d038:	e0212190 	mla	r1, r0, r1, r2
  10d03c:	e2432030 	sub	r2, r3, #48	; 0x30
  10d040:	e3520009 	cmp	r2, #9
  10d044:	9afffff9 	bls	10d030 <_vfiprintf_r+0x8e8>
  10d048:	e58d1014 	str	r1, [sp, #20]
  10d04c:	eafffe41 	b	10c958 <_vfiprintf_r+0x210>
  10d050:	e3530043 	cmp	r3, #67	; 0x43
  10d054:	e59d301c 	ldr	r3, [sp, #28]
  10d058:	e2835004 	add	r5, r3, #4
  10d05c:	0a000001 	beq	10d068 <_vfiprintf_r+0x920>
  10d060:	e3160010 	tst	r6, #16
  10d064:	0a000259 	beq	10d9d0 <_vfiprintf_r+0x1288>
  10d068:	e3a02008 	mov	r2, #8
  10d06c:	e3a01000 	mov	r1, #0
  10d070:	e28d0060 	add	r0, sp, #96	; 0x60
  10d074:	e28d40b4 	add	r4, sp, #180	; 0xb4
  10d078:	ebfff55f 	bl	10a5fc <memset>
  10d07c:	e59d201c 	ldr	r2, [sp, #28]
  10d080:	e28d3060 	add	r3, sp, #96	; 0x60
  10d084:	e1a01004 	mov	r1, r4
  10d088:	e1a00008 	mov	r0, r8
  10d08c:	e5922000 	ldr	r2, [r2]
  10d090:	ebffe2d3 	bl	105be4 <_wcrtomb_r>
  10d094:	e3700001 	cmn	r0, #1
  10d098:	e58d0010 	str	r0, [sp, #16]
  10d09c:	0a00033f 	beq	10dda0 <_vfiprintf_r+0x1658>
  10d0a0:	e59d3010 	ldr	r3, [sp, #16]
  10d0a4:	e1c33fc3 	bic	r3, r3, r3, asr #31
  10d0a8:	e58d3008 	str	r3, [sp, #8]
  10d0ac:	e3a03000 	mov	r3, #0
  10d0b0:	e58d501c 	str	r5, [sp, #28]
  10d0b4:	e58d402c 	str	r4, [sp, #44]	; 0x2c
  10d0b8:	e5cd304b 	strb	r3, [sp, #75]	; 0x4b
  10d0bc:	ea0000ff 	b	10d4c0 <_vfiprintf_r+0xd78>
  10d0c0:	e3866080 	orr	r6, r6, #128	; 0x80
  10d0c4:	e5da3000 	ldrb	r3, [sl]
  10d0c8:	eafffe21 	b	10c954 <_vfiprintf_r+0x20c>
  10d0cc:	e5da3000 	ldrb	r3, [sl]
  10d0d0:	e3866004 	orr	r6, r6, #4
  10d0d4:	eafffe1e 	b	10c954 <_vfiprintf_r+0x20c>
  10d0d8:	e3a0302b 	mov	r3, #43	; 0x2b
  10d0dc:	e5cd304b 	strb	r3, [sp, #75]	; 0x4b
  10d0e0:	e5da3000 	ldrb	r3, [sl]
  10d0e4:	eafffe1a 	b	10c954 <_vfiprintf_r+0x20c>
  10d0e8:	e59d301c 	ldr	r3, [sp, #28]
  10d0ec:	e2832004 	add	r2, r3, #4
  10d0f0:	e5931000 	ldr	r1, [r3]
  10d0f4:	e5da3000 	ldrb	r3, [sl]
  10d0f8:	e3510000 	cmp	r1, #0
  10d0fc:	a58d201c 	strge	r2, [sp, #28]
  10d100:	e58d1014 	str	r1, [sp, #20]
  10d104:	aafffe12 	bge	10c954 <_vfiprintf_r+0x20c>
  10d108:	e2611000 	rsb	r1, r1, #0
  10d10c:	e58d201c 	str	r2, [sp, #28]
  10d110:	e58d1014 	str	r1, [sp, #20]
  10d114:	eaffffed 	b	10d0d0 <_vfiprintf_r+0x988>
  10d118:	e1a00008 	mov	r0, r8
  10d11c:	ebfff0ad 	bl	1093d8 <_localeconv_r>
  10d120:	e5903004 	ldr	r3, [r0, #4]
  10d124:	e1a00003 	mov	r0, r3
  10d128:	e58d303c 	str	r3, [sp, #60]	; 0x3c
  10d12c:	faffd7a3 	blx	102fc0 <strlen>
  10d130:	e1a04000 	mov	r4, r0
  10d134:	e58d0040 	str	r0, [sp, #64]	; 0x40
  10d138:	e1a00008 	mov	r0, r8
  10d13c:	ebfff0a5 	bl	1093d8 <_localeconv_r>
  10d140:	e5903008 	ldr	r3, [r0, #8]
  10d144:	e3540000 	cmp	r4, #0
  10d148:	13530000 	cmpne	r3, #0
  10d14c:	e58d3038 	str	r3, [sp, #56]	; 0x38
  10d150:	0afffe60 	beq	10cad8 <_vfiprintf_r+0x390>
  10d154:	e5d32000 	ldrb	r2, [r3]
  10d158:	e5da3000 	ldrb	r3, [sl]
  10d15c:	e3520000 	cmp	r2, #0
  10d160:	13866b01 	orrne	r6, r6, #1024	; 0x400
  10d164:	eafffdfa 	b	10c954 <_vfiprintf_r+0x20c>
  10d168:	e3866001 	orr	r6, r6, #1
  10d16c:	e5da3000 	ldrb	r3, [sl]
  10d170:	eafffdf7 	b	10c954 <_vfiprintf_r+0x20c>
  10d174:	e5dd204b 	ldrb	r2, [sp, #75]	; 0x4b
  10d178:	e5da3000 	ldrb	r3, [sl]
  10d17c:	e3520000 	cmp	r2, #0
  10d180:	03a02020 	moveq	r2, #32
  10d184:	05cd204b 	strbeq	r2, [sp, #75]	; 0x4b
  10d188:	eafffdf1 	b	10c954 <_vfiprintf_r+0x20c>
  10d18c:	e59d301c 	ldr	r3, [sp, #28]
  10d190:	e3862002 	orr	r2, r6, #2
  10d194:	e3a05000 	mov	r5, #0
  10d198:	e58d2008 	str	r2, [sp, #8]
  10d19c:	e2833004 	add	r3, r3, #4
  10d1a0:	e3a02002 	mov	r2, #2
  10d1a4:	e5134004 	ldr	r4, [r3, #-4]
  10d1a8:	e58d301c 	str	r3, [sp, #28]
  10d1ac:	e3073830 	movw	r3, #30768	; 0x7830
  10d1b0:	e1cd34bc 	strh	r3, [sp, #76]	; 0x4c
  10d1b4:	e30f3594 	movw	r3, #62868	; 0xf594
  10d1b8:	e3403010 	movt	r3, #16
  10d1bc:	e58d3034 	str	r3, [sp, #52]	; 0x34
  10d1c0:	eafffe77 	b	10cba4 <_vfiprintf_r+0x45c>
  10d1c4:	e59d201c 	ldr	r2, [sp, #28]
  10d1c8:	e3160020 	tst	r6, #32
  10d1cc:	e4923004 	ldr	r3, [r2], #4
  10d1d0:	e58d201c 	str	r2, [sp, #28]
  10d1d4:	1a0001f1 	bne	10d9a0 <_vfiprintf_r+0x1258>
  10d1d8:	e3160010 	tst	r6, #16
  10d1dc:	1a00026c 	bne	10db94 <_vfiprintf_r+0x144c>
  10d1e0:	e3160040 	tst	r6, #64	; 0x40
  10d1e4:	1a0002c7 	bne	10dd08 <_vfiprintf_r+0x15c0>
  10d1e8:	e3160c02 	tst	r6, #512	; 0x200
  10d1ec:	0a000268 	beq	10db94 <_vfiprintf_r+0x144c>
  10d1f0:	e59d2018 	ldr	r2, [sp, #24]
  10d1f4:	e5c32000 	strb	r2, [r3]
  10d1f8:	eafffd85 	b	10c814 <_vfiprintf_r+0xcc>
  10d1fc:	e5da3000 	ldrb	r3, [sl]
  10d200:	e353006c 	cmp	r3, #108	; 0x6c
  10d204:	03866020 	orreq	r6, r6, #32
  10d208:	13866010 	orrne	r6, r6, #16
  10d20c:	05da3001 	ldrbeq	r3, [sl, #1]
  10d210:	028aa001 	addeq	sl, sl, #1
  10d214:	eafffdce 	b	10c954 <_vfiprintf_r+0x20c>
  10d218:	e5da3000 	ldrb	r3, [sl]
  10d21c:	e3530068 	cmp	r3, #104	; 0x68
  10d220:	03866c02 	orreq	r6, r6, #512	; 0x200
  10d224:	13866040 	orrne	r6, r6, #64	; 0x40
  10d228:	05da3001 	ldrbeq	r3, [sl, #1]
  10d22c:	028aa001 	addeq	sl, sl, #1
  10d230:	eafffdc7 	b	10c954 <_vfiprintf_r+0x20c>
  10d234:	e3160020 	tst	r6, #32
  10d238:	e30f25a8 	movw	r2, #62888	; 0xf5a8
  10d23c:	e3402010 	movt	r2, #16
  10d240:	e58d2034 	str	r2, [sp, #52]	; 0x34
  10d244:	1afffe45 	bne	10cb60 <_vfiprintf_r+0x418>
  10d248:	e59d101c 	ldr	r1, [sp, #28]
  10d24c:	e3160010 	tst	r6, #16
  10d250:	e2812004 	add	r2, r1, #4
  10d254:	1a0001ae 	bne	10d914 <_vfiprintf_r+0x11cc>
  10d258:	e3160040 	tst	r6, #64	; 0x40
  10d25c:	e59d101c 	ldr	r1, [sp, #28]
  10d260:	0a0001a9 	beq	10d90c <_vfiprintf_r+0x11c4>
  10d264:	e1d140b0 	ldrh	r4, [r1]
  10d268:	e3a05000 	mov	r5, #0
  10d26c:	e58d201c 	str	r2, [sp, #28]
  10d270:	eafffe40 	b	10cb78 <_vfiprintf_r+0x430>
  10d274:	e59d201c 	ldr	r2, [sp, #28]
  10d278:	e2825004 	add	r5, r2, #4
  10d27c:	e5921000 	ldr	r1, [r2]
  10d280:	e3a02000 	mov	r2, #0
  10d284:	e5cd204b 	strb	r2, [sp, #75]	; 0x4b
  10d288:	e1510002 	cmp	r1, r2
  10d28c:	e58d102c 	str	r1, [sp, #44]	; 0x2c
  10d290:	0a000242 	beq	10dba0 <_vfiprintf_r+0x1458>
  10d294:	e3530053 	cmp	r3, #83	; 0x53
  10d298:	0a000001 	beq	10d2a4 <_vfiprintf_r+0xb5c>
  10d29c:	e2164010 	ands	r4, r6, #16
  10d2a0:	0a0001da 	beq	10da10 <_vfiprintf_r+0x12c8>
  10d2a4:	e59d302c 	ldr	r3, [sp, #44]	; 0x2c
  10d2a8:	e3a02008 	mov	r2, #8
  10d2ac:	e3a01000 	mov	r1, #0
  10d2b0:	e28d0060 	add	r0, sp, #96	; 0x60
  10d2b4:	e58d3054 	str	r3, [sp, #84]	; 0x54
  10d2b8:	ebfff4cf 	bl	10a5fc <memset>
  10d2bc:	e3770001 	cmn	r7, #1
  10d2c0:	0a00026b 	beq	10dc74 <_vfiprintf_r+0x152c>
  10d2c4:	e3a04000 	mov	r4, #0
  10d2c8:	e58d6008 	str	r6, [sp, #8]
  10d2cc:	e1a06004 	mov	r6, r4
  10d2d0:	ea000007 	b	10d2f4 <_vfiprintf_r+0xbac>
  10d2d4:	ebffe242 	bl	105be4 <_wcrtomb_r>
  10d2d8:	e3700001 	cmn	r0, #1
  10d2dc:	e0863000 	add	r3, r6, r0
  10d2e0:	0a0002ae 	beq	10dda0 <_vfiprintf_r+0x1658>
  10d2e4:	e1530007 	cmp	r3, r7
  10d2e8:	ca000009 	bgt	10d314 <_vfiprintf_r+0xbcc>
  10d2ec:	e1a06003 	mov	r6, r3
  10d2f0:	0a000007 	beq	10d314 <_vfiprintf_r+0xbcc>
  10d2f4:	e59d2054 	ldr	r2, [sp, #84]	; 0x54
  10d2f8:	e28d3060 	add	r3, sp, #96	; 0x60
  10d2fc:	e28d10b4 	add	r1, sp, #180	; 0xb4
  10d300:	e1a00008 	mov	r0, r8
  10d304:	e7922004 	ldr	r2, [r2, r4]
  10d308:	e2844004 	add	r4, r4, #4
  10d30c:	e3520000 	cmp	r2, #0
  10d310:	1affffef 	bne	10d2d4 <_vfiprintf_r+0xb8c>
  10d314:	e58d6010 	str	r6, [sp, #16]
  10d318:	e59d6008 	ldr	r6, [sp, #8]
  10d31c:	e59d3010 	ldr	r3, [sp, #16]
  10d320:	e3530000 	cmp	r3, #0
  10d324:	0a00024c 	beq	10dc5c <_vfiprintf_r+0x1514>
  10d328:	e3530063 	cmp	r3, #99	; 0x63
  10d32c:	ca000278 	bgt	10dd14 <_vfiprintf_r+0x15cc>
  10d330:	e3a03000 	mov	r3, #0
  10d334:	e58d3020 	str	r3, [sp, #32]
  10d338:	e28d30b4 	add	r3, sp, #180	; 0xb4
  10d33c:	e58d302c 	str	r3, [sp, #44]	; 0x2c
  10d340:	e3a02008 	mov	r2, #8
  10d344:	e3a01000 	mov	r1, #0
  10d348:	e28d0060 	add	r0, sp, #96	; 0x60
  10d34c:	ebfff4aa 	bl	10a5fc <memset>
  10d350:	e59d4010 	ldr	r4, [sp, #16]
  10d354:	e28d3060 	add	r3, sp, #96	; 0x60
  10d358:	e28d2054 	add	r2, sp, #84	; 0x54
  10d35c:	e58d3000 	str	r3, [sp]
  10d360:	e1a00008 	mov	r0, r8
  10d364:	e1a03004 	mov	r3, r4
  10d368:	e59d102c 	ldr	r1, [sp, #44]	; 0x2c
  10d36c:	ebffe262 	bl	105cfc <_wcsrtombs_r>
  10d370:	e1540000 	cmp	r4, r0
  10d374:	1a00013d 	bne	10d870 <_vfiprintf_r+0x1128>
  10d378:	e59d2010 	ldr	r2, [sp, #16]
  10d37c:	e3a03000 	mov	r3, #0
  10d380:	e59d102c 	ldr	r1, [sp, #44]	; 0x2c
  10d384:	e1a07003 	mov	r7, r3
  10d388:	e58d501c 	str	r5, [sp, #28]
  10d38c:	e7c13002 	strb	r3, [r1, r2]
  10d390:	e1c23fc2 	bic	r3, r2, r2, asr #31
  10d394:	e58d3008 	str	r3, [sp, #8]
  10d398:	eafffe21 	b	10cc24 <_vfiprintf_r+0x4dc>
  10d39c:	e3863010 	orr	r3, r6, #16
  10d3a0:	e58d3008 	str	r3, [sp, #8]
  10d3a4:	e59d3008 	ldr	r3, [sp, #8]
  10d3a8:	e3130020 	tst	r3, #32
  10d3ac:	1afffefe 	bne	10cfac <_vfiprintf_r+0x864>
  10d3b0:	e59d3008 	ldr	r3, [sp, #8]
  10d3b4:	e59d201c 	ldr	r2, [sp, #28]
  10d3b8:	e3130010 	tst	r3, #16
  10d3bc:	e2823004 	add	r3, r2, #4
  10d3c0:	1a00014b 	bne	10d8f4 <_vfiprintf_r+0x11ac>
  10d3c4:	e59d2008 	ldr	r2, [sp, #8]
  10d3c8:	e3120040 	tst	r2, #64	; 0x40
  10d3cc:	0a000144 	beq	10d8e4 <_vfiprintf_r+0x119c>
  10d3d0:	e59d201c 	ldr	r2, [sp, #28]
  10d3d4:	e58d301c 	str	r3, [sp, #28]
  10d3d8:	e1d240f0 	ldrsh	r4, [r2]
  10d3dc:	e1a05fc4 	asr	r5, r4, #31
  10d3e0:	e1a02004 	mov	r2, r4
  10d3e4:	e1a03005 	mov	r3, r5
  10d3e8:	eafffef7 	b	10cfcc <_vfiprintf_r+0x884>
  10d3ec:	e5da3000 	ldrb	r3, [sl]
  10d3f0:	e28a1001 	add	r1, sl, #1
  10d3f4:	e353002a 	cmp	r3, #42	; 0x2a
  10d3f8:	0a000271 	beq	10ddc4 <_vfiprintf_r+0x167c>
  10d3fc:	e2432030 	sub	r2, r3, #48	; 0x30
  10d400:	e1a0a001 	mov	sl, r1
  10d404:	e3520009 	cmp	r2, #9
  10d408:	e3a07000 	mov	r7, #0
  10d40c:	8afffd51 	bhi	10c958 <_vfiprintf_r+0x210>
  10d410:	e4da3001 	ldrb	r3, [sl], #1
  10d414:	e3a0100a 	mov	r1, #10
  10d418:	e0272791 	mla	r7, r1, r7, r2
  10d41c:	e2432030 	sub	r2, r3, #48	; 0x30
  10d420:	e3520009 	cmp	r2, #9
  10d424:	9afffff9 	bls	10d410 <_vfiprintf_r+0xcc8>
  10d428:	eafffd4a 	b	10c958 <_vfiprintf_r+0x210>
  10d42c:	e59d201c 	ldr	r2, [sp, #28]
  10d430:	e3160010 	tst	r6, #16
  10d434:	e2823004 	add	r3, r2, #4
  10d438:	1a000027 	bne	10d4dc <_vfiprintf_r+0xd94>
  10d43c:	e3160040 	tst	r6, #64	; 0x40
  10d440:	0a000022 	beq	10d4d0 <_vfiprintf_r+0xd88>
  10d444:	e59d201c 	ldr	r2, [sp, #28]
  10d448:	e3a05000 	mov	r5, #0
  10d44c:	e58d6008 	str	r6, [sp, #8]
  10d450:	e58d301c 	str	r3, [sp, #28]
  10d454:	e1d240b0 	ldrh	r4, [r2]
  10d458:	e3a02001 	mov	r2, #1
  10d45c:	eafffdd0 	b	10cba4 <_vfiprintf_r+0x45c>
  10d460:	e59d201c 	ldr	r2, [sp, #28]
  10d464:	e3160010 	tst	r6, #16
  10d468:	e2823004 	add	r3, r2, #4
  10d46c:	1a000022 	bne	10d4fc <_vfiprintf_r+0xdb4>
  10d470:	e3160040 	tst	r6, #64	; 0x40
  10d474:	e59d201c 	ldr	r2, [sp, #28]
  10d478:	0a00001d 	beq	10d4f4 <_vfiprintf_r+0xdac>
  10d47c:	e1d240b0 	ldrh	r4, [r2]
  10d480:	e3a05000 	mov	r5, #0
  10d484:	e58d301c 	str	r3, [sp, #28]
  10d488:	eafffd9d 	b	10cb04 <_vfiprintf_r+0x3bc>
  10d48c:	e1a00008 	mov	r0, r8
  10d490:	ebffea0a 	bl	107cc0 <__sinit>
  10d494:	eafffcbc 	b	10c78c <_vfiprintf_r+0x44>
  10d498:	e3530000 	cmp	r3, #0
  10d49c:	0a0001c9 	beq	10dbc8 <_vfiprintf_r+0x1480>
  10d4a0:	e3a02001 	mov	r2, #1
  10d4a4:	e5cd30b4 	strb	r3, [sp, #180]	; 0xb4
  10d4a8:	e58d2008 	str	r2, [sp, #8]
  10d4ac:	e3a03000 	mov	r3, #0
  10d4b0:	e58d2010 	str	r2, [sp, #16]
  10d4b4:	e5cd304b 	strb	r3, [sp, #75]	; 0x4b
  10d4b8:	e28d30b4 	add	r3, sp, #180	; 0xb4
  10d4bc:	e58d302c 	str	r3, [sp, #44]	; 0x2c
  10d4c0:	e3a03000 	mov	r3, #0
  10d4c4:	e58d3020 	str	r3, [sp, #32]
  10d4c8:	e1a07003 	mov	r7, r3
  10d4cc:	eafffdd9 	b	10cc38 <_vfiprintf_r+0x4f0>
  10d4d0:	e3160c02 	tst	r6, #512	; 0x200
  10d4d4:	1a0001fc 	bne	10dccc <_vfiprintf_r+0x1584>
  10d4d8:	e59d201c 	ldr	r2, [sp, #28]
  10d4dc:	e5924000 	ldr	r4, [r2]
  10d4e0:	e3a05000 	mov	r5, #0
  10d4e4:	e58d6008 	str	r6, [sp, #8]
  10d4e8:	e3a02001 	mov	r2, #1
  10d4ec:	e58d301c 	str	r3, [sp, #28]
  10d4f0:	eafffdab 	b	10cba4 <_vfiprintf_r+0x45c>
  10d4f4:	e3160c02 	tst	r6, #512	; 0x200
  10d4f8:	1a0001fe 	bne	10dcf8 <_vfiprintf_r+0x15b0>
  10d4fc:	e5924000 	ldr	r4, [r2]
  10d500:	e3a05000 	mov	r5, #0
  10d504:	e58d301c 	str	r3, [sp, #28]
  10d508:	eafffd7d 	b	10cb04 <_vfiprintf_r+0x3bc>
  10d50c:	e28d2068 	add	r2, sp, #104	; 0x68
  10d510:	e59d100c 	ldr	r1, [sp, #12]
  10d514:	e1a00008 	mov	r0, r8
  10d518:	ebfffc59 	bl	10c684 <__sprint_r.part.0>
  10d51c:	e3500000 	cmp	r0, #0
  10d520:	1a0000d6 	bne	10d880 <_vfiprintf_r+0x1138>
  10d524:	e59d106c 	ldr	r1, [sp, #108]	; 0x6c
  10d528:	e28dc07c 	add	ip, sp, #124	; 0x7c
  10d52c:	e59d2070 	ldr	r2, [sp, #112]	; 0x70
  10d530:	e28d9074 	add	r9, sp, #116	; 0x74
  10d534:	e2810001 	add	r0, r1, #1
  10d538:	e59d3028 	ldr	r3, [sp, #40]	; 0x28
  10d53c:	e3530000 	cmp	r3, #0
  10d540:	0afffe14 	beq	10cd98 <_vfiprintf_r+0x650>
  10d544:	e3500007 	cmp	r0, #7
  10d548:	e2822002 	add	r2, r2, #2
  10d54c:	e28d104c 	add	r1, sp, #76	; 0x4c
  10d550:	e3a03002 	mov	r3, #2
  10d554:	e58d006c 	str	r0, [sp, #108]	; 0x6c
  10d558:	e58d2070 	str	r2, [sp, #112]	; 0x70
  10d55c:	e889000a 	stm	r9, {r1, r3}
  10d560:	da0000ad 	ble	10d81c <_vfiprintf_r+0x10d4>
  10d564:	e3520000 	cmp	r2, #0
  10d568:	1a0000ed 	bne	10d924 <_vfiprintf_r+0x11dc>
  10d56c:	e59d3024 	ldr	r3, [sp, #36]	; 0x24
  10d570:	e28dc07c 	add	ip, sp, #124	; 0x7c
  10d574:	e3a00001 	mov	r0, #1
  10d578:	e1a01002 	mov	r1, r2
  10d57c:	e3530080 	cmp	r3, #128	; 0x80
  10d580:	e28d9074 	add	r9, sp, #116	; 0x74
  10d584:	1afffe06 	bne	10cda4 <_vfiprintf_r+0x65c>
  10d588:	e59d3014 	ldr	r3, [sp, #20]
  10d58c:	e59de008 	ldr	lr, [sp, #8]
  10d590:	e043500e 	sub	r5, r3, lr
  10d594:	e3550000 	cmp	r5, #0
  10d598:	dafffe01 	ble	10cda4 <_vfiprintf_r+0x65c>
  10d59c:	e3550010 	cmp	r5, #16
  10d5a0:	e59f480c 	ldr	r4, [pc, #2060]	; 10ddb4 <_vfiprintf_r+0x166c>
  10d5a4:	ca000003 	bgt	10d5b8 <_vfiprintf_r+0xe70>
  10d5a8:	ea0001be 	b	10dca8 <_vfiprintf_r+0x1560>
  10d5ac:	e2455010 	sub	r5, r5, #16
  10d5b0:	e3550010 	cmp	r5, #16
  10d5b4:	da00001c 	ble	10d62c <_vfiprintf_r+0xee4>
  10d5b8:	e2813001 	add	r3, r1, #1
  10d5bc:	e2822010 	add	r2, r2, #16
  10d5c0:	e3530007 	cmp	r3, #7
  10d5c4:	e5894000 	str	r4, [r9]
  10d5c8:	e281c002 	add	ip, r1, #2
  10d5cc:	e58d2070 	str	r2, [sp, #112]	; 0x70
  10d5d0:	e3a01010 	mov	r1, #16
  10d5d4:	e58d306c 	str	r3, [sp, #108]	; 0x6c
  10d5d8:	e5891004 	str	r1, [r9, #4]
  10d5dc:	e1a01003 	mov	r1, r3
  10d5e0:	d2899008 	addle	r9, r9, #8
  10d5e4:	dafffff0 	ble	10d5ac <_vfiprintf_r+0xe64>
  10d5e8:	e3520000 	cmp	r2, #0
  10d5ec:	e3a0c001 	mov	ip, #1
  10d5f0:	e1a01002 	mov	r1, r2
  10d5f4:	e28d9074 	add	r9, sp, #116	; 0x74
  10d5f8:	0affffeb 	beq	10d5ac <_vfiprintf_r+0xe64>
  10d5fc:	e28d2068 	add	r2, sp, #104	; 0x68
  10d600:	e59d100c 	ldr	r1, [sp, #12]
  10d604:	e1a00008 	mov	r0, r8
  10d608:	ebfffc1d 	bl	10c684 <__sprint_r.part.0>
  10d60c:	e3500000 	cmp	r0, #0
  10d610:	1a00009a 	bne	10d880 <_vfiprintf_r+0x1138>
  10d614:	e2455010 	sub	r5, r5, #16
  10d618:	e59d106c 	ldr	r1, [sp, #108]	; 0x6c
  10d61c:	e3550010 	cmp	r5, #16
  10d620:	e59d2070 	ldr	r2, [sp, #112]	; 0x70
  10d624:	e281c001 	add	ip, r1, #1
  10d628:	caffffe2 	bgt	10d5b8 <_vfiprintf_r+0xe70>
  10d62c:	e2893008 	add	r3, r9, #8
  10d630:	e35c0007 	cmp	ip, #7
  10d634:	e0822005 	add	r2, r2, r5
  10d638:	e5894000 	str	r4, [r9]
  10d63c:	e58d2070 	str	r2, [sp, #112]	; 0x70
  10d640:	e5895004 	str	r5, [r9, #4]
  10d644:	e58dc06c 	str	ip, [sp, #108]	; 0x6c
  10d648:	ca0000c1 	bgt	10d954 <_vfiprintf_r+0x120c>
  10d64c:	e28c0001 	add	r0, ip, #1
  10d650:	e1a0100c 	mov	r1, ip
  10d654:	e1a09003 	mov	r9, r3
  10d658:	e283c008 	add	ip, r3, #8
  10d65c:	eafffdd0 	b	10cda4 <_vfiprintf_r+0x65c>
  10d660:	e28d2068 	add	r2, sp, #104	; 0x68
  10d664:	e59d100c 	ldr	r1, [sp, #12]
  10d668:	e1a00008 	mov	r0, r8
  10d66c:	ebfffc04 	bl	10c684 <__sprint_r.part.0>
  10d670:	e3500000 	cmp	r0, #0
  10d674:	1a000081 	bne	10d880 <_vfiprintf_r+0x1138>
  10d678:	e59d2070 	ldr	r2, [sp, #112]	; 0x70
  10d67c:	e28dc074 	add	ip, sp, #116	; 0x74
  10d680:	e3160004 	tst	r6, #4
  10d684:	0a000004 	beq	10d69c <_vfiprintf_r+0xf54>
  10d688:	e59d3014 	ldr	r3, [sp, #20]
  10d68c:	e59d1008 	ldr	r1, [sp, #8]
  10d690:	e0434001 	sub	r4, r3, r1
  10d694:	e3540000 	cmp	r4, #0
  10d698:	cafffe08 	bgt	10cec0 <_vfiprintf_r+0x778>
  10d69c:	e59d3018 	ldr	r3, [sp, #24]
  10d6a0:	e59d1014 	ldr	r1, [sp, #20]
  10d6a4:	e59d0008 	ldr	r0, [sp, #8]
  10d6a8:	e1510000 	cmp	r1, r0
  10d6ac:	a0833001 	addge	r3, r3, r1
  10d6b0:	b0833000 	addlt	r3, r3, r0
  10d6b4:	e3520000 	cmp	r2, #0
  10d6b8:	e58d3018 	str	r3, [sp, #24]
  10d6bc:	0a000005 	beq	10d6d8 <_vfiprintf_r+0xf90>
  10d6c0:	e28d2068 	add	r2, sp, #104	; 0x68
  10d6c4:	e59d100c 	ldr	r1, [sp, #12]
  10d6c8:	e1a00008 	mov	r0, r8
  10d6cc:	ebfffbec 	bl	10c684 <__sprint_r.part.0>
  10d6d0:	e3500000 	cmp	r0, #0
  10d6d4:	1a000069 	bne	10d880 <_vfiprintf_r+0x1138>
  10d6d8:	e59d1020 	ldr	r1, [sp, #32]
  10d6dc:	e3a03000 	mov	r3, #0
  10d6e0:	e58d306c 	str	r3, [sp, #108]	; 0x6c
  10d6e4:	e3510000 	cmp	r1, #0
  10d6e8:	028d9074 	addeq	r9, sp, #116	; 0x74
  10d6ec:	0afffc48 	beq	10c814 <_vfiprintf_r+0xcc>
  10d6f0:	e1a00008 	mov	r0, r8
  10d6f4:	e28d9074 	add	r9, sp, #116	; 0x74
  10d6f8:	ebffe9c3 	bl	107e0c <_free_r>
  10d6fc:	eafffc44 	b	10c814 <_vfiprintf_r+0xcc>
  10d700:	e58d6008 	str	r6, [sp, #8]
  10d704:	e3520001 	cmp	r2, #1
  10d708:	0afffe3b 	beq	10cffc <_vfiprintf_r+0x8b4>
  10d70c:	e3520002 	cmp	r2, #2
  10d710:	128d1f46 	addne	r1, sp, #280	; 0x118
  10d714:	1a000012 	bne	10d764 <_vfiprintf_r+0x101c>
  10d718:	e59dc034 	ldr	ip, [sp, #52]	; 0x34
  10d71c:	e28d2f46 	add	r2, sp, #280	; 0x118
  10d720:	e204100f 	and	r1, r4, #15
  10d724:	e1a03224 	lsr	r3, r4, #4
  10d728:	e1833e05 	orr	r3, r3, r5, lsl #28
  10d72c:	e1a00225 	lsr	r0, r5, #4
  10d730:	e7dc1001 	ldrb	r1, [ip, r1]
  10d734:	e1a04003 	mov	r4, r3
  10d738:	e1a05000 	mov	r5, r0
  10d73c:	e1943005 	orrs	r3, r4, r5
  10d740:	e5621001 	strb	r1, [r2, #-1]!
  10d744:	1afffff5 	bne	10d720 <_vfiprintf_r+0xfd8>
  10d748:	e59d3010 	ldr	r3, [sp, #16]
  10d74c:	e58d202c 	str	r2, [sp, #44]	; 0x2c
  10d750:	e0433002 	sub	r3, r3, r2
  10d754:	e59d6008 	ldr	r6, [sp, #8]
  10d758:	e58d3010 	str	r3, [sp, #16]
  10d75c:	eafffd2a 	b	10cc0c <_vfiprintf_r+0x4c4>
  10d760:	e1a01002 	mov	r1, r2
  10d764:	e1a021a4 	lsr	r2, r4, #3
  10d768:	e1a001a5 	lsr	r0, r5, #3
  10d76c:	e1822e85 	orr	r2, r2, r5, lsl #29
  10d770:	e2043007 	and	r3, r4, #7
  10d774:	e1a05000 	mov	r5, r0
  10d778:	e2833030 	add	r3, r3, #48	; 0x30
  10d77c:	e1a04002 	mov	r4, r2
  10d780:	e1942005 	orrs	r2, r4, r5
  10d784:	e5413001 	strb	r3, [r1, #-1]
  10d788:	e2412001 	sub	r2, r1, #1
  10d78c:	1afffff3 	bne	10d760 <_vfiprintf_r+0x1018>
  10d790:	e59d6008 	ldr	r6, [sp, #8]
  10d794:	e58d202c 	str	r2, [sp, #44]	; 0x2c
  10d798:	e1a00006 	mov	r0, r6
  10d79c:	e3530030 	cmp	r3, #48	; 0x30
  10d7a0:	03a00000 	moveq	r0, #0
  10d7a4:	12000001 	andne	r0, r0, #1
  10d7a8:	e3500000 	cmp	r0, #0
  10d7ac:	1a0000ee 	bne	10db6c <_vfiprintf_r+0x1424>
  10d7b0:	e59d3010 	ldr	r3, [sp, #16]
  10d7b4:	e0433002 	sub	r3, r3, r2
  10d7b8:	e58d3010 	str	r3, [sp, #16]
  10d7bc:	eafffd12 	b	10cc0c <_vfiprintf_r+0x4c4>
  10d7c0:	e3520000 	cmp	r2, #0
  10d7c4:	1a0000a3 	bne	10da58 <_vfiprintf_r+0x1310>
  10d7c8:	e5dd104b 	ldrb	r1, [sp, #75]	; 0x4b
  10d7cc:	e3510000 	cmp	r1, #0
  10d7d0:	0a000076 	beq	10d9b0 <_vfiprintf_r+0x1268>
  10d7d4:	e3a01001 	mov	r1, #1
  10d7d8:	e28dc04b 	add	ip, sp, #75	; 0x4b
  10d7dc:	e58dc074 	str	ip, [sp, #116]	; 0x74
  10d7e0:	e28dc07c 	add	ip, sp, #124	; 0x7c
  10d7e4:	e1a02001 	mov	r2, r1
  10d7e8:	e1a00001 	mov	r0, r1
  10d7ec:	e58d1078 	str	r1, [sp, #120]	; 0x78
  10d7f0:	e1a01000 	mov	r1, r0
  10d7f4:	e1a0900c 	mov	r9, ip
  10d7f8:	e2800001 	add	r0, r0, #1
  10d7fc:	e28cc008 	add	ip, ip, #8
  10d800:	eaffff4c 	b	10d538 <_vfiprintf_r+0xdf0>
  10d804:	e28dc07c 	add	ip, sp, #124	; 0x7c
  10d808:	e1a00001 	mov	r0, r1
  10d80c:	e3a02002 	mov	r2, #2
  10d810:	e28d304c 	add	r3, sp, #76	; 0x4c
  10d814:	e58d2078 	str	r2, [sp, #120]	; 0x78
  10d818:	e58d3074 	str	r3, [sp, #116]	; 0x74
  10d81c:	e1a01000 	mov	r1, r0
  10d820:	e1a0900c 	mov	r9, ip
  10d824:	e2800001 	add	r0, r0, #1
  10d828:	e28cc008 	add	ip, ip, #8
  10d82c:	eafffd59 	b	10cd98 <_vfiprintf_r+0x650>
  10d830:	e3520000 	cmp	r2, #0
  10d834:	1a00004d 	bne	10d970 <_vfiprintf_r+0x1228>
  10d838:	e59d2010 	ldr	r2, [sp, #16]
  10d83c:	e28dc07c 	add	ip, sp, #124	; 0x7c
  10d840:	e59d302c 	ldr	r3, [sp, #44]	; 0x2c
  10d844:	e58d2078 	str	r2, [sp, #120]	; 0x78
  10d848:	e58d3074 	str	r3, [sp, #116]	; 0x74
  10d84c:	e3a03001 	mov	r3, #1
  10d850:	e58d2070 	str	r2, [sp, #112]	; 0x70
  10d854:	e58d306c 	str	r3, [sp, #108]	; 0x6c
  10d858:	eaffff88 	b	10d680 <_vfiprintf_r+0xf38>
  10d85c:	e1a07003 	mov	r7, r3
  10d860:	e28d3f46 	add	r3, sp, #280	; 0x118
  10d864:	e58d7010 	str	r7, [sp, #16]
  10d868:	e58d302c 	str	r3, [sp, #44]	; 0x2c
  10d86c:	eafffce6 	b	10cc0c <_vfiprintf_r+0x4c4>
  10d870:	e59d200c 	ldr	r2, [sp, #12]
  10d874:	e1d230bc 	ldrh	r3, [r2, #12]
  10d878:	e3833040 	orr	r3, r3, #64	; 0x40
  10d87c:	e1c230bc 	strh	r3, [r2, #12]
  10d880:	e59d3020 	ldr	r3, [sp, #32]
  10d884:	e3530000 	cmp	r3, #0
  10d888:	0a000002 	beq	10d898 <_vfiprintf_r+0x1150>
  10d88c:	e59d1020 	ldr	r1, [sp, #32]
  10d890:	e1a00008 	mov	r0, r8
  10d894:	ebffe95c 	bl	107e0c <_free_r>
  10d898:	e59d300c 	ldr	r3, [sp, #12]
  10d89c:	e1d330fc 	ldrsh	r3, [r3, #12]
  10d8a0:	e3130040 	tst	r3, #64	; 0x40
  10d8a4:	1a000143 	bne	10ddb8 <_vfiprintf_r+0x1670>
  10d8a8:	e59d0018 	ldr	r0, [sp, #24]
  10d8ac:	e28ddf47 	add	sp, sp, #284	; 0x11c
  10d8b0:	e8bd8ff0 	pop	{r4, r5, r6, r7, r8, r9, sl, fp, pc}
  10d8b4:	e28d3f46 	add	r3, sp, #280	; 0x118
  10d8b8:	e1a07002 	mov	r7, r2
  10d8bc:	e58d302c 	str	r3, [sp, #44]	; 0x2c
  10d8c0:	eafffcd1 	b	10cc0c <_vfiprintf_r+0x4c4>
  10d8c4:	e28d2068 	add	r2, sp, #104	; 0x68
  10d8c8:	e59d100c 	ldr	r1, [sp, #12]
  10d8cc:	e1a00008 	mov	r0, r8
  10d8d0:	ebfffb6b 	bl	10c684 <__sprint_r.part.0>
  10d8d4:	e3500000 	cmp	r0, #0
  10d8d8:	1affffee 	bne	10d898 <_vfiprintf_r+0x1150>
  10d8dc:	e28d9074 	add	r9, sp, #116	; 0x74
  10d8e0:	eafffc0e 	b	10c920 <_vfiprintf_r+0x1d8>
  10d8e4:	e59d2008 	ldr	r2, [sp, #8]
  10d8e8:	e3120c02 	tst	r2, #512	; 0x200
  10d8ec:	e59d201c 	ldr	r2, [sp, #28]
  10d8f0:	1a0000ef 	bne	10dcb4 <_vfiprintf_r+0x156c>
  10d8f4:	e5924000 	ldr	r4, [r2]
  10d8f8:	e58d301c 	str	r3, [sp, #28]
  10d8fc:	e1a05fc4 	asr	r5, r4, #31
  10d900:	e1a02004 	mov	r2, r4
  10d904:	e1a03005 	mov	r3, r5
  10d908:	eafffdaf 	b	10cfcc <_vfiprintf_r+0x884>
  10d90c:	e3160c02 	tst	r6, #512	; 0x200
  10d910:	1a0000f4 	bne	10dce8 <_vfiprintf_r+0x15a0>
  10d914:	e5914000 	ldr	r4, [r1]
  10d918:	e3a05000 	mov	r5, #0
  10d91c:	e58d201c 	str	r2, [sp, #28]
  10d920:	eafffc94 	b	10cb78 <_vfiprintf_r+0x430>
  10d924:	e28d2068 	add	r2, sp, #104	; 0x68
  10d928:	e59d100c 	ldr	r1, [sp, #12]
  10d92c:	e1a00008 	mov	r0, r8
  10d930:	ebfffb53 	bl	10c684 <__sprint_r.part.0>
  10d934:	e3500000 	cmp	r0, #0
  10d938:	1affffd0 	bne	10d880 <_vfiprintf_r+0x1138>
  10d93c:	e59d106c 	ldr	r1, [sp, #108]	; 0x6c
  10d940:	e28dc07c 	add	ip, sp, #124	; 0x7c
  10d944:	e59d2070 	ldr	r2, [sp, #112]	; 0x70
  10d948:	e28d9074 	add	r9, sp, #116	; 0x74
  10d94c:	e2810001 	add	r0, r1, #1
  10d950:	eafffd10 	b	10cd98 <_vfiprintf_r+0x650>
  10d954:	e3520000 	cmp	r2, #0
  10d958:	1a0000a6 	bne	10dbf8 <_vfiprintf_r+0x14b0>
  10d95c:	e28dc07c 	add	ip, sp, #124	; 0x7c
  10d960:	e3a00001 	mov	r0, #1
  10d964:	e1a01002 	mov	r1, r2
  10d968:	e28d9074 	add	r9, sp, #116	; 0x74
  10d96c:	eafffd0c 	b	10cda4 <_vfiprintf_r+0x65c>
  10d970:	e28d2068 	add	r2, sp, #104	; 0x68
  10d974:	e59d100c 	ldr	r1, [sp, #12]
  10d978:	e1a00008 	mov	r0, r8
  10d97c:	ebfffb40 	bl	10c684 <__sprint_r.part.0>
  10d980:	e3500000 	cmp	r0, #0
  10d984:	1affffbd 	bne	10d880 <_vfiprintf_r+0x1138>
  10d988:	e59d006c 	ldr	r0, [sp, #108]	; 0x6c
  10d98c:	e28dc07c 	add	ip, sp, #124	; 0x7c
  10d990:	e59d2070 	ldr	r2, [sp, #112]	; 0x70
  10d994:	e28d9074 	add	r9, sp, #116	; 0x74
  10d998:	e2800001 	add	r0, r0, #1
  10d99c:	eafffd33 	b	10ce70 <_vfiprintf_r+0x728>
  10d9a0:	e59d0018 	ldr	r0, [sp, #24]
  10d9a4:	e1a01fc0 	asr	r1, r0, #31
  10d9a8:	e1c300f0 	strd	r0, [r3]
  10d9ac:	eafffb98 	b	10c814 <_vfiprintf_r+0xcc>
  10d9b0:	e59d3028 	ldr	r3, [sp, #40]	; 0x28
  10d9b4:	e3530000 	cmp	r3, #0
  10d9b8:	1a00009c 	bne	10dc30 <_vfiprintf_r+0x14e8>
  10d9bc:	e1a01002 	mov	r1, r2
  10d9c0:	e28dc07c 	add	ip, sp, #124	; 0x7c
  10d9c4:	e3a00001 	mov	r0, #1
  10d9c8:	e28d9074 	add	r9, sp, #116	; 0x74
  10d9cc:	eafffcf4 	b	10cda4 <_vfiprintf_r+0x65c>
  10d9d0:	e59d301c 	ldr	r3, [sp, #28]
  10d9d4:	e28d4f46 	add	r4, sp, #280	; 0x118
  10d9d8:	e3a02001 	mov	r2, #1
  10d9dc:	e58d2008 	str	r2, [sp, #8]
  10d9e0:	e58d2010 	str	r2, [sp, #16]
  10d9e4:	e5933000 	ldr	r3, [r3]
  10d9e8:	e5643064 	strb	r3, [r4, #-100]!	; 0xffffff9c
  10d9ec:	eafffdae 	b	10d0ac <_vfiprintf_r+0x964>
  10d9f0:	e28d2068 	add	r2, sp, #104	; 0x68
  10d9f4:	e59d100c 	ldr	r1, [sp, #12]
  10d9f8:	e1a00008 	mov	r0, r8
  10d9fc:	ebfffb20 	bl	10c684 <__sprint_r.part.0>
  10da00:	e3500000 	cmp	r0, #0
  10da04:	1affff9d 	bne	10d880 <_vfiprintf_r+0x1138>
  10da08:	e59d2070 	ldr	r2, [sp, #112]	; 0x70
  10da0c:	eaffff22 	b	10d69c <_vfiprintf_r+0xf54>
  10da10:	e3770001 	cmn	r7, #1
  10da14:	0a0000cc 	beq	10dd4c <_vfiprintf_r+0x1604>
  10da18:	e1a02007 	mov	r2, r7
  10da1c:	e1a01004 	mov	r1, r4
  10da20:	e59d002c 	ldr	r0, [sp, #44]	; 0x2c
  10da24:	fafff27d 	blx	10a420 <memchr>
  10da28:	e2503000 	subs	r3, r0, #0
  10da2c:	e58d3020 	str	r3, [sp, #32]
  10da30:	0a0000c0 	beq	10dd38 <_vfiprintf_r+0x15f0>
  10da34:	e59d202c 	ldr	r2, [sp, #44]	; 0x2c
  10da38:	e1a07004 	mov	r7, r4
  10da3c:	e58d501c 	str	r5, [sp, #28]
  10da40:	e0433002 	sub	r3, r3, r2
  10da44:	e58d4020 	str	r4, [sp, #32]
  10da48:	e58d3010 	str	r3, [sp, #16]
  10da4c:	e1c33fc3 	bic	r3, r3, r3, asr #31
  10da50:	e58d3008 	str	r3, [sp, #8]
  10da54:	eafffc72 	b	10cc24 <_vfiprintf_r+0x4dc>
  10da58:	e28d2068 	add	r2, sp, #104	; 0x68
  10da5c:	e59d100c 	ldr	r1, [sp, #12]
  10da60:	e1a00008 	mov	r0, r8
  10da64:	ebfffb06 	bl	10c684 <__sprint_r.part.0>
  10da68:	e3500000 	cmp	r0, #0
  10da6c:	1affff83 	bne	10d880 <_vfiprintf_r+0x1138>
  10da70:	e59d106c 	ldr	r1, [sp, #108]	; 0x6c
  10da74:	e28d9074 	add	r9, sp, #116	; 0x74
  10da78:	e59d2070 	ldr	r2, [sp, #112]	; 0x70
  10da7c:	e2810001 	add	r0, r1, #1
  10da80:	eafffcae 	b	10cd40 <_vfiprintf_r+0x5f8>
  10da84:	e1a0300c 	mov	r3, ip
  10da88:	eafffcee 	b	10ce48 <_vfiprintf_r+0x700>
  10da8c:	e59d3008 	ldr	r3, [sp, #8]
  10da90:	e3a02000 	mov	r2, #0
  10da94:	e58da044 	str	sl, [sp, #68]	; 0x44
  10da98:	e28d6f46 	add	r6, sp, #280	; 0x118
  10da9c:	e2033b01 	and	r3, r3, #1024	; 0x400
  10daa0:	e59da038 	ldr	sl, [sp, #56]	; 0x38
  10daa4:	e58d7020 	str	r7, [sp, #32]
  10daa8:	e1a07002 	mov	r7, r2
  10daac:	e58d8028 	str	r8, [sp, #40]	; 0x28
  10dab0:	e1a08003 	mov	r8, r3
  10dab4:	e58d9024 	str	r9, [sp, #36]	; 0x24
  10dab8:	e3a0200a 	mov	r2, #10
  10dabc:	e3a03000 	mov	r3, #0
  10dac0:	e1a00004 	mov	r0, r4
  10dac4:	e1a01005 	mov	r1, r5
  10dac8:	eb000481 	bl	10ecd4 <__aeabi_uldivmod>
  10dacc:	e3580000 	cmp	r8, #0
  10dad0:	e2877001 	add	r7, r7, #1
  10dad4:	e2469001 	sub	r9, r6, #1
  10dad8:	e2822030 	add	r2, r2, #48	; 0x30
  10dadc:	e5462001 	strb	r2, [r6, #-1]
  10dae0:	0a00000c 	beq	10db18 <_vfiprintf_r+0x13d0>
  10dae4:	e3550000 	cmp	r5, #0
  10dae8:	e5da2000 	ldrb	r2, [sl]
  10daec:	03540009 	cmpeq	r4, #9
  10daf0:	83a03001 	movhi	r3, #1
  10daf4:	93a03000 	movls	r3, #0
  10daf8:	e35200ff 	cmp	r2, #255	; 0xff
  10dafc:	03a03000 	moveq	r3, #0
  10db00:	12033001 	andne	r3, r3, #1
  10db04:	e1520007 	cmp	r2, r7
  10db08:	13a03000 	movne	r3, #0
  10db0c:	02033001 	andeq	r3, r3, #1
  10db10:	e3530000 	cmp	r3, #0
  10db14:	1a000095 	bne	10dd70 <_vfiprintf_r+0x1628>
  10db18:	e1a00004 	mov	r0, r4
  10db1c:	e1a01005 	mov	r1, r5
  10db20:	e3a03000 	mov	r3, #0
  10db24:	e3a0200a 	mov	r2, #10
  10db28:	eb000469 	bl	10ecd4 <__aeabi_uldivmod>
  10db2c:	e1a06009 	mov	r6, r9
  10db30:	e1a04000 	mov	r4, r0
  10db34:	e1a05001 	mov	r5, r1
  10db38:	e1943005 	orrs	r3, r4, r5
  10db3c:	1affffdd 	bne	10dab8 <_vfiprintf_r+0x1370>
  10db40:	e59d2010 	ldr	r2, [sp, #16]
  10db44:	e58d902c 	str	r9, [sp, #44]	; 0x2c
  10db48:	e0423006 	sub	r3, r2, r6
  10db4c:	e58da038 	str	sl, [sp, #56]	; 0x38
  10db50:	e59d7020 	ldr	r7, [sp, #32]
  10db54:	e59d9024 	ldr	r9, [sp, #36]	; 0x24
  10db58:	e59d8028 	ldr	r8, [sp, #40]	; 0x28
  10db5c:	e59da044 	ldr	sl, [sp, #68]	; 0x44
  10db60:	e58d3010 	str	r3, [sp, #16]
  10db64:	e59d6008 	ldr	r6, [sp, #8]
  10db68:	eafffc27 	b	10cc0c <_vfiprintf_r+0x4c4>
  10db6c:	e59d202c 	ldr	r2, [sp, #44]	; 0x2c
  10db70:	e2411002 	sub	r1, r1, #2
  10db74:	e59d3010 	ldr	r3, [sp, #16]
  10db78:	e59d6008 	ldr	r6, [sp, #8]
  10db7c:	e0433001 	sub	r3, r3, r1
  10db80:	e58d102c 	str	r1, [sp, #44]	; 0x2c
  10db84:	e58d3010 	str	r3, [sp, #16]
  10db88:	e3a03030 	mov	r3, #48	; 0x30
  10db8c:	e5423001 	strb	r3, [r2, #-1]
  10db90:	eafffc1d 	b	10cc0c <_vfiprintf_r+0x4c4>
  10db94:	e59d2018 	ldr	r2, [sp, #24]
  10db98:	e5832000 	str	r2, [r3]
  10db9c:	eafffb1c 	b	10c814 <_vfiprintf_r+0xcc>
  10dba0:	e3570006 	cmp	r7, #6
  10dba4:	e30f25bc 	movw	r2, #62908	; 0xf5bc
  10dba8:	e58d501c 	str	r5, [sp, #28]
  10dbac:	e3402010 	movt	r2, #16
  10dbb0:	31a03007 	movcc	r3, r7
  10dbb4:	23a03006 	movcs	r3, #6
  10dbb8:	e58d202c 	str	r2, [sp, #44]	; 0x2c
  10dbbc:	e58d3010 	str	r3, [sp, #16]
  10dbc0:	e58d3008 	str	r3, [sp, #8]
  10dbc4:	eafffe3d 	b	10d4c0 <_vfiprintf_r+0xd78>
  10dbc8:	e59d3070 	ldr	r3, [sp, #112]	; 0x70
  10dbcc:	e3530000 	cmp	r3, #0
  10dbd0:	0affff30 	beq	10d898 <_vfiprintf_r+0x1150>
  10dbd4:	e59d400c 	ldr	r4, [sp, #12]
  10dbd8:	e1a00008 	mov	r0, r8
  10dbdc:	e28d2068 	add	r2, sp, #104	; 0x68
  10dbe0:	e1a01004 	mov	r1, r4
  10dbe4:	ebfffaa6 	bl	10c684 <__sprint_r.part.0>
  10dbe8:	e3500000 	cmp	r0, #0
  10dbec:	0affff29 	beq	10d898 <_vfiprintf_r+0x1150>
  10dbf0:	e1d430fc 	ldrsh	r3, [r4, #12]
  10dbf4:	eaffff29 	b	10d8a0 <_vfiprintf_r+0x1158>
  10dbf8:	e28d2068 	add	r2, sp, #104	; 0x68
  10dbfc:	e59d100c 	ldr	r1, [sp, #12]
  10dc00:	e1a00008 	mov	r0, r8
  10dc04:	ebfffa9e 	bl	10c684 <__sprint_r.part.0>
  10dc08:	e3500000 	cmp	r0, #0
  10dc0c:	1affff1b 	bne	10d880 <_vfiprintf_r+0x1138>
  10dc10:	e59d106c 	ldr	r1, [sp, #108]	; 0x6c
  10dc14:	e28dc07c 	add	ip, sp, #124	; 0x7c
  10dc18:	e59d2070 	ldr	r2, [sp, #112]	; 0x70
  10dc1c:	e28d9074 	add	r9, sp, #116	; 0x74
  10dc20:	e2810001 	add	r0, r1, #1
  10dc24:	eafffc5e 	b	10cda4 <_vfiprintf_r+0x65c>
  10dc28:	e1a0e00c 	mov	lr, ip
  10dc2c:	eafffc39 	b	10cd18 <_vfiprintf_r+0x5d0>
  10dc30:	e3a02002 	mov	r2, #2
  10dc34:	e28d304c 	add	r3, sp, #76	; 0x4c
  10dc38:	e58d2078 	str	r2, [sp, #120]	; 0x78
  10dc3c:	e28dc07c 	add	ip, sp, #124	; 0x7c
  10dc40:	e58d3074 	str	r3, [sp, #116]	; 0x74
  10dc44:	e3a00001 	mov	r0, #1
  10dc48:	eafffef3 	b	10d81c <_vfiprintf_r+0x10d4>
  10dc4c:	e30f5400 	movw	r5, #62464	; 0xf400
  10dc50:	e2810001 	add	r0, r1, #1
  10dc54:	e3405010 	movt	r5, #16
  10dc58:	eafffcbf 	b	10cf5c <_vfiprintf_r+0x814>
  10dc5c:	e59d3010 	ldr	r3, [sp, #16]
  10dc60:	e58d501c 	str	r5, [sp, #28]
  10dc64:	e58d3008 	str	r3, [sp, #8]
  10dc68:	e1a07003 	mov	r7, r3
  10dc6c:	e58d3020 	str	r3, [sp, #32]
  10dc70:	eafffbeb 	b	10cc24 <_vfiprintf_r+0x4dc>
  10dc74:	e3a03000 	mov	r3, #0
  10dc78:	e28d2060 	add	r2, sp, #96	; 0x60
  10dc7c:	e1a01003 	mov	r1, r3
  10dc80:	e58d2000 	str	r2, [sp]
  10dc84:	e1a00008 	mov	r0, r8
  10dc88:	e28d2054 	add	r2, sp, #84	; 0x54
  10dc8c:	ebffe01a 	bl	105cfc <_wcsrtombs_r>
  10dc90:	e3700001 	cmn	r0, #1
  10dc94:	e58d0010 	str	r0, [sp, #16]
  10dc98:	0a000040 	beq	10dda0 <_vfiprintf_r+0x1658>
  10dc9c:	e59d302c 	ldr	r3, [sp, #44]	; 0x2c
  10dca0:	e58d3054 	str	r3, [sp, #84]	; 0x54
  10dca4:	eafffd9c 	b	10d31c <_vfiprintf_r+0xbd4>
  10dca8:	e1a0300c 	mov	r3, ip
  10dcac:	e1a0c000 	mov	ip, r0
  10dcb0:	eafffe5e 	b	10d630 <_vfiprintf_r+0xee8>
  10dcb4:	e1d240d0 	ldrsb	r4, [r2]
  10dcb8:	e58d301c 	str	r3, [sp, #28]
  10dcbc:	e1a05fc4 	asr	r5, r4, #31
  10dcc0:	e1a02004 	mov	r2, r4
  10dcc4:	e1a03005 	mov	r3, r5
  10dcc8:	eafffcbf 	b	10cfcc <_vfiprintf_r+0x884>
  10dccc:	e59d201c 	ldr	r2, [sp, #28]
  10dcd0:	e3a05000 	mov	r5, #0
  10dcd4:	e58d6008 	str	r6, [sp, #8]
  10dcd8:	e58d301c 	str	r3, [sp, #28]
  10dcdc:	e5d24000 	ldrb	r4, [r2]
  10dce0:	e3a02001 	mov	r2, #1
  10dce4:	eafffbae 	b	10cba4 <_vfiprintf_r+0x45c>
  10dce8:	e5d14000 	ldrb	r4, [r1]
  10dcec:	e3a05000 	mov	r5, #0
  10dcf0:	e58d201c 	str	r2, [sp, #28]
  10dcf4:	eafffb9f 	b	10cb78 <_vfiprintf_r+0x430>
  10dcf8:	e5d24000 	ldrb	r4, [r2]
  10dcfc:	e3a05000 	mov	r5, #0
  10dd00:	e58d301c 	str	r3, [sp, #28]
  10dd04:	eafffb7e 	b	10cb04 <_vfiprintf_r+0x3bc>
  10dd08:	e59d2018 	ldr	r2, [sp, #24]
  10dd0c:	e1c320b0 	strh	r2, [r3]
  10dd10:	eafffabf 	b	10c814 <_vfiprintf_r+0xcc>
  10dd14:	e2831001 	add	r1, r3, #1
  10dd18:	e1a00008 	mov	r0, r8
  10dd1c:	ebffee17 	bl	109580 <_malloc_r>
  10dd20:	e2503000 	subs	r3, r0, #0
  10dd24:	e58d302c 	str	r3, [sp, #44]	; 0x2c
  10dd28:	0a00001c 	beq	10dda0 <_vfiprintf_r+0x1658>
  10dd2c:	e59d302c 	ldr	r3, [sp, #44]	; 0x2c
  10dd30:	e58d3020 	str	r3, [sp, #32]
  10dd34:	eafffd81 	b	10d340 <_vfiprintf_r+0xbf8>
  10dd38:	e58d7008 	str	r7, [sp, #8]
  10dd3c:	e58d7010 	str	r7, [sp, #16]
  10dd40:	e58d501c 	str	r5, [sp, #28]
  10dd44:	e59d7020 	ldr	r7, [sp, #32]
  10dd48:	eafffbb5 	b	10cc24 <_vfiprintf_r+0x4dc>
  10dd4c:	e59d002c 	ldr	r0, [sp, #44]	; 0x2c
  10dd50:	e1a07004 	mov	r7, r4
  10dd54:	faffd499 	blx	102fc0 <strlen>
  10dd58:	e58d501c 	str	r5, [sp, #28]
  10dd5c:	e58d4020 	str	r4, [sp, #32]
  10dd60:	e1c03fc0 	bic	r3, r0, r0, asr #31
  10dd64:	e58d0010 	str	r0, [sp, #16]
  10dd68:	e58d3008 	str	r3, [sp, #8]
  10dd6c:	eafffbac 	b	10cc24 <_vfiprintf_r+0x4dc>
  10dd70:	e59d3040 	ldr	r3, [sp, #64]	; 0x40
  10dd74:	e3a07000 	mov	r7, #0
  10dd78:	e59d103c 	ldr	r1, [sp, #60]	; 0x3c
  10dd7c:	e0499003 	sub	r9, r9, r3
  10dd80:	e1a02003 	mov	r2, r3
  10dd84:	e1a00009 	mov	r0, r9
  10dd88:	ebfff990 	bl	10c3d0 <strncpy>
  10dd8c:	e5da3001 	ldrb	r3, [sl, #1]
  10dd90:	e1530007 	cmp	r3, r7
  10dd94:	128aa001 	addne	sl, sl, #1
  10dd98:	01a07003 	moveq	r7, r3
  10dd9c:	eaffff5d 	b	10db18 <_vfiprintf_r+0x13d0>
  10dda0:	e59d200c 	ldr	r2, [sp, #12]
  10dda4:	e1d230fc 	ldrsh	r3, [r2, #12]
  10dda8:	e3833040 	orr	r3, r3, #64	; 0x40
  10ddac:	e1c230bc 	strh	r3, [r2, #12]
  10ddb0:	eafffeba 	b	10d8a0 <_vfiprintf_r+0x1158>
  10ddb4:	0010f410 	.word	0x0010f410
  10ddb8:	e3e03000 	mvn	r3, #0
  10ddbc:	e58d3018 	str	r3, [sp, #24]
  10ddc0:	eafffeb8 	b	10d8a8 <_vfiprintf_r+0x1160>
  10ddc4:	e59d301c 	ldr	r3, [sp, #28]
  10ddc8:	e2833004 	add	r3, r3, #4
  10ddcc:	e5137004 	ldr	r7, [r3, #-4]
  10ddd0:	e58d301c 	str	r3, [sp, #28]
  10ddd4:	e1570005 	cmp	r7, r5
  10ddd8:	e5da3001 	ldrb	r3, [sl, #1]
  10dddc:	e1a0a001 	mov	sl, r1
  10dde0:	b1a07005 	movlt	r7, r5
  10dde4:	eafffada 	b	10c954 <_vfiprintf_r+0x20c>

0010dde8 <vfiprintf>:
  10dde8:	e30fc740 	movw	ip, #63296	; 0xf740
  10ddec:	e340c010 	movt	ip, #16
  10ddf0:	e1a03002 	mov	r3, r2
  10ddf4:	e1a02001 	mov	r2, r1
  10ddf8:	e1a01000 	mov	r1, r0
  10ddfc:	e59c0000 	ldr	r0, [ip]
  10de00:	eafffa50 	b	10c748 <_vfiprintf_r>

0010de04 <__sbprintf>:
  10de04:	e92d40f0 	push	{r4, r5, r6, r7, lr}
  10de08:	e1a04001 	mov	r4, r1
  10de0c:	e24dde46 	sub	sp, sp, #1120	; 0x460
  10de10:	e1d4e0be 	ldrh	lr, [r4, #14]
  10de14:	e24dd00c 	sub	sp, sp, #12
  10de18:	e5946064 	ldr	r6, [r4, #100]	; 0x64
  10de1c:	e1d4c0bc 	ldrh	ip, [r4, #12]
  10de20:	e1a07000 	mov	r7, r0
  10de24:	e1a0500d 	mov	r5, sp
  10de28:	e1c5e0be 	strh	lr, [r5, #14]
  10de2c:	e1a01005 	mov	r1, r5
  10de30:	e594e01c 	ldr	lr, [r4, #28]
  10de34:	e3ccc002 	bic	ip, ip, #2
  10de38:	e58d6064 	str	r6, [sp, #100]	; 0x64
  10de3c:	e5946024 	ldr	r6, [r4, #36]	; 0x24
  10de40:	e1c5c0bc 	strh	ip, [r5, #12]
  10de44:	e3a0cb01 	mov	ip, #1024	; 0x400
  10de48:	e58de01c 	str	lr, [sp, #28]
  10de4c:	e28de068 	add	lr, sp, #104	; 0x68
  10de50:	e58d6024 	str	r6, [sp, #36]	; 0x24
  10de54:	e58de000 	str	lr, [sp]
  10de58:	e58de010 	str	lr, [sp, #16]
  10de5c:	e3a0e000 	mov	lr, #0
  10de60:	e58dc008 	str	ip, [sp, #8]
  10de64:	e58dc014 	str	ip, [sp, #20]
  10de68:	e58de018 	str	lr, [sp, #24]
  10de6c:	ebfffa35 	bl	10c748 <_vfiprintf_r>
  10de70:	e2506000 	subs	r6, r0, #0
  10de74:	ba000004 	blt	10de8c <__sbprintf+0x88>
  10de78:	e1a01005 	mov	r1, r5
  10de7c:	e1a00007 	mov	r0, r7
  10de80:	ebffe6c1 	bl	10798c <_fflush_r>
  10de84:	e3500000 	cmp	r0, #0
  10de88:	13e06000 	mvnne	r6, #0
  10de8c:	e1dd30bc 	ldrh	r3, [sp, #12]
  10de90:	e1a00006 	mov	r0, r6
  10de94:	e3130040 	tst	r3, #64	; 0x40
  10de98:	11d430bc 	ldrhne	r3, [r4, #12]
  10de9c:	13833040 	orrne	r3, r3, #64	; 0x40
  10dea0:	11c430bc 	strhne	r3, [r4, #12]
  10dea4:	e28dde46 	add	sp, sp, #1120	; 0x460
  10dea8:	e28dd00c 	add	sp, sp, #12
  10deac:	e8bd80f0 	pop	{r4, r5, r6, r7, pc}

0010deb0 <_wcsnrtombs_r>:
  10deb0:	e92d4ff0 	push	{r4, r5, r6, r7, r8, r9, sl, fp, lr}
  10deb4:	e24dd034 	sub	sp, sp, #52	; 0x34
  10deb8:	e5925000 	ldr	r5, [r2]
  10debc:	e59d405c 	ldr	r4, [sp, #92]	; 0x5c
  10dec0:	e3540000 	cmp	r4, #0
  10dec4:	02804f47 	addeq	r4, r0, #284	; 0x11c
  10dec8:	e3510000 	cmp	r1, #0
  10decc:	0a000045 	beq	10dfe8 <_wcsnrtombs_r+0x138>
  10ded0:	e59dc058 	ldr	ip, [sp, #88]	; 0x58
  10ded4:	e35c0000 	cmp	ip, #0
  10ded8:	0a000054 	beq	10e030 <_wcsnrtombs_r+0x180>
  10dedc:	e3530000 	cmp	r3, #0
  10dee0:	e2436001 	sub	r6, r3, #1
  10dee4:	0a000053 	beq	10e038 <_wcsnrtombs_r+0x188>
  10dee8:	e2455004 	sub	r5, r5, #4
  10deec:	e3a07000 	mov	r7, #0
  10def0:	e30f3b70 	movw	r3, #64368	; 0xfb70
  10def4:	e58d201c 	str	r2, [sp, #28]
  10def8:	e3403010 	movt	r3, #16
  10defc:	e58d1014 	str	r1, [sp, #20]
  10df00:	e58d000c 	str	r0, [sp, #12]
  10df04:	e58d3010 	str	r3, [sp, #16]
  10df08:	e58d1018 	str	r1, [sp, #24]
  10df0c:	e59d3010 	ldr	r3, [sp, #16]
  10df10:	e5b59004 	ldr	r9, [r5, #4]!
  10df14:	e594b000 	ldr	fp, [r4]
  10df18:	e5938000 	ldr	r8, [r3]
  10df1c:	e594a004 	ldr	sl, [r4, #4]
  10df20:	ebffed1e 	bl	1093a0 <__locale_charset>
  10df24:	e58d4000 	str	r4, [sp]
  10df28:	e28d1024 	add	r1, sp, #36	; 0x24
  10df2c:	e1a02009 	mov	r2, r9
  10df30:	e1a03000 	mov	r3, r0
  10df34:	e59d000c 	ldr	r0, [sp, #12]
  10df38:	e12fff38 	blx	r8
  10df3c:	e3700001 	cmn	r0, #1
  10df40:	0a00002b 	beq	10dff4 <_wcsnrtombs_r+0x144>
  10df44:	e59d3058 	ldr	r3, [sp, #88]	; 0x58
  10df48:	e0802007 	add	r2, r0, r7
  10df4c:	e1520003 	cmp	r2, r3
  10df50:	8a00001f 	bhi	10dfd4 <_wcsnrtombs_r+0x124>
  10df54:	e59d3014 	ldr	r3, [sp, #20]
  10df58:	e3530000 	cmp	r3, #0
  10df5c:	0a00000f 	beq	10dfa0 <_wcsnrtombs_r+0xf0>
  10df60:	e3500000 	cmp	r0, #0
  10df64:	da000009 	ble	10df90 <_wcsnrtombs_r+0xe0>
  10df68:	e59d3018 	ldr	r3, [sp, #24]
  10df6c:	e28d1024 	add	r1, sp, #36	; 0x24
  10df70:	e0830000 	add	r0, r3, r0
  10df74:	e2433001 	sub	r3, r3, #1
  10df78:	e240e001 	sub	lr, r0, #1
  10df7c:	e4d1c001 	ldrb	ip, [r1], #1
  10df80:	e5e3c001 	strb	ip, [r3, #1]!
  10df84:	e153000e 	cmp	r3, lr
  10df88:	1afffffb 	bne	10df7c <_wcsnrtombs_r+0xcc>
  10df8c:	e58d0018 	str	r0, [sp, #24]
  10df90:	e59d101c 	ldr	r1, [sp, #28]
  10df94:	e5913000 	ldr	r3, [r1]
  10df98:	e2833004 	add	r3, r3, #4
  10df9c:	e5813000 	str	r3, [r1]
  10dfa0:	e5953000 	ldr	r3, [r5]
  10dfa4:	e3530000 	cmp	r3, #0
  10dfa8:	0a000018 	beq	10e010 <_wcsnrtombs_r+0x160>
  10dfac:	e59d3058 	ldr	r3, [sp, #88]	; 0x58
  10dfb0:	e1520003 	cmp	r2, r3
  10dfb4:	2a000021 	bcs	10e040 <_wcsnrtombs_r+0x190>
  10dfb8:	e2466001 	sub	r6, r6, #1
  10dfbc:	e1a07002 	mov	r7, r2
  10dfc0:	e3760001 	cmn	r6, #1
  10dfc4:	1affffd0 	bne	10df0c <_wcsnrtombs_r+0x5c>
  10dfc8:	e1a00007 	mov	r0, r7
  10dfcc:	e28dd034 	add	sp, sp, #52	; 0x34
  10dfd0:	e8bd8ff0 	pop	{r4, r5, r6, r7, r8, r9, sl, fp, pc}
  10dfd4:	e1a00007 	mov	r0, r7
  10dfd8:	e584b000 	str	fp, [r4]
  10dfdc:	e584a004 	str	sl, [r4, #4]
  10dfe0:	e28dd034 	add	sp, sp, #52	; 0x34
  10dfe4:	e8bd8ff0 	pop	{r4, r5, r6, r7, r8, r9, sl, fp, pc}
  10dfe8:	e3e0c000 	mvn	ip, #0
  10dfec:	e58dc058 	str	ip, [sp, #88]	; 0x58
  10dff0:	eaffffb9 	b	10dedc <_wcsnrtombs_r+0x2c>
  10dff4:	e59d100c 	ldr	r1, [sp, #12]
  10dff8:	e3a0208a 	mov	r2, #138	; 0x8a
  10dffc:	e3a03000 	mov	r3, #0
  10e000:	e1a07000 	mov	r7, r0
  10e004:	e5812000 	str	r2, [r1]
  10e008:	e5843000 	str	r3, [r4]
  10e00c:	eaffffed 	b	10dfc8 <_wcsnrtombs_r+0x118>
  10e010:	e59d1014 	ldr	r1, [sp, #20]
  10e014:	e2427001 	sub	r7, r2, #1
  10e018:	e3510000 	cmp	r1, #0
  10e01c:	159d101c 	ldrne	r1, [sp, #28]
  10e020:	15813000 	strne	r3, [r1]
  10e024:	e3a03000 	mov	r3, #0
  10e028:	e5843000 	str	r3, [r4]
  10e02c:	eaffffe5 	b	10dfc8 <_wcsnrtombs_r+0x118>
  10e030:	e59d7058 	ldr	r7, [sp, #88]	; 0x58
  10e034:	eaffffe3 	b	10dfc8 <_wcsnrtombs_r+0x118>
  10e038:	e1a07003 	mov	r7, r3
  10e03c:	eaffffe1 	b	10dfc8 <_wcsnrtombs_r+0x118>
  10e040:	e1a07002 	mov	r7, r2
  10e044:	eaffffdf 	b	10dfc8 <_wcsnrtombs_r+0x118>

0010e048 <wcsnrtombs>:
  10e048:	e52de004 	push	{lr}		; (str lr, [sp, #-4]!)
  10e04c:	e30fc740 	movw	ip, #63296	; 0xf740
  10e050:	e24dd00c 	sub	sp, sp, #12
  10e054:	e340c010 	movt	ip, #16
  10e058:	e59de010 	ldr	lr, [sp, #16]
  10e05c:	e59cc000 	ldr	ip, [ip]
  10e060:	e58d3000 	str	r3, [sp]
  10e064:	e1a03002 	mov	r3, r2
  10e068:	e58de004 	str	lr, [sp, #4]
  10e06c:	e1a02001 	mov	r2, r1
  10e070:	e1a01000 	mov	r1, r0
  10e074:	e1a0000c 	mov	r0, ip
  10e078:	ebffff8c 	bl	10deb0 <_wcsnrtombs_r>
  10e07c:	e28dd00c 	add	sp, sp, #12
  10e080:	e49df004 	pop	{pc}		; (ldr pc, [sp], #4)

0010e084 <_write_r>:
  10e084:	e92d4070 	push	{r4, r5, r6, lr}
  10e088:	e1a0c001 	mov	ip, r1
  10e08c:	e3084414 	movw	r4, #33812	; 0x8414
  10e090:	e3404012 	movt	r4, #18
  10e094:	e1a01002 	mov	r1, r2
  10e098:	e1a05000 	mov	r5, r0
  10e09c:	e1a02003 	mov	r2, r3
  10e0a0:	e1a0000c 	mov	r0, ip
  10e0a4:	e3a03000 	mov	r3, #0
  10e0a8:	e5843000 	str	r3, [r4]
  10e0ac:	eb0001c8 	bl	10e7d4 <_write>
  10e0b0:	e3700001 	cmn	r0, #1
  10e0b4:	18bd8070 	popne	{r4, r5, r6, pc}
  10e0b8:	e5943000 	ldr	r3, [r4]
  10e0bc:	e3530000 	cmp	r3, #0
  10e0c0:	15853000 	strne	r3, [r5]
  10e0c4:	e8bd8070 	pop	{r4, r5, r6, pc}

0010e0c8 <_calloc_r>:
  10e0c8:	e92d4010 	push	{r4, lr}
  10e0cc:	e0010192 	mul	r1, r2, r1
  10e0d0:	ebffed2a 	bl	109580 <_malloc_r>
  10e0d4:	e2504000 	subs	r4, r0, #0
  10e0d8:	0a000018 	beq	10e140 <_calloc_r+0x78>
  10e0dc:	e5142004 	ldr	r2, [r4, #-4]
  10e0e0:	e3c22003 	bic	r2, r2, #3
  10e0e4:	e2422004 	sub	r2, r2, #4
  10e0e8:	e3520024 	cmp	r2, #36	; 0x24
  10e0ec:	8a000015 	bhi	10e148 <_calloc_r+0x80>
  10e0f0:	e3520013 	cmp	r2, #19
  10e0f4:	91a02004 	movls	r2, r4
  10e0f8:	9a00000c 	bls	10e130 <_calloc_r+0x68>
  10e0fc:	e352001b 	cmp	r2, #27
  10e100:	e3a03000 	mov	r3, #0
  10e104:	92842008 	addls	r2, r4, #8
  10e108:	e5843000 	str	r3, [r4]
  10e10c:	e5843004 	str	r3, [r4, #4]
  10e110:	9a000006 	bls	10e130 <_calloc_r+0x68>
  10e114:	e3520024 	cmp	r2, #36	; 0x24
  10e118:	e5843008 	str	r3, [r4, #8]
  10e11c:	12842010 	addne	r2, r4, #16
  10e120:	02842018 	addeq	r2, r4, #24
  10e124:	e584300c 	str	r3, [r4, #12]
  10e128:	05843010 	streq	r3, [r4, #16]
  10e12c:	05843014 	streq	r3, [r4, #20]
  10e130:	e3a03000 	mov	r3, #0
  10e134:	e5823000 	str	r3, [r2]
  10e138:	e5823004 	str	r3, [r2, #4]
  10e13c:	e5823008 	str	r3, [r2, #8]
  10e140:	e1a00004 	mov	r0, r4
  10e144:	e8bd8010 	pop	{r4, pc}
  10e148:	e3a01000 	mov	r1, #0
  10e14c:	ebfff12a 	bl	10a5fc <memset>
  10e150:	e1a00004 	mov	r0, r4
  10e154:	e8bd8010 	pop	{r4, pc}

0010e158 <_close_r>:
  10e158:	e92d4070 	push	{r4, r5, r6, lr}
  10e15c:	e3084414 	movw	r4, #33812	; 0x8414
  10e160:	e3404012 	movt	r4, #18
  10e164:	e1a05000 	mov	r5, r0
  10e168:	e1a00001 	mov	r0, r1
  10e16c:	e3a03000 	mov	r3, #0
  10e170:	e5843000 	str	r3, [r4]
  10e174:	eb00013d 	bl	10e670 <_close>
  10e178:	e3700001 	cmn	r0, #1
  10e17c:	18bd8070 	popne	{r4, r5, r6, pc}
  10e180:	e5943000 	ldr	r3, [r4]
  10e184:	e3530000 	cmp	r3, #0
  10e188:	15853000 	strne	r3, [r5]
  10e18c:	e8bd8070 	pop	{r4, r5, r6, pc}

0010e190 <__set_ctype>:
  10e190:	e3003104 	movw	r3, #260	; 0x104
  10e194:	e3403011 	movt	r3, #17
  10e198:	e30f2420 	movw	r2, #62496	; 0xf420
  10e19c:	e3402010 	movt	r2, #16
  10e1a0:	e5832000 	str	r2, [r3]
  10e1a4:	e12fff1e 	bx	lr

0010e1a8 <_fclose_r>:
  10e1a8:	e92d4070 	push	{r4, r5, r6, lr}
  10e1ac:	e2514000 	subs	r4, r1, #0
  10e1b0:	0a000008 	beq	10e1d8 <_fclose_r+0x30>
  10e1b4:	e3500000 	cmp	r0, #0
  10e1b8:	e1a06000 	mov	r6, r0
  10e1bc:	0a000002 	beq	10e1cc <_fclose_r+0x24>
  10e1c0:	e5903038 	ldr	r3, [r0, #56]	; 0x38
  10e1c4:	e3530000 	cmp	r3, #0
  10e1c8:	0a00002b 	beq	10e27c <_fclose_r+0xd4>
  10e1cc:	e1d430fc 	ldrsh	r3, [r4, #12]
  10e1d0:	e3530000 	cmp	r3, #0
  10e1d4:	1a000002 	bne	10e1e4 <_fclose_r+0x3c>
  10e1d8:	e3a05000 	mov	r5, #0
  10e1dc:	e1a00005 	mov	r0, r5
  10e1e0:	e8bd8070 	pop	{r4, r5, r6, pc}
  10e1e4:	e1a01004 	mov	r1, r4
  10e1e8:	e1a00006 	mov	r0, r6
  10e1ec:	ebffe55c 	bl	107764 <__sflush_r>
  10e1f0:	e594302c 	ldr	r3, [r4, #44]	; 0x2c
  10e1f4:	e3530000 	cmp	r3, #0
  10e1f8:	e1a05000 	mov	r5, r0
  10e1fc:	0a000004 	beq	10e214 <_fclose_r+0x6c>
  10e200:	e594101c 	ldr	r1, [r4, #28]
  10e204:	e1a00006 	mov	r0, r6
  10e208:	e12fff33 	blx	r3
  10e20c:	e3500000 	cmp	r0, #0
  10e210:	b3e05000 	mvnlt	r5, #0
  10e214:	e1d430bc 	ldrh	r3, [r4, #12]
  10e218:	e3130080 	tst	r3, #128	; 0x80
  10e21c:	1a00001b 	bne	10e290 <_fclose_r+0xe8>
  10e220:	e5941030 	ldr	r1, [r4, #48]	; 0x30
  10e224:	e3510000 	cmp	r1, #0
  10e228:	0a000006 	beq	10e248 <_fclose_r+0xa0>
  10e22c:	e2843040 	add	r3, r4, #64	; 0x40
  10e230:	e1510003 	cmp	r1, r3
  10e234:	0a000001 	beq	10e240 <_fclose_r+0x98>
  10e238:	e1a00006 	mov	r0, r6
  10e23c:	ebffe6f2 	bl	107e0c <_free_r>
  10e240:	e3a03000 	mov	r3, #0
  10e244:	e5843030 	str	r3, [r4, #48]	; 0x30
  10e248:	e5941044 	ldr	r1, [r4, #68]	; 0x44
  10e24c:	e3510000 	cmp	r1, #0
  10e250:	0a000003 	beq	10e264 <_fclose_r+0xbc>
  10e254:	e1a00006 	mov	r0, r6
  10e258:	ebffe6eb 	bl	107e0c <_free_r>
  10e25c:	e3a03000 	mov	r3, #0
  10e260:	e5843044 	str	r3, [r4, #68]	; 0x44
  10e264:	ebffe699 	bl	107cd0 <__sfp_lock_acquire>
  10e268:	e3a03000 	mov	r3, #0
  10e26c:	e1c430bc 	strh	r3, [r4, #12]
  10e270:	ebffe697 	bl	107cd4 <__sfp_lock_release>
  10e274:	e1a00005 	mov	r0, r5
  10e278:	e8bd8070 	pop	{r4, r5, r6, pc}
  10e27c:	ebffe68f 	bl	107cc0 <__sinit>
  10e280:	e1d430fc 	ldrsh	r3, [r4, #12]
  10e284:	e3530000 	cmp	r3, #0
  10e288:	0affffd2 	beq	10e1d8 <_fclose_r+0x30>
  10e28c:	eaffffd4 	b	10e1e4 <_fclose_r+0x3c>
  10e290:	e5941010 	ldr	r1, [r4, #16]
  10e294:	e1a00006 	mov	r0, r6
  10e298:	ebffe6db 	bl	107e0c <_free_r>
  10e29c:	eaffffdf 	b	10e220 <_fclose_r+0x78>

0010e2a0 <fclose>:
  10e2a0:	e30f3740 	movw	r3, #63296	; 0xf740
  10e2a4:	e3403010 	movt	r3, #16
  10e2a8:	e1a01000 	mov	r1, r0
  10e2ac:	e5930000 	ldr	r0, [r3]
  10e2b0:	eaffffbc 	b	10e1a8 <_fclose_r>

0010e2b4 <__fputwc>:
  10e2b4:	e92d47f0 	push	{r4, r5, r6, r7, r8, r9, sl, lr}
  10e2b8:	e24dd008 	sub	sp, sp, #8
  10e2bc:	e1a08000 	mov	r8, r0
  10e2c0:	e1a07001 	mov	r7, r1
  10e2c4:	e1a04002 	mov	r4, r2
  10e2c8:	ebffec37 	bl	1093ac <__locale_mb_cur_max>
  10e2cc:	e3500001 	cmp	r0, #1
  10e2d0:	1a000002 	bne	10e2e0 <__fputwc+0x2c>
  10e2d4:	e2473001 	sub	r3, r7, #1
  10e2d8:	e35300fe 	cmp	r3, #254	; 0xfe
  10e2dc:	9a00002a 	bls	10e38c <__fputwc+0xd8>
  10e2e0:	e284305c 	add	r3, r4, #92	; 0x5c
  10e2e4:	e1a02007 	mov	r2, r7
  10e2e8:	e1a0100d 	mov	r1, sp
  10e2ec:	e1a00008 	mov	r0, r8
  10e2f0:	ebffde3b 	bl	105be4 <_wcrtomb_r>
  10e2f4:	e3700001 	cmn	r0, #1
  10e2f8:	e1a06000 	mov	r6, r0
  10e2fc:	0a000029 	beq	10e3a8 <__fputwc+0xf4>
  10e300:	e3500000 	cmp	r0, #0
  10e304:	0a000024 	beq	10e39c <__fputwc+0xe8>
  10e308:	e5ddc000 	ldrb	ip, [sp]
  10e30c:	e28d5001 	add	r5, sp, #1
  10e310:	e1a0900d 	mov	r9, sp
  10e314:	ea000007 	b	10e338 <__fputwc+0x84>
  10e318:	e5943000 	ldr	r3, [r4]
  10e31c:	e2832001 	add	r2, r3, #1
  10e320:	e5842000 	str	r2, [r4]
  10e324:	e5c3c000 	strb	ip, [r3]
  10e328:	e0453009 	sub	r3, r5, r9
  10e32c:	e1560003 	cmp	r6, r3
  10e330:	9a000019 	bls	10e39c <__fputwc+0xe8>
  10e334:	e4d5c001 	ldrb	ip, [r5], #1
  10e338:	e5943008 	ldr	r3, [r4, #8]
  10e33c:	e243a001 	sub	sl, r3, #1
  10e340:	e584a008 	str	sl, [r4, #8]
  10e344:	e35a0000 	cmp	sl, #0
  10e348:	aafffff2 	bge	10e318 <__fputwc+0x64>
  10e34c:	e594e018 	ldr	lr, [r4, #24]
  10e350:	e1a0100c 	mov	r1, ip
  10e354:	e1a02004 	mov	r2, r4
  10e358:	e1a00008 	mov	r0, r8
  10e35c:	e15a000e 	cmp	sl, lr
  10e360:	b3a03000 	movlt	r3, #0
  10e364:	a3a03001 	movge	r3, #1
  10e368:	e35c000a 	cmp	ip, #10
  10e36c:	03a03000 	moveq	r3, #0
  10e370:	e3530000 	cmp	r3, #0
  10e374:	1affffe7 	bne	10e318 <__fputwc+0x64>
  10e378:	ebffddc9 	bl	105aa4 <__swbuf_r>
  10e37c:	e3700001 	cmn	r0, #1
  10e380:	1affffe8 	bne	10e328 <__fputwc+0x74>
  10e384:	e28dd008 	add	sp, sp, #8
  10e388:	e8bd87f0 	pop	{r4, r5, r6, r7, r8, r9, sl, pc}
  10e38c:	e6efc077 	uxtb	ip, r7
  10e390:	e1a06000 	mov	r6, r0
  10e394:	e5cdc000 	strb	ip, [sp]
  10e398:	eaffffdb 	b	10e30c <__fputwc+0x58>
  10e39c:	e1a00007 	mov	r0, r7
  10e3a0:	e28dd008 	add	sp, sp, #8
  10e3a4:	e8bd87f0 	pop	{r4, r5, r6, r7, r8, r9, sl, pc}
  10e3a8:	e1d430bc 	ldrh	r3, [r4, #12]
  10e3ac:	e3833040 	orr	r3, r3, #64	; 0x40
  10e3b0:	e1c430bc 	strh	r3, [r4, #12]
  10e3b4:	e28dd008 	add	sp, sp, #8
  10e3b8:	e8bd87f0 	pop	{r4, r5, r6, r7, r8, r9, sl, pc}

0010e3bc <_fputwc_r>:
  10e3bc:	e1d230fc 	ldrsh	r3, [r2, #12]
  10e3c0:	e3130a02 	tst	r3, #8192	; 0x2000
  10e3c4:	03833a02 	orreq	r3, r3, #8192	; 0x2000
  10e3c8:	01c230bc 	strheq	r3, [r2, #12]
  10e3cc:	0592c064 	ldreq	ip, [r2, #100]	; 0x64
  10e3d0:	038c3a02 	orreq	r3, ip, #8192	; 0x2000
  10e3d4:	05823064 	streq	r3, [r2, #100]	; 0x64
  10e3d8:	eaffffb5 	b	10e2b4 <__fputwc>

0010e3dc <fputwc>:
  10e3dc:	e30f3740 	movw	r3, #63296	; 0xf740
  10e3e0:	e3403010 	movt	r3, #16
  10e3e4:	e92d4070 	push	{r4, r5, r6, lr}
  10e3e8:	e1a06000 	mov	r6, r0
  10e3ec:	e5935000 	ldr	r5, [r3]
  10e3f0:	e1a04001 	mov	r4, r1
  10e3f4:	e3550000 	cmp	r5, #0
  10e3f8:	0a000002 	beq	10e408 <fputwc+0x2c>
  10e3fc:	e5953038 	ldr	r3, [r5, #56]	; 0x38
  10e400:	e3530000 	cmp	r3, #0
  10e404:	0a00000b 	beq	10e438 <fputwc+0x5c>
  10e408:	e1d430fc 	ldrsh	r3, [r4, #12]
  10e40c:	e1a01006 	mov	r1, r6
  10e410:	e1a00005 	mov	r0, r5
  10e414:	e3130a02 	tst	r3, #8192	; 0x2000
  10e418:	03833a02 	orreq	r3, r3, #8192	; 0x2000
  10e41c:	01c430bc 	strheq	r3, [r4, #12]
  10e420:	05942064 	ldreq	r2, [r4, #100]	; 0x64
  10e424:	03823a02 	orreq	r3, r2, #8192	; 0x2000
  10e428:	e1a02004 	mov	r2, r4
  10e42c:	05843064 	streq	r3, [r4, #100]	; 0x64
  10e430:	e8bd4070 	pop	{r4, r5, r6, lr}
  10e434:	eaffff9e 	b	10e2b4 <__fputwc>
  10e438:	e1a00005 	mov	r0, r5
  10e43c:	ebffe61f 	bl	107cc0 <__sinit>
  10e440:	eafffff0 	b	10e408 <fputwc+0x2c>

0010e444 <_fstat_r>:
  10e444:	e92d4070 	push	{r4, r5, r6, lr}
  10e448:	e1a03001 	mov	r3, r1
  10e44c:	e3084414 	movw	r4, #33812	; 0x8414
  10e450:	e3404012 	movt	r4, #18
  10e454:	e1a05000 	mov	r5, r0
  10e458:	e1a01002 	mov	r1, r2
  10e45c:	e1a00003 	mov	r0, r3
  10e460:	e3a03000 	mov	r3, #0
  10e464:	e5843000 	str	r3, [r4]
  10e468:	eb000082 	bl	10e678 <_fstat>
  10e46c:	e3700001 	cmn	r0, #1
  10e470:	18bd8070 	popne	{r4, r5, r6, pc}
  10e474:	e5943000 	ldr	r3, [r4]
  10e478:	e3530000 	cmp	r3, #0
  10e47c:	15853000 	strne	r3, [r5]
  10e480:	e8bd8070 	pop	{r4, r5, r6, pc}

0010e484 <_findenv_r>:
  10e484:	e92d47f0 	push	{r4, r5, r6, r7, r8, r9, sl, lr}
  10e488:	e3007108 	movw	r7, #264	; 0x108
  10e48c:	e3407011 	movt	r7, #17
  10e490:	e1a05001 	mov	r5, r1
  10e494:	e1a06002 	mov	r6, r2
  10e498:	e1a08000 	mov	r8, r0
  10e49c:	eb000060 	bl	10e624 <__env_lock>
  10e4a0:	e5979000 	ldr	r9, [r7]
  10e4a4:	e3590000 	cmp	r9, #0
  10e4a8:	0a00001b 	beq	10e51c <_findenv_r+0x98>
  10e4ac:	e5d52000 	ldrb	r2, [r5]
  10e4b0:	e1a04005 	mov	r4, r5
  10e4b4:	e352003d 	cmp	r2, #61	; 0x3d
  10e4b8:	13520000 	cmpne	r2, #0
  10e4bc:	0a000003 	beq	10e4d0 <_findenv_r+0x4c>
  10e4c0:	e5f42001 	ldrb	r2, [r4, #1]!
  10e4c4:	e3520000 	cmp	r2, #0
  10e4c8:	1352003d 	cmpne	r2, #61	; 0x3d
  10e4cc:	1afffffb 	bne	10e4c0 <_findenv_r+0x3c>
  10e4d0:	e352003d 	cmp	r2, #61	; 0x3d
  10e4d4:	0a000010 	beq	10e51c <_findenv_r+0x98>
  10e4d8:	e5990000 	ldr	r0, [r9]
  10e4dc:	e0444005 	sub	r4, r4, r5
  10e4e0:	e3500000 	cmp	r0, #0
  10e4e4:	0a00000c 	beq	10e51c <_findenv_r+0x98>
  10e4e8:	e1a02004 	mov	r2, r4
  10e4ec:	e1a01005 	mov	r1, r5
  10e4f0:	ebfff778 	bl	10c2d8 <strncmp>
  10e4f4:	e3500000 	cmp	r0, #0
  10e4f8:	1a000004 	bne	10e510 <_findenv_r+0x8c>
  10e4fc:	e5993000 	ldr	r3, [r9]
  10e500:	e083a004 	add	sl, r3, r4
  10e504:	e7d33004 	ldrb	r3, [r3, r4]
  10e508:	e353003d 	cmp	r3, #61	; 0x3d
  10e50c:	0a000006 	beq	10e52c <_findenv_r+0xa8>
  10e510:	e5b90004 	ldr	r0, [r9, #4]!
  10e514:	e3500000 	cmp	r0, #0
  10e518:	1afffff2 	bne	10e4e8 <_findenv_r+0x64>
  10e51c:	e1a00008 	mov	r0, r8
  10e520:	eb000040 	bl	10e628 <__env_unlock>
  10e524:	e3a00000 	mov	r0, #0
  10e528:	e8bd87f0 	pop	{r4, r5, r6, r7, r8, r9, sl, pc}
  10e52c:	e5973000 	ldr	r3, [r7]
  10e530:	e1a00008 	mov	r0, r8
  10e534:	e0493003 	sub	r3, r9, r3
  10e538:	e1a03143 	asr	r3, r3, #2
  10e53c:	e5863000 	str	r3, [r6]
  10e540:	eb000038 	bl	10e628 <__env_unlock>
  10e544:	e28a0001 	add	r0, sl, #1
  10e548:	e8bd87f0 	pop	{r4, r5, r6, r7, r8, r9, sl, pc}

0010e54c <_getenv_r>:
  10e54c:	e52de004 	push	{lr}		; (str lr, [sp, #-4]!)
  10e550:	e24dd00c 	sub	sp, sp, #12
  10e554:	e28d2004 	add	r2, sp, #4
  10e558:	ebffffc9 	bl	10e484 <_findenv_r>
  10e55c:	e28dd00c 	add	sp, sp, #12
  10e560:	e49df004 	pop	{pc}		; (ldr pc, [sp], #4)

0010e564 <_isatty_r>:
  10e564:	e92d4070 	push	{r4, r5, r6, lr}
  10e568:	e3084414 	movw	r4, #33812	; 0x8414
  10e56c:	e3404012 	movt	r4, #18
  10e570:	e1a05000 	mov	r5, r0
  10e574:	e1a00001 	mov	r0, r1
  10e578:	e3a03000 	mov	r3, #0
  10e57c:	e5843000 	str	r3, [r4]
  10e580:	eb000046 	bl	10e6a0 <_isatty>
  10e584:	e3700001 	cmn	r0, #1
  10e588:	18bd8070 	popne	{r4, r5, r6, pc}
  10e58c:	e5943000 	ldr	r3, [r4]
  10e590:	e3530000 	cmp	r3, #0
  10e594:	15853000 	strne	r3, [r5]
  10e598:	e8bd8070 	pop	{r4, r5, r6, pc}

0010e59c <_lseek_r>:
  10e59c:	e92d4070 	push	{r4, r5, r6, lr}
  10e5a0:	e1a0c001 	mov	ip, r1
  10e5a4:	e3084414 	movw	r4, #33812	; 0x8414
  10e5a8:	e3404012 	movt	r4, #18
  10e5ac:	e1a01002 	mov	r1, r2
  10e5b0:	e1a05000 	mov	r5, r0
  10e5b4:	e1a02003 	mov	r2, r3
  10e5b8:	e1a0000c 	mov	r0, ip
  10e5bc:	e3a03000 	mov	r3, #0
  10e5c0:	e5843000 	str	r3, [r4]
  10e5c4:	eb00004b 	bl	10e6f8 <_lseek>
  10e5c8:	e3700001 	cmn	r0, #1
  10e5cc:	18bd8070 	popne	{r4, r5, r6, pc}
  10e5d0:	e5943000 	ldr	r3, [r4]
  10e5d4:	e3530000 	cmp	r3, #0
  10e5d8:	15853000 	strne	r3, [r5]
  10e5dc:	e8bd8070 	pop	{r4, r5, r6, pc}

0010e5e0 <_read_r>:
  10e5e0:	e92d4070 	push	{r4, r5, r6, lr}
  10e5e4:	e1a0c001 	mov	ip, r1
  10e5e8:	e3084414 	movw	r4, #33812	; 0x8414
  10e5ec:	e3404012 	movt	r4, #18
  10e5f0:	e1a01002 	mov	r1, r2
  10e5f4:	e1a05000 	mov	r5, r0
  10e5f8:	e1a02003 	mov	r2, r3
  10e5fc:	e1a0000c 	mov	r0, ip
  10e600:	e3a03000 	mov	r3, #0
  10e604:	e5843000 	str	r3, [r4]
  10e608:	eb000055 	bl	10e764 <_read>
  10e60c:	e3700001 	cmn	r0, #1
  10e610:	18bd8070 	popne	{r4, r5, r6, pc}
  10e614:	e5943000 	ldr	r3, [r4]
  10e618:	e3530000 	cmp	r3, #0
  10e61c:	15853000 	strne	r3, [r5]
  10e620:	e8bd8070 	pop	{r4, r5, r6, pc}

0010e624 <__env_lock>:
  10e624:	e12fff1e 	bx	lr

0010e628 <__env_unlock>:
  10e628:	e12fff1e 	bx	lr

0010e62c <_exit>:
#include "xil_types.h"

/* _exit - Simple implementation. Does not return.
*/
__attribute__((weak)) void _exit (sint32 status)
{
  10e62c:	eafffffe 	b	10e62c <_exit>

0010e630 <_sbrk>:
  static u8 *heap = NULL;
  u8 *prev_heap;
  static u8 *HeapEndPtr = (u8 *)&_heap_end;
  caddr_t Status;

  if (heap == NULL) {
  10e630:	e3082404 	movw	r2, #33796	; 0x8404
  10e634:	e3402012 	movt	r2, #18
  10e638:	e5923000 	ldr	r3, [r2]
  10e63c:	e3530000 	cmp	r3, #0
    heap = (u8 *)&_heap_start;
  10e640:	03081420 	movweq	r1, #33824	; 0x8420
  10e644:	03401012 	movteq	r1, #18
  10e648:	01a03001 	moveq	r3, r1
  10e64c:	05821000 	streq	r1, [r2]
  }
  prev_heap = heap;

  	if (((heap + incr) <= HeapEndPtr) && (prev_heap != NULL)) {
  10e650:	e3081420 	movw	r1, #33824	; 0x8420
  10e654:	e0830000 	add	r0, r3, r0
  10e658:	e3401014 	movt	r1, #20
  10e65c:	e1500001 	cmp	r0, r1
  heap += incr;
	  Status = (caddr_t) ((void *)prev_heap);
  	} else {
	  Status = (caddr_t) -1;
  10e660:	83e03000 	mvnhi	r3, #0
  heap += incr;
  10e664:	95820000 	strls	r0, [r2]
  }

  return Status;
}
  10e668:	e1a00003 	mov	r0, r3
  10e66c:	e12fff1e 	bx	lr

0010e670 <_close>:

__attribute__((weak)) s32 _close(s32 fd)
{
  (void)fd;
  return (0);
}
  10e670:	e3a00000 	mov	r0, #0
  10e674:	e12fff1e 	bx	lr

0010e678 <_fstat>:
 * fstat -- Since we have no file system, we just return an error.
 */
__attribute__((weak)) s32 _fstat(s32 fd, struct stat *buf)
{
  (void)fd;
  buf->st_mode = S_IFCHR; /* Always pretend to be a tty */
  10e678:	e3a03a02 	mov	r3, #8192	; 0x2000

  return (0);
}
  10e67c:	e3a00000 	mov	r0, #0
  buf->st_mode = S_IFCHR; /* Always pretend to be a tty */
  10e680:	e5813004 	str	r3, [r1, #4]
}
  10e684:	e12fff1e 	bx	lr

0010e688 <getpid>:
#endif

__attribute__((weak)) s32 getpid(void)
{
  return 1;
}
  10e688:	e3a00001 	mov	r0, #1
  10e68c:	e12fff1e 	bx	lr

0010e690 <_getpid>:
  10e690:	e3a00001 	mov	r0, #1
  10e694:	e12fff1e 	bx	lr

0010e698 <isatty>:
 */
__attribute__((weak)) sint32 isatty(sint32 fd)
{
  (void)fd;
  return (1);
}
  10e698:	e3a00001 	mov	r0, #1
  10e69c:	e12fff1e 	bx	lr

0010e6a0 <_isatty>:
  10e6a0:	e3a00001 	mov	r0, #1
  10e6a4:	e12fff1e 	bx	lr

0010e6a8 <kill>:
 * kill -- go out via exit...
 */

__attribute__((weak)) int kill(pid_t pid, int sig)
{
  if(pid == 1) {
  10e6a8:	e3500001 	cmp	r0, #1
  10e6ac:	0a000001 	beq	10e6b8 <kill+0x10>
    _exit(sig);
  }
  return 0;
}
  10e6b0:	e3a00000 	mov	r0, #0
  10e6b4:	e12fff1e 	bx	lr
{
  10e6b8:	e92d4010 	push	{r4, lr}
  10e6bc:	e1a00001 	mov	r0, r1
    _exit(sig);
  10e6c0:	ebffffd9 	bl	10e62c <_exit>

0010e6c4 <_kill>:
  10e6c4:	e3500001 	cmp	r0, #1
  10e6c8:	0a000001 	beq	10e6d4 <_kill+0x10>
  10e6cc:	e3a00000 	mov	r0, #0
  10e6d0:	e12fff1e 	bx	lr
  10e6d4:	e92d4010 	push	{r4, lr}
  10e6d8:	e1a00001 	mov	r0, r1
  10e6dc:	ebffffd2 	bl	10e62c <_exit>

0010e6e0 <lseek>:
#endif
/*
 * lseek --  Since a serial port is non-seekable, we return an error.
 */
__attribute__((weak)) off_t lseek(s32 fd, off_t offset, s32 whence)
{
  10e6e0:	e92d4010 	push	{r4, lr}
  (void)fd;
  (void)offset;
  (void)whence;
  errno = ESPIPE;
  10e6e4:	eb00003b 	bl	10e7d8 <__errno>
  10e6e8:	e3a0301d 	mov	r3, #29
  10e6ec:	e5803000 	str	r3, [r0]
  return ((off_t)-1);
}
  10e6f0:	e3e00000 	mvn	r0, #0
  10e6f4:	e8bd8010 	pop	{r4, pc}

0010e6f8 <_lseek>:
  10e6f8:	e92d4010 	push	{r4, lr}
  10e6fc:	eb000035 	bl	10e7d8 <__errno>
  10e700:	e3a0301d 	mov	r3, #29
  10e704:	e5803000 	str	r3, [r0]
  10e708:	e3e00000 	mvn	r0, #0
  10e70c:	e8bd8010 	pop	{r4, pc}

0010e710 <read>:
 * read  -- read bytes from the serial port. Ignore fd, since
 *          we only have stdin.
 */
__attribute__((weak)) s32
read (s32 fd, char8* buf, s32 nbytes)
{
  10e710:	e92d4070 	push	{r4, r5, r6, lr}
  s32 i;
  s32 numbytes = 0;
  char8* LocalBuf = buf;

  (void)fd;
  if(LocalBuf != NULL) {
  10e714:	e2514000 	subs	r4, r1, #0
  10e718:	0a00000d 	beq	10e754 <read+0x44>
	for (i = 0; i < nbytes; i++) {
  10e71c:	e3520000 	cmp	r2, #0
  10e720:	da00000d 	ble	10e75c <read+0x4c>
  10e724:	e2445001 	sub	r5, r4, #1
  10e728:	e1a06002 	mov	r6, r2
  10e72c:	e3a04000 	mov	r4, #0
  10e730:	ea000001 	b	10e73c <read+0x2c>
  10e734:	e1560004 	cmp	r6, r4
  10e738:	0a000005 	beq	10e754 <read+0x44>
		numbytes++;
		*(LocalBuf + i) = inbyte();
  10e73c:	eb000029 	bl	10e7e8 <inbyte>
		if ((*(LocalBuf + i) == '\n' )|| (*(LocalBuf + i) == '\r')) {
  10e740:	e350000d 	cmp	r0, #13
  10e744:	1350000a 	cmpne	r0, #10
		numbytes++;
  10e748:	e2844001 	add	r4, r4, #1
		*(LocalBuf + i) = inbyte();
  10e74c:	e5e50001 	strb	r0, [r5, #1]!
		if ((*(LocalBuf + i) == '\n' )|| (*(LocalBuf + i) == '\r')) {
  10e750:	1afffff7 	bne	10e734 <read+0x24>
  (void)fd;
  (void)buf;
  (void)nbytes;
  return 0;
#endif
}
  10e754:	e1a00004 	mov	r0, r4
  10e758:	e8bd8070 	pop	{r4, r5, r6, pc}
  s32 numbytes = 0;
  10e75c:	e3a04000 	mov	r4, #0
  return numbytes;
  10e760:	eafffffb 	b	10e754 <read+0x44>

0010e764 <_read>:
  10e764:	eaffffe9 	b	10e710 <read>

0010e768 <write>:
 *          open will only return an error.
 */
__attribute__((weak)) sint32
write (sint32 fd, char8* buf, sint32 nbytes)

{
  10e768:	e92d41f0 	push	{r4, r5, r6, r7, r8, lr}
#ifdef STDOUT_BASEADDRESS
  s32 i;
  char8* LocalBuf = buf;

  (void)fd;
  for (i = 0; i < nbytes; i++) {
  10e76c:	e2526000 	subs	r6, r2, #0
  10e770:	da000015 	ble	10e7cc <write+0x64>
  10e774:	e1a04001 	mov	r4, r1
  10e778:	e3a03000 	mov	r3, #0
  10e77c:	ea000003 	b	10e790 <write+0x28>
	}
	if(LocalBuf != NULL) {
	    if (*LocalBuf == '\n') {
	      outbyte ('\r');
	    }
	    outbyte (*LocalBuf);
  10e780:	eb00001a 	bl	10e7f0 <outbyte>
  for (i = 0; i < nbytes; i++) {
  10e784:	e1560005 	cmp	r6, r5
  10e788:	e1a03005 	mov	r3, r5
  10e78c:	da00000e 	ble	10e7cc <write+0x64>
	if(LocalBuf != NULL) {
  10e790:	e3540000 	cmp	r4, #0
  10e794:	e2835001 	add	r5, r3, #1
  10e798:	0a00000b 	beq	10e7cc <write+0x64>
	if(LocalBuf != NULL) {
  10e79c:	e0947003 	adds	r7, r4, r3
  10e7a0:	0a000009 	beq	10e7cc <write+0x64>
	    if (*LocalBuf == '\n') {
  10e7a4:	e7d40003 	ldrb	r0, [r4, r3]
  10e7a8:	e350000a 	cmp	r0, #10
  10e7ac:	1afffff3 	bne	10e780 <write+0x18>
	      outbyte ('\r');
  10e7b0:	e3a0000d 	mov	r0, #13
  10e7b4:	eb00000d 	bl	10e7f0 <outbyte>
  10e7b8:	e5d70000 	ldrb	r0, [r7]
	    outbyte (*LocalBuf);
  10e7bc:	eb00000b 	bl	10e7f0 <outbyte>
  for (i = 0; i < nbytes; i++) {
  10e7c0:	e1560005 	cmp	r6, r5
  10e7c4:	e1a03005 	mov	r3, r5
  10e7c8:	cafffff0 	bgt	10e790 <write+0x28>
  (void)fd;
  (void)buf;
  (void)nbytes;
  return 0;
#endif
}
  10e7cc:	e1a00006 	mov	r0, r6
  10e7d0:	e8bd81f0 	pop	{r4, r5, r6, r7, r8, pc}

0010e7d4 <_write>:
  10e7d4:	eaffffe3 	b	10e768 <write>

0010e7d8 <__errno>:
#endif

__attribute__((weak)) sint32 *
__errno (void)
{
  return &_REENT->_errno;
  10e7d8:	e30f3740 	movw	r3, #63296	; 0xf740
  10e7dc:	e3403010 	movt	r3, #16
}
  10e7e0:	e5930000 	ldr	r0, [r3]
  10e7e4:	e12fff1e 	bx	lr

0010e7e8 <inbyte>:
#ifdef __cplusplus
}
#endif 

char inbyte(void) {
	 return XUartPs_RecvByte(STDIN_BASEADDRESS);
  10e7e8:	e3a0020e 	mov	r0, #-536870912	; 0xe0000000
  10e7ec:	ea000008 	b	10e814 <XUartPs_RecvByte>

0010e7f0 <outbyte>:
#ifdef __cplusplus
}
#endif 

void outbyte(char c) {
	 XUartPs_SendByte(STDOUT_BASEADDRESS, c);
  10e7f0:	e1a01000 	mov	r1, r0
  10e7f4:	e3a0020e 	mov	r0, #-536870912	; 0xe0000000
  10e7f8:	eaffffff 	b	10e7fc <XUartPs_SendByte>

0010e7fc <XUartPs_SendByte>:
*
* @note		None.
*
*****************************************************************************/
void XUartPs_SendByte(u32 BaseAddress, u8 Data)
{
  10e7fc:	e280202c 	add	r2, r0, #44	; 0x2c
* @return	The 32 bit Value read from the specified input address.
*
******************************************************************************/
static INLINE u32 Xil_In32(UINTPTR Addr)
{
	return *(volatile u32 *) Addr;
  10e800:	e5923000 	ldr	r3, [r2]
	/* Wait until there is space in TX FIFO */
	while (XUartPs_IsTransmitFull(BaseAddress)) {
  10e804:	e3130010 	tst	r3, #16
  10e808:	1afffffc 	bne	10e800 <XUartPs_SendByte+0x4>
******************************************************************************/
static INLINE void Xil_Out32(UINTPTR Addr, u32 Value)
{
#ifndef ENABLE_SAFETY
	volatile u32 *LocalAddr = (volatile u32 *)Addr;
	*LocalAddr = Value;
  10e80c:	e5801030 	str	r1, [r0, #48]	; 0x30
		;
	}

	/* Write the byte into the TX FIFO */
	XUartPs_WriteReg(BaseAddress, XUARTPS_FIFO_OFFSET, (u32)Data);
}
  10e810:	e12fff1e 	bx	lr

0010e814 <XUartPs_RecvByte>:
*
* @note		None.
*
*****************************************************************************/
u8 XUartPs_RecvByte(u32 BaseAddress)
{
  10e814:	e280202c 	add	r2, r0, #44	; 0x2c
	return *(volatile u32 *) Addr;
  10e818:	e5923000 	ldr	r3, [r2]
	u32 RecievedByte;
	/* Wait until there is data */
	while (!XUartPs_IsReceiveData(BaseAddress)) {
  10e81c:	e3130002 	tst	r3, #2
  10e820:	1afffffc 	bne	10e818 <XUartPs_RecvByte+0x4>
  10e824:	e5900030 	ldr	r0, [r0, #48]	; 0x30
		;
	}
	RecievedByte = XUartPs_ReadReg(BaseAddress, XUARTPS_FIFO_OFFSET);
	/* Return the byte received */
	return (u8)RecievedByte;
}
  10e828:	e6ef0070 	uxtb	r0, r0
  10e82c:	e12fff1e 	bx	lr

0010e830 <XUartPs_ResetHw>:
*
* @note		None.
*
*****************************************************************************/
void XUartPs_ResetHw(u32 BaseAddress)
{
  10e830:	e92d4010 	push	{r4, lr}
	*LocalAddr = Value;
  10e834:	e3031fff 	movw	r1, #16383	; 0x3fff
  10e838:	e3a0e028 	mov	lr, #40	; 0x28
  10e83c:	e3a0c003 	mov	ip, #3
  10e840:	e3a03000 	mov	r3, #0
  10e844:	e3a02020 	mov	r2, #32
  10e848:	e580100c 	str	r1, [r0, #12]
  10e84c:	e300428b 	movw	r4, #651	; 0x28b
  10e850:	e580e000 	str	lr, [r0]
  10e854:	e3a0e00f 	mov	lr, #15
  10e858:	e580c000 	str	ip, [r0]
  10e85c:	e3a0cf4a 	mov	ip, #296	; 0x128
  10e860:	e5801014 	str	r1, [r0, #20]
  10e864:	e5803004 	str	r3, [r0, #4]
  10e868:	e5802020 	str	r2, [r0, #32]
  10e86c:	e5802044 	str	r2, [r0, #68]	; 0x44
  10e870:	e580301c 	str	r3, [r0, #28]
  10e874:	e5804018 	str	r4, [r0, #24]
  10e878:	e580e034 	str	lr, [r0, #52]	; 0x34
  10e87c:	e580c000 	str	ip, [r0]
	 */
	XUartPs_WriteReg(BaseAddress, XUARTPS_CR_OFFSET,
				((u32)XUARTPS_CR_RX_DIS | (u32)XUARTPS_CR_TX_DIS |
						(u32)XUARTPS_CR_STOPBRK));

}
  10e880:	e8bd8010 	pop	{r4, pc}

0010e884 <__udivsi3>:
  10e884:	e2512001 	subs	r2, r1, #1
  10e888:	012fff1e 	bxeq	lr
  10e88c:	3a000074 	bcc	10ea64 <__udivsi3+0x1e0>
  10e890:	e1500001 	cmp	r0, r1
  10e894:	9a00006b 	bls	10ea48 <__udivsi3+0x1c4>
  10e898:	e1110002 	tst	r1, r2
  10e89c:	0a00006c 	beq	10ea54 <__udivsi3+0x1d0>
  10e8a0:	e16f3f10 	clz	r3, r0
  10e8a4:	e16f2f11 	clz	r2, r1
  10e8a8:	e0423003 	sub	r3, r2, r3
  10e8ac:	e273301f 	rsbs	r3, r3, #31
  10e8b0:	10833083 	addne	r3, r3, r3, lsl #1
  10e8b4:	e3a02000 	mov	r2, #0
  10e8b8:	108ff103 	addne	pc, pc, r3, lsl #2
  10e8bc:	e320f000 	nop	{0}
  10e8c0:	e1500f81 	cmp	r0, r1, lsl #31
  10e8c4:	e0a22002 	adc	r2, r2, r2
  10e8c8:	20400f81 	subcs	r0, r0, r1, lsl #31
  10e8cc:	e1500f01 	cmp	r0, r1, lsl #30
  10e8d0:	e0a22002 	adc	r2, r2, r2
  10e8d4:	20400f01 	subcs	r0, r0, r1, lsl #30
  10e8d8:	e1500e81 	cmp	r0, r1, lsl #29
  10e8dc:	e0a22002 	adc	r2, r2, r2
  10e8e0:	20400e81 	subcs	r0, r0, r1, lsl #29
  10e8e4:	e1500e01 	cmp	r0, r1, lsl #28
  10e8e8:	e0a22002 	adc	r2, r2, r2
  10e8ec:	20400e01 	subcs	r0, r0, r1, lsl #28
  10e8f0:	e1500d81 	cmp	r0, r1, lsl #27
  10e8f4:	e0a22002 	adc	r2, r2, r2
  10e8f8:	20400d81 	subcs	r0, r0, r1, lsl #27
  10e8fc:	e1500d01 	cmp	r0, r1, lsl #26
  10e900:	e0a22002 	adc	r2, r2, r2
  10e904:	20400d01 	subcs	r0, r0, r1, lsl #26
  10e908:	e1500c81 	cmp	r0, r1, lsl #25
  10e90c:	e0a22002 	adc	r2, r2, r2
  10e910:	20400c81 	subcs	r0, r0, r1, lsl #25
  10e914:	e1500c01 	cmp	r0, r1, lsl #24
  10e918:	e0a22002 	adc	r2, r2, r2
  10e91c:	20400c01 	subcs	r0, r0, r1, lsl #24
  10e920:	e1500b81 	cmp	r0, r1, lsl #23
  10e924:	e0a22002 	adc	r2, r2, r2
  10e928:	20400b81 	subcs	r0, r0, r1, lsl #23
  10e92c:	e1500b01 	cmp	r0, r1, lsl #22
  10e930:	e0a22002 	adc	r2, r2, r2
  10e934:	20400b01 	subcs	r0, r0, r1, lsl #22
  10e938:	e1500a81 	cmp	r0, r1, lsl #21
  10e93c:	e0a22002 	adc	r2, r2, r2
  10e940:	20400a81 	subcs	r0, r0, r1, lsl #21
  10e944:	e1500a01 	cmp	r0, r1, lsl #20
  10e948:	e0a22002 	adc	r2, r2, r2
  10e94c:	20400a01 	subcs	r0, r0, r1, lsl #20
  10e950:	e1500981 	cmp	r0, r1, lsl #19
  10e954:	e0a22002 	adc	r2, r2, r2
  10e958:	20400981 	subcs	r0, r0, r1, lsl #19
  10e95c:	e1500901 	cmp	r0, r1, lsl #18
  10e960:	e0a22002 	adc	r2, r2, r2
  10e964:	20400901 	subcs	r0, r0, r1, lsl #18
  10e968:	e1500881 	cmp	r0, r1, lsl #17
  10e96c:	e0a22002 	adc	r2, r2, r2
  10e970:	20400881 	subcs	r0, r0, r1, lsl #17
  10e974:	e1500801 	cmp	r0, r1, lsl #16
  10e978:	e0a22002 	adc	r2, r2, r2
  10e97c:	20400801 	subcs	r0, r0, r1, lsl #16
  10e980:	e1500781 	cmp	r0, r1, lsl #15
  10e984:	e0a22002 	adc	r2, r2, r2
  10e988:	20400781 	subcs	r0, r0, r1, lsl #15
  10e98c:	e1500701 	cmp	r0, r1, lsl #14
  10e990:	e0a22002 	adc	r2, r2, r2
  10e994:	20400701 	subcs	r0, r0, r1, lsl #14
  10e998:	e1500681 	cmp	r0, r1, lsl #13
  10e99c:	e0a22002 	adc	r2, r2, r2
  10e9a0:	20400681 	subcs	r0, r0, r1, lsl #13
  10e9a4:	e1500601 	cmp	r0, r1, lsl #12
  10e9a8:	e0a22002 	adc	r2, r2, r2
  10e9ac:	20400601 	subcs	r0, r0, r1, lsl #12
  10e9b0:	e1500581 	cmp	r0, r1, lsl #11
  10e9b4:	e0a22002 	adc	r2, r2, r2
  10e9b8:	20400581 	subcs	r0, r0, r1, lsl #11
  10e9bc:	e1500501 	cmp	r0, r1, lsl #10
  10e9c0:	e0a22002 	adc	r2, r2, r2
  10e9c4:	20400501 	subcs	r0, r0, r1, lsl #10
  10e9c8:	e1500481 	cmp	r0, r1, lsl #9
  10e9cc:	e0a22002 	adc	r2, r2, r2
  10e9d0:	20400481 	subcs	r0, r0, r1, lsl #9
  10e9d4:	e1500401 	cmp	r0, r1, lsl #8
  10e9d8:	e0a22002 	adc	r2, r2, r2
  10e9dc:	20400401 	subcs	r0, r0, r1, lsl #8
  10e9e0:	e1500381 	cmp	r0, r1, lsl #7
  10e9e4:	e0a22002 	adc	r2, r2, r2
  10e9e8:	20400381 	subcs	r0, r0, r1, lsl #7
  10e9ec:	e1500301 	cmp	r0, r1, lsl #6
  10e9f0:	e0a22002 	adc	r2, r2, r2
  10e9f4:	20400301 	subcs	r0, r0, r1, lsl #6
  10e9f8:	e1500281 	cmp	r0, r1, lsl #5
  10e9fc:	e0a22002 	adc	r2, r2, r2
  10ea00:	20400281 	subcs	r0, r0, r1, lsl #5
  10ea04:	e1500201 	cmp	r0, r1, lsl #4
  10ea08:	e0a22002 	adc	r2, r2, r2
  10ea0c:	20400201 	subcs	r0, r0, r1, lsl #4
  10ea10:	e1500181 	cmp	r0, r1, lsl #3
  10ea14:	e0a22002 	adc	r2, r2, r2
  10ea18:	20400181 	subcs	r0, r0, r1, lsl #3
  10ea1c:	e1500101 	cmp	r0, r1, lsl #2
  10ea20:	e0a22002 	adc	r2, r2, r2
  10ea24:	20400101 	subcs	r0, r0, r1, lsl #2
  10ea28:	e1500081 	cmp	r0, r1, lsl #1
  10ea2c:	e0a22002 	adc	r2, r2, r2
  10ea30:	20400081 	subcs	r0, r0, r1, lsl #1
  10ea34:	e1500001 	cmp	r0, r1
  10ea38:	e0a22002 	adc	r2, r2, r2
  10ea3c:	20400001 	subcs	r0, r0, r1
  10ea40:	e1a00002 	mov	r0, r2
  10ea44:	e12fff1e 	bx	lr
  10ea48:	03a00001 	moveq	r0, #1
  10ea4c:	13a00000 	movne	r0, #0
  10ea50:	e12fff1e 	bx	lr
  10ea54:	e16f2f11 	clz	r2, r1
  10ea58:	e262201f 	rsb	r2, r2, #31
  10ea5c:	e1a00230 	lsr	r0, r0, r2
  10ea60:	e12fff1e 	bx	lr
  10ea64:	e3500000 	cmp	r0, #0
  10ea68:	13e00000 	mvnne	r0, #0
  10ea6c:	ea000097 	b	10ecd0 <__aeabi_idiv0>

0010ea70 <__aeabi_uidivmod>:
  10ea70:	e3510000 	cmp	r1, #0
  10ea74:	0afffffa 	beq	10ea64 <__udivsi3+0x1e0>
  10ea78:	e92d4003 	push	{r0, r1, lr}
  10ea7c:	ebffff80 	bl	10e884 <__udivsi3>
  10ea80:	e8bd4006 	pop	{r1, r2, lr}
  10ea84:	e0030092 	mul	r3, r2, r0
  10ea88:	e0411003 	sub	r1, r1, r3
  10ea8c:	e12fff1e 	bx	lr

0010ea90 <__divsi3>:
  10ea90:	e3510000 	cmp	r1, #0
  10ea94:	0a000081 	beq	10eca0 <.divsi3_skip_div0_test+0x208>

0010ea98 <.divsi3_skip_div0_test>:
  10ea98:	e020c001 	eor	ip, r0, r1
  10ea9c:	42611000 	rsbmi	r1, r1, #0
  10eaa0:	e2512001 	subs	r2, r1, #1
  10eaa4:	0a000070 	beq	10ec6c <.divsi3_skip_div0_test+0x1d4>
  10eaa8:	e1b03000 	movs	r3, r0
  10eaac:	42603000 	rsbmi	r3, r0, #0
  10eab0:	e1530001 	cmp	r3, r1
  10eab4:	9a00006f 	bls	10ec78 <.divsi3_skip_div0_test+0x1e0>
  10eab8:	e1110002 	tst	r1, r2
  10eabc:	0a000071 	beq	10ec88 <.divsi3_skip_div0_test+0x1f0>
  10eac0:	e16f2f13 	clz	r2, r3
  10eac4:	e16f0f11 	clz	r0, r1
  10eac8:	e0402002 	sub	r2, r0, r2
  10eacc:	e272201f 	rsbs	r2, r2, #31
  10ead0:	10822082 	addne	r2, r2, r2, lsl #1
  10ead4:	e3a00000 	mov	r0, #0
  10ead8:	108ff102 	addne	pc, pc, r2, lsl #2
  10eadc:	e320f000 	nop	{0}
  10eae0:	e1530f81 	cmp	r3, r1, lsl #31
  10eae4:	e0a00000 	adc	r0, r0, r0
  10eae8:	20433f81 	subcs	r3, r3, r1, lsl #31
  10eaec:	e1530f01 	cmp	r3, r1, lsl #30
  10eaf0:	e0a00000 	adc	r0, r0, r0
  10eaf4:	20433f01 	subcs	r3, r3, r1, lsl #30
  10eaf8:	e1530e81 	cmp	r3, r1, lsl #29
  10eafc:	e0a00000 	adc	r0, r0, r0
  10eb00:	20433e81 	subcs	r3, r3, r1, lsl #29
  10eb04:	e1530e01 	cmp	r3, r1, lsl #28
  10eb08:	e0a00000 	adc	r0, r0, r0
  10eb0c:	20433e01 	subcs	r3, r3, r1, lsl #28
  10eb10:	e1530d81 	cmp	r3, r1, lsl #27
  10eb14:	e0a00000 	adc	r0, r0, r0
  10eb18:	20433d81 	subcs	r3, r3, r1, lsl #27
  10eb1c:	e1530d01 	cmp	r3, r1, lsl #26
  10eb20:	e0a00000 	adc	r0, r0, r0
  10eb24:	20433d01 	subcs	r3, r3, r1, lsl #26
  10eb28:	e1530c81 	cmp	r3, r1, lsl #25
  10eb2c:	e0a00000 	adc	r0, r0, r0
  10eb30:	20433c81 	subcs	r3, r3, r1, lsl #25
  10eb34:	e1530c01 	cmp	r3, r1, lsl #24
  10eb38:	e0a00000 	adc	r0, r0, r0
  10eb3c:	20433c01 	subcs	r3, r3, r1, lsl #24
  10eb40:	e1530b81 	cmp	r3, r1, lsl #23
  10eb44:	e0a00000 	adc	r0, r0, r0
  10eb48:	20433b81 	subcs	r3, r3, r1, lsl #23
  10eb4c:	e1530b01 	cmp	r3, r1, lsl #22
  10eb50:	e0a00000 	adc	r0, r0, r0
  10eb54:	20433b01 	subcs	r3, r3, r1, lsl #22
  10eb58:	e1530a81 	cmp	r3, r1, lsl #21
  10eb5c:	e0a00000 	adc	r0, r0, r0
  10eb60:	20433a81 	subcs	r3, r3, r1, lsl #21
  10eb64:	e1530a01 	cmp	r3, r1, lsl #20
  10eb68:	e0a00000 	adc	r0, r0, r0
  10eb6c:	20433a01 	subcs	r3, r3, r1, lsl #20
  10eb70:	e1530981 	cmp	r3, r1, lsl #19
  10eb74:	e0a00000 	adc	r0, r0, r0
  10eb78:	20433981 	subcs	r3, r3, r1, lsl #19
  10eb7c:	e1530901 	cmp	r3, r1, lsl #18
  10eb80:	e0a00000 	adc	r0, r0, r0
  10eb84:	20433901 	subcs	r3, r3, r1, lsl #18
  10eb88:	e1530881 	cmp	r3, r1, lsl #17
  10eb8c:	e0a00000 	adc	r0, r0, r0
  10eb90:	20433881 	subcs	r3, r3, r1, lsl #17
  10eb94:	e1530801 	cmp	r3, r1, lsl #16
  10eb98:	e0a00000 	adc	r0, r0, r0
  10eb9c:	20433801 	subcs	r3, r3, r1, lsl #16
  10eba0:	e1530781 	cmp	r3, r1, lsl #15
  10eba4:	e0a00000 	adc	r0, r0, r0
  10eba8:	20433781 	subcs	r3, r3, r1, lsl #15
  10ebac:	e1530701 	cmp	r3, r1, lsl #14
  10ebb0:	e0a00000 	adc	r0, r0, r0
  10ebb4:	20433701 	subcs	r3, r3, r1, lsl #14
  10ebb8:	e1530681 	cmp	r3, r1, lsl #13
  10ebbc:	e0a00000 	adc	r0, r0, r0
  10ebc0:	20433681 	subcs	r3, r3, r1, lsl #13
  10ebc4:	e1530601 	cmp	r3, r1, lsl #12
  10ebc8:	e0a00000 	adc	r0, r0, r0
  10ebcc:	20433601 	subcs	r3, r3, r1, lsl #12
  10ebd0:	e1530581 	cmp	r3, r1, lsl #11
  10ebd4:	e0a00000 	adc	r0, r0, r0
  10ebd8:	20433581 	subcs	r3, r3, r1, lsl #11
  10ebdc:	e1530501 	cmp	r3, r1, lsl #10
  10ebe0:	e0a00000 	adc	r0, r0, r0
  10ebe4:	20433501 	subcs	r3, r3, r1, lsl #10
  10ebe8:	e1530481 	cmp	r3, r1, lsl #9
  10ebec:	e0a00000 	adc	r0, r0, r0
  10ebf0:	20433481 	subcs	r3, r3, r1, lsl #9
  10ebf4:	e1530401 	cmp	r3, r1, lsl #8
  10ebf8:	e0a00000 	adc	r0, r0, r0
  10ebfc:	20433401 	subcs	r3, r3, r1, lsl #8
  10ec00:	e1530381 	cmp	r3, r1, lsl #7
  10ec04:	e0a00000 	adc	r0, r0, r0
  10ec08:	20433381 	subcs	r3, r3, r1, lsl #7
  10ec0c:	e1530301 	cmp	r3, r1, lsl #6
  10ec10:	e0a00000 	adc	r0, r0, r0
  10ec14:	20433301 	subcs	r3, r3, r1, lsl #6
  10ec18:	e1530281 	cmp	r3, r1, lsl #5
  10ec1c:	e0a00000 	adc	r0, r0, r0
  10ec20:	20433281 	subcs	r3, r3, r1, lsl #5
  10ec24:	e1530201 	cmp	r3, r1, lsl #4
  10ec28:	e0a00000 	adc	r0, r0, r0
  10ec2c:	20433201 	subcs	r3, r3, r1, lsl #4
  10ec30:	e1530181 	cmp	r3, r1, lsl #3
  10ec34:	e0a00000 	adc	r0, r0, r0
  10ec38:	20433181 	subcs	r3, r3, r1, lsl #3
  10ec3c:	e1530101 	cmp	r3, r1, lsl #2
  10ec40:	e0a00000 	adc	r0, r0, r0
  10ec44:	20433101 	subcs	r3, r3, r1, lsl #2
  10ec48:	e1530081 	cmp	r3, r1, lsl #1
  10ec4c:	e0a00000 	adc	r0, r0, r0
  10ec50:	20433081 	subcs	r3, r3, r1, lsl #1
  10ec54:	e1530001 	cmp	r3, r1
  10ec58:	e0a00000 	adc	r0, r0, r0
  10ec5c:	20433001 	subcs	r3, r3, r1
  10ec60:	e35c0000 	cmp	ip, #0
  10ec64:	42600000 	rsbmi	r0, r0, #0
  10ec68:	e12fff1e 	bx	lr
  10ec6c:	e13c0000 	teq	ip, r0
  10ec70:	42600000 	rsbmi	r0, r0, #0
  10ec74:	e12fff1e 	bx	lr
  10ec78:	33a00000 	movcc	r0, #0
  10ec7c:	01a00fcc 	asreq	r0, ip, #31
  10ec80:	03800001 	orreq	r0, r0, #1
  10ec84:	e12fff1e 	bx	lr
  10ec88:	e16f2f11 	clz	r2, r1
  10ec8c:	e262201f 	rsb	r2, r2, #31
  10ec90:	e35c0000 	cmp	ip, #0
  10ec94:	e1a00233 	lsr	r0, r3, r2
  10ec98:	42600000 	rsbmi	r0, r0, #0
  10ec9c:	e12fff1e 	bx	lr
  10eca0:	e3500000 	cmp	r0, #0
  10eca4:	c3e00102 	mvngt	r0, #-2147483648	; 0x80000000
  10eca8:	b3a00102 	movlt	r0, #-2147483648	; 0x80000000
  10ecac:	ea000007 	b	10ecd0 <__aeabi_idiv0>

0010ecb0 <__aeabi_idivmod>:
  10ecb0:	e3510000 	cmp	r1, #0
  10ecb4:	0afffff9 	beq	10eca0 <.divsi3_skip_div0_test+0x208>
  10ecb8:	e92d4003 	push	{r0, r1, lr}
  10ecbc:	ebffff75 	bl	10ea98 <.divsi3_skip_div0_test>
  10ecc0:	e8bd4006 	pop	{r1, r2, lr}
  10ecc4:	e0030092 	mul	r3, r2, r0
  10ecc8:	e0411003 	sub	r1, r1, r3
  10eccc:	e12fff1e 	bx	lr

0010ecd0 <__aeabi_idiv0>:
  10ecd0:	e12fff1e 	bx	lr

0010ecd4 <__aeabi_uldivmod>:
  10ecd4:	e3530000 	cmp	r3, #0
  10ecd8:	03520000 	cmpeq	r2, #0
  10ecdc:	1a000004 	bne	10ecf4 <__aeabi_uldivmod+0x20>
  10ece0:	e3510000 	cmp	r1, #0
  10ece4:	03500000 	cmpeq	r0, #0
  10ece8:	13e01000 	mvnne	r1, #0
  10ecec:	13e00000 	mvnne	r0, #0
  10ecf0:	eafffff6 	b	10ecd0 <__aeabi_idiv0>
  10ecf4:	e24dd008 	sub	sp, sp, #8
  10ecf8:	e92d6000 	push	{sp, lr}
  10ecfc:	eb000003 	bl	10ed10 <__udivmoddi4>
  10ed00:	e59de004 	ldr	lr, [sp, #4]
  10ed04:	e28dd008 	add	sp, sp, #8
  10ed08:	e8bd000c 	pop	{r2, r3}
  10ed0c:	e12fff1e 	bx	lr

0010ed10 <__udivmoddi4>:
  10ed10:	e1510003 	cmp	r1, r3
  10ed14:	01500002 	cmpeq	r0, r2
  10ed18:	e92d47f0 	push	{r4, r5, r6, r7, r8, r9, sl, lr}
  10ed1c:	e1a04000 	mov	r4, r0
  10ed20:	33a00000 	movcc	r0, #0
  10ed24:	e1a05001 	mov	r5, r1
  10ed28:	e59de020 	ldr	lr, [sp, #32]
  10ed2c:	31a01000 	movcc	r1, r0
  10ed30:	3a00003c 	bcc	10ee28 <__udivmoddi4+0x118>
  10ed34:	e3530000 	cmp	r3, #0
  10ed38:	016fcf12 	clzeq	ip, r2
  10ed3c:	116fcf13 	clzne	ip, r3
  10ed40:	028cc020 	addeq	ip, ip, #32
  10ed44:	e3550000 	cmp	r5, #0
  10ed48:	016f0f14 	clzeq	r0, r4
  10ed4c:	116f0f15 	clzne	r0, r5
  10ed50:	02800020 	addeq	r0, r0, #32
  10ed54:	e04cc000 	sub	ip, ip, r0
  10ed58:	e24c8020 	sub	r8, ip, #32
  10ed5c:	e1a07c13 	lsl	r7, r3, ip
  10ed60:	e1877812 	orr	r7, r7, r2, lsl r8
  10ed64:	e26c9020 	rsb	r9, ip, #32
  10ed68:	e1877932 	orr	r7, r7, r2, lsr r9
  10ed6c:	e1a06c12 	lsl	r6, r2, ip
  10ed70:	e1550007 	cmp	r5, r7
  10ed74:	01540006 	cmpeq	r4, r6
  10ed78:	33a00000 	movcc	r0, #0
  10ed7c:	31a01000 	movcc	r1, r0
  10ed80:	3a000005 	bcc	10ed9c <__udivmoddi4+0x8c>
  10ed84:	e3a00001 	mov	r0, #1
  10ed88:	e0544006 	subs	r4, r4, r6
  10ed8c:	e1a01810 	lsl	r1, r0, r8
  10ed90:	e0c55007 	sbc	r5, r5, r7
  10ed94:	e1811930 	orr	r1, r1, r0, lsr r9
  10ed98:	e1a00c10 	lsl	r0, r0, ip
  10ed9c:	e35c0000 	cmp	ip, #0
  10eda0:	0a000020 	beq	10ee28 <__udivmoddi4+0x118>
  10eda4:	e1b070a7 	lsrs	r7, r7, #1
  10eda8:	e1a06066 	rrx	r6, r6
  10edac:	e1a0200c 	mov	r2, ip
  10edb0:	ea000007 	b	10edd4 <__udivmoddi4+0xc4>
  10edb4:	e0543006 	subs	r3, r4, r6
  10edb8:	e0c5a007 	sbc	sl, r5, r7
  10edbc:	e0933003 	adds	r3, r3, r3
  10edc0:	e0aaa00a 	adc	sl, sl, sl
  10edc4:	e2934001 	adds	r4, r3, #1
  10edc8:	e2aa5000 	adc	r5, sl, #0
  10edcc:	e2522001 	subs	r2, r2, #1
  10edd0:	0a000006 	beq	10edf0 <__udivmoddi4+0xe0>
  10edd4:	e1550007 	cmp	r5, r7
  10edd8:	01540006 	cmpeq	r4, r6
  10eddc:	2afffff4 	bcs	10edb4 <__udivmoddi4+0xa4>
  10ede0:	e0944004 	adds	r4, r4, r4
  10ede4:	e0a55005 	adc	r5, r5, r5
  10ede8:	e2522001 	subs	r2, r2, #1
  10edec:	1afffff8 	bne	10edd4 <__udivmoddi4+0xc4>
  10edf0:	e1a03c34 	lsr	r3, r4, ip
  10edf4:	e1a02c35 	lsr	r2, r5, ip
  10edf8:	e1833915 	orr	r3, r3, r5, lsl r9
  10edfc:	e0900004 	adds	r0, r0, r4
  10ee00:	e1833835 	orr	r3, r3, r5, lsr r8
  10ee04:	e0a11005 	adc	r1, r1, r5
  10ee08:	e1a05002 	mov	r5, r2
  10ee0c:	e1a04003 	mov	r4, r3
  10ee10:	e1a03c12 	lsl	r3, r2, ip
  10ee14:	e1833814 	orr	r3, r3, r4, lsl r8
  10ee18:	e1a0cc14 	lsl	ip, r4, ip
  10ee1c:	e050000c 	subs	r0, r0, ip
  10ee20:	e1833934 	orr	r3, r3, r4, lsr r9
  10ee24:	e0c11003 	sbc	r1, r1, r3
  10ee28:	e35e0000 	cmp	lr, #0
  10ee2c:	11ce40f0 	strdne	r4, [lr]
  10ee30:	e8bd87f0 	pop	{r4, r5, r6, r7, r8, r9, sl, pc}

0010ee34 <main>:
{
  10ee34:	e92d4ff0 	push	{r4, r5, r6, r7, r8, r9, sl, fp, lr}
  10ee38:	e24dd01c 	sub	sp, sp, #28
	printf("Hello world\n");
  10ee3c:	e59f036c 	ldr	r0, [pc, #876]	; 10f1b0 <main+0x37c>
  10ee40:	ebffcfa8 	bl	102ce8 <puts>
  10ee44:	e59f4368 	ldr	r4, [pc, #872]	; 10f1b4 <main+0x380>
	stream_inst stream(0, 0);
  10ee48:	e3a02000 	mov	r2, #0
  10ee4c:	e1a01002 	mov	r1, r2
  10ee50:	e28d0010 	add	r0, sp, #16
  10ee54:	ebffc614 	bl	1006ac <stream_inst::stream_inst(int, unsigned int)>
	stream.ap_start();
  10ee58:	e28d0010 	add	r0, sp, #16
  10ee5c:	ebffc614 	bl	1006b4 <stream_inst::ap_start()>
	for(i=0; i<3192; i++)
  10ee60:	e3a03000 	mov	r3, #0
  10ee64:	e58d3000 	str	r3, [sp]
	  printf("frame = %d\n", i);
  10ee68:	e59d1000 	ldr	r1, [sp]
  10ee6c:	e59f0344 	ldr	r0, [pc, #836]	; 10f1b8 <main+0x384>
  10ee70:	ebffcf17 	bl	102ad4 <printf>
	  input_lo = stream.stream1_read();
  10ee74:	e28d0010 	add	r0, sp, #16
  10ee78:	ebffc692 	bl	1008c8 <stream_inst::stream1_read()>
  10ee7c:	e1a05000 	mov	r5, r0
	  input_mi = stream.stream1_read();
  10ee80:	e28d0010 	add	r0, sp, #16
  10ee84:	ebffc68f 	bl	1008c8 <stream_inst::stream1_read()>
  10ee88:	e1a06000 	mov	r6, r0
	  input_hi = stream.stream1_read();
  10ee8c:	e28d0010 	add	r0, sp, #16
  10ee90:	ebffc68c 	bl	1008c8 <stream_inst::stream1_read()>
	  triangle_2d_y0 = (unsigned char)((input_lo >> 8 ) & 0xff);
  10ee94:	e1a03425 	lsr	r3, r5, #8
	  triangle_2d_x2 = (unsigned char)((input_mi >> 16) & 0xff);
  10ee98:	e1a01826 	lsr	r1, r6, #16
	  cw = (triangle_2d_x2 - triangle_2d_x0) * (triangle_2d_y1 - triangle_2d_y0)
  10ee9c:	e6efc075 	uxtb	ip, r5
  10eea0:	e6efe076 	uxtb	lr, r6
	  triangle_2d_y0 = (unsigned char)((input_lo >> 8 ) & 0xff);
  10eea4:	e58d3004 	str	r3, [sp, #4]
	  triangle_2d_x1 = (unsigned char)((input_lo >> 24) & 0xff);
  10eea8:	e1a03c25 	lsr	r3, r5, #24
	  cw = (triangle_2d_x2 - triangle_2d_x0) * (triangle_2d_y1 - triangle_2d_y0)
  10eeac:	e5dd2004 	ldrb	r2, [sp, #4]
	  triangle_2d_y2 = (unsigned char)((input_mi >> 24) & 0xff);
  10eeb0:	e1a0bc26 	lsr	fp, r6, #24
	  triangle_2d_x1 = (unsigned char)((input_lo >> 24) & 0xff);
  10eeb4:	e58d300c 	str	r3, [sp, #12]
	  cw = (triangle_2d_x2 - triangle_2d_x0) * (triangle_2d_y1 - triangle_2d_y0)
  10eeb8:	e6ef3071 	uxtb	r3, r1
  10eebc:	e1a01401 	lsl	r1, r1, #8
	       - (triangle_2d_y2 - triangle_2d_y0) * (triangle_2d_x1 - triangle_2d_x0);
  10eec0:	e1a08c25 	lsr	r8, r5, #24
	  triangle_2d_z = triangle_2d_z0 / 3 + triangle_2d_z1 / 3 + triangle_2d_z2 / 3;
  10eec4:	e6ef0070 	uxtb	r0, r0
  10eec8:	e6ff1071 	uxth	r1, r1
	  cw = (triangle_2d_x2 - triangle_2d_x0) * (triangle_2d_y1 - triangle_2d_y0)
  10eecc:	e04ea002 	sub	sl, lr, r2
  10eed0:	e043700c 	sub	r7, r3, ip
  10eed4:	e007079a 	mul	r7, sl, r7
  10eed8:	e58d1008 	str	r1, [sp, #8]
	  triangle_2d_z = triangle_2d_z0 / 3 + triangle_2d_z1 / 3 + triangle_2d_z2 / 3;
  10eedc:	e59f12d8 	ldr	r1, [pc, #728]	; 10f1bc <main+0x388>
	       - (triangle_2d_y2 - triangle_2d_y0) * (triangle_2d_x1 - triangle_2d_x0);
  10eee0:	e048800c 	sub	r8, r8, ip
  10eee4:	e04ba002 	sub	sl, fp, r2
	  triangle_2d_z = triangle_2d_z0 / 3 + triangle_2d_z1 / 3 + triangle_2d_z2 / 3;
  10eee8:	e7e76456 	ubfx	r6, r6, #8, #8
	  cw = (triangle_2d_x2 - triangle_2d_x0) * (triangle_2d_y1 - triangle_2d_y0)
  10eeec:	e06a7a98 	mls	sl, r8, sl, r7
	  triangle_2d_z = triangle_2d_z0 / 3 + triangle_2d_z1 / 3 + triangle_2d_z2 / 3;
  10eef0:	e0876196 	umull	r6, r7, r6, r1
  10eef4:	e7e78855 	ubfx	r8, r5, #16, #8
	  if(cw == 0 ){
  10eef8:	e35a0000 	cmp	sl, #0
	  triangle_2d_z = triangle_2d_z0 / 3 + triangle_2d_z1 / 3 + triangle_2d_z2 / 3;
  10eefc:	e0898198 	umull	r8, r9, r8, r1
  10ef00:	e1a060a7 	lsr	r6, r7, #1
  10ef04:	e0810190 	umull	r0, r1, r0, r1
  10ef08:	e1a0080b 	lsl	r0, fp, #16
  10ef0c:	e08660a9 	add	r6, r6, r9, lsr #1
  10ef10:	e1a07009 	mov	r7, r9
  10ef14:	e08660a1 	add	r6, r6, r1, lsr #1
  10ef18:	e1a06c06 	lsl	r6, r6, #24
	  if(cw == 0 ){
  10ef1c:	1a00004e 	bne	10f05c <main+0x228>
	    tmp = tmp + (((unsigned int)triangle_2d_x0) << 8);
  10ef20:	e1a01405 	lsl	r1, r5, #8
	    tmp = tmp + (((unsigned int)triangle_2d_y0) << 16);
  10ef24:	e59d3004 	ldr	r3, [sp, #4]
	    tmp = tmp + (((unsigned int)max_min[1]) << 24);
  10ef28:	e5d48005 	ldrb	r8, [r4, #5]
	    tmp = tmp + (((unsigned int)triangle_2d_x1) << 24);
  10ef2c:	e20554ff 	and	r5, r5, #-16777216	; 0xff000000
	    tmp = tmp + (((unsigned int)triangle_2d_x0) << 8);
  10ef30:	e6ff1071 	uxth	r1, r1
	    tmp = tmp + (((unsigned int)max_min[0]) << 16);
  10ef34:	e5d42004 	ldrb	r2, [r4, #4]
	    tmp = tmp + (((unsigned int)triangle_2d_x1) << 24);
  10ef38:	e2855001 	add	r5, r5, #1
	    tmp = tmp + (((unsigned int)max_min[4]) << 16);
  10ef3c:	e5d47008 	ldrb	r7, [r4, #8]
	    tmp = tmp + (((unsigned int)triangle_2d_x1) << 24);
  10ef40:	e0815005 	add	r5, r1, r5
	    tmp = tmp + (((unsigned int)triangle_2d_y0) << 16);
  10ef44:	e1a01803 	lsl	r1, r3, #16
	    tmp = tmp + (((unsigned int)triangle_2d_y2) << 16);
  10ef48:	e59d3008 	ldr	r3, [sp, #8]
	    tmp = tmp + (((unsigned int)max_min[1]) << 24);
  10ef4c:	e1a08c08 	lsl	r8, r8, #24
	    tmp = tmp + (((unsigned int)triangle_2d_y2) << 16);
  10ef50:	e080000e 	add	r0, r0, lr
	    tmp = tmp + (((unsigned int)max_min[1]) << 24);
  10ef54:	e0888802 	add	r8, r8, r2, lsl #16
	    tmp = tmp + (((unsigned int)max_min[3]) << 8);
  10ef58:	e5d42007 	ldrb	r2, [r4, #7]
	    tmp = tmp + (((unsigned int)triangle_2d_y2) << 16);
  10ef5c:	e0800003 	add	r0, r0, r3
	    tmp = (unsigned int) max_index[0];
  10ef60:	e5943000 	ldr	r3, [r4]
	    tmp = tmp + (((unsigned int)max_min[4]) << 16);
  10ef64:	e1a07807 	lsl	r7, r7, #16
	    tmp = tmp + (((unsigned int)triangle_2d_y0) << 16);
  10ef68:	e20118ff 	and	r1, r1, #16711680	; 0xff0000
	    tmp = tmp + (((unsigned int)triangle_2d_z)  << 24);
  10ef6c:	e0866000 	add	r6, r6, r0
	    tmp = tmp + (((unsigned int)max_min[1]) << 24);
  10ef70:	e0888003 	add	r8, r8, r3
	    tmp =  (unsigned int)max_min[2];
  10ef74:	e5d43006 	ldrb	r3, [r4, #6]
	    tmp = tmp + (((unsigned int)max_min[4]) << 16);
  10ef78:	e0877402 	add	r7, r7, r2, lsl #8
	    tmp = tmp + (((unsigned int)triangle_2d_x1) << 24);
  10ef7c:	e0851001 	add	r1, r5, r1
	    	stream.stream1_write(out_tmp1);
  10ef80:	e28d0010 	add	r0, sp, #16
	    tmp = tmp + (((unsigned int)max_min[4]) << 16);
  10ef84:	e0877003 	add	r7, r7, r3
	    if(parity==0){
  10ef88:	e594300c 	ldr	r3, [r4, #12]
  10ef8c:	e3530000 	cmp	r3, #0
  10ef90:	1a00000c 	bne	10efc8 <main+0x194>
	    	stream.stream1_write(out_tmp1);
  10ef94:	ebffc5cd 	bl	1006d0 <stream_inst::stream1_write(unsigned int)>
	    	stream.stream1_write(out_tmp2);
  10ef98:	e1a01006 	mov	r1, r6
  10ef9c:	e28d0010 	add	r0, sp, #16
  10efa0:	ebffc5ca 	bl	1006d0 <stream_inst::stream1_write(unsigned int)>
	    	stream.stream1_write(out_tmp3);
  10efa4:	e1a01008 	mov	r1, r8
  10efa8:	e28d0010 	add	r0, sp, #16
  10efac:	ebffc5c7 	bl	1006d0 <stream_inst::stream1_write(unsigned int)>
	    	stream.stream1_write(out_tmp4);
  10efb0:	e1a01007 	mov	r1, r7
			stream.stream1_write(out_tmp4);
  10efb4:	e28d0010 	add	r0, sp, #16
  10efb8:	ebffc5c4 	bl	1006d0 <stream_inst::stream1_write(unsigned int)>
			parity = 1;
  10efbc:	e3a03001 	mov	r3, #1
			parity = 0;
  10efc0:	e584300c 	str	r3, [r4, #12]
  10efc4:	ea00000a 	b	10eff4 <main+0x1c0>
	    	stream.stream2_write(out_tmp1);
  10efc8:	ebffc5d2 	bl	100718 <stream_inst::stream2_write(unsigned int)>
	    	stream.stream2_write(out_tmp2);
  10efcc:	e1a01006 	mov	r1, r6
  10efd0:	e28d0010 	add	r0, sp, #16
  10efd4:	ebffc5cf 	bl	100718 <stream_inst::stream2_write(unsigned int)>
	    	stream.stream2_write(out_tmp3);
  10efd8:	e1a01008 	mov	r1, r8
  10efdc:	e28d0010 	add	r0, sp, #16
  10efe0:	ebffc5cc 	bl	100718 <stream_inst::stream2_write(unsigned int)>
	    	stream.stream2_write(out_tmp4);
  10efe4:	e1a01007 	mov	r1, r7
  10efe8:	e28d0010 	add	r0, sp, #16
  10efec:	ebffc5c9 	bl	100718 <stream_inst::stream2_write(unsigned int)>
	    	parity = 0;
  10eff0:	e584a00c 	str	sl, [r4, #12]
	for(i=0; i<3192; i++)
  10eff4:	e59d3000 	ldr	r3, [sp]
  10eff8:	e2833001 	add	r3, r3, #1
  10effc:	e58d3000 	str	r3, [sp]
  10f000:	e3003c78 	movw	r3, #3192	; 0xc78
  10f004:	e59d2000 	ldr	r2, [sp]
  10f008:	e1520003 	cmp	r2, r3
  10f00c:	1affff95 	bne	10ee68 <main+0x34>
  10f010:	e3a04010 	mov	r4, #16
		data = stream.stream2_read();
  10f014:	e28d0010 	add	r0, sp, #16
  10f018:	ebffc63c 	bl	100910 <stream_inst::stream2_read()>
	for(i=0; i<16; i++){
  10f01c:	e2544001 	subs	r4, r4, #1
  10f020:	1afffffb 	bne	10f014 <main+0x1e0>
		output[i] = stream.stream2_read();
  10f024:	e59f5194 	ldr	r5, [pc, #404]	; 10f1c0 <main+0x38c>
  10f028:	e28d0010 	add	r0, sp, #16
  10f02c:	ebffc637 	bl	100910 <stream_inst::stream2_read()>
  10f030:	e7850104 	str	r0, [r5, r4, lsl #2]
	for(i=0; i<16384; i++){
  10f034:	e2844001 	add	r4, r4, #1
  10f038:	e3540901 	cmp	r4, #16384	; 0x4000
  10f03c:	1afffff9 	bne	10f028 <main+0x1f4>
	check_results(output);
  10f040:	e59f0178 	ldr	r0, [pc, #376]	; 10f1c0 <main+0x38c>
  10f044:	ebffc55b 	bl	1005b8 <check_results(unsigned int*)>
	printf("All DONE\n");
  10f048:	e59f0174 	ldr	r0, [pc, #372]	; 10f1c4 <main+0x390>
  10f04c:	ebffcf25 	bl	102ce8 <puts>
}
  10f050:	e3a00000 	mov	r0, #0
  10f054:	e28dd01c 	add	sp, sp, #28
  10f058:	e8bd8ff0 	pop	{r4, r5, r6, r7, r8, r9, sl, fp, pc}
	  triangle_2d_x1 = (unsigned char)((input_lo >> 24) & 0xff);
  10f05c:	e5dd800c 	ldrb	r8, [sp, #12]
	  triangle_2d_y1 = (unsigned char)((input_mi      ) & 0xff);
  10f060:	e1a0500e 	mov	r5, lr
	  triangle_2d_y0 = (unsigned char)((input_lo >> 8 ) & 0xff);
  10f064:	a1a05002 	movge	r5, r2
	  triangle_2d_y1 = (unsigned char)((input_mi      ) & 0xff);
  10f068:	a1a0200e 	movge	r2, lr
		  if ( cw < 0 )
  10f06c:	a1a01008 	movge	r1, r8
	  triangle_2d_x0 = (unsigned char)((input_lo      ) & 0xff);
  10f070:	a1a0800c 	movge	r8, ip
	  triangle_2d_x1 = (unsigned char)((input_lo >> 24) & 0xff);
  10f074:	a1a0c001 	movge	ip, r1
  if (in0 < in1)
  10f078:	e158000c 	cmp	r8, ip
  10f07c:	2a000033 	bcs	10f150 <main+0x31c>
  10f080:	e1580003 	cmp	r8, r3
  10f084:	31a09008 	movcc	r9, r8
  10f088:	21a09003 	movcs	r9, r3
  if (in0 > in1)
  10f08c:	e158000c 	cmp	r8, ip
		  max_min[0] = find_min_new( triangle_2d_x0, triangle_2d_x1, triangle_2d_x2 );
  10f090:	e5c49004 	strb	r9, [r4, #4]
  if (in0 > in1)
  10f094:	9a000030 	bls	10f15c <main+0x328>
  10f098:	e1580003 	cmp	r8, r3
  10f09c:	21a03008 	movcs	r3, r8
  if (in0 < in1)
  10f0a0:	e1550002 	cmp	r5, r2
	  triangle_2d_y2 = (unsigned char)((input_mi >> 24) & 0xff);
  10f0a4:	e6efb07b 	uxtb	fp, fp
		  max_min[1] = find_max_new( triangle_2d_x0, triangle_2d_x1, triangle_2d_x2 );
  10f0a8:	e5c43005 	strb	r3, [r4, #5]
  if (in0 < in1)
  10f0ac:	2a00002d 	bcs	10f168 <main+0x334>
  10f0b0:	e155000b 	cmp	r5, fp
  10f0b4:	31a07005 	movcc	r7, r5
  10f0b8:	21a0700b 	movcs	r7, fp
  if (in0 > in1)
  10f0bc:	e1550002 	cmp	r5, r2
		  max_min[2] = find_min_new( triangle_2d_y0, triangle_2d_y1, triangle_2d_y2 );
  10f0c0:	e5c47006 	strb	r7, [r4, #6]
  if (in0 > in1)
  10f0c4:	9a00002a 	bls	10f174 <main+0x340>
  10f0c8:	e155000b 	cmp	r5, fp
  10f0cc:	21a0b005 	movcs	fp, r5
		  tmp = tmp + (((unsigned int)triangle_2d_y0) << 16);
  10f0d0:	e1a05805 	lsl	r5, r5, #16
		  max_min[4] = max_min[1] - max_min[0];
  10f0d4:	e043a009 	sub	sl, r3, r9
		  tmp = tmp + (((unsigned int)max_min[1]) << 24);
  10f0d8:	e1a03c03 	lsl	r3, r3, #24
		  max_index[0] = (max_min[1] - max_min[0]) * (max_min[3] - max_min[2]);
  10f0dc:	e04b1007 	sub	r1, fp, r7
		  tmp = tmp + (((unsigned int)triangle_2d_y0) << 16);
  10f0e0:	e0855408 	add	r5, r5, r8, lsl #8
		  max_min[4] = max_min[1] - max_min[0];
  10f0e4:	e6efe07a 	uxtb	lr, sl
		  tmp = tmp + (((unsigned int)max_min[1]) << 24);
  10f0e8:	e0839809 	add	r9, r3, r9, lsl #16
		  max_index[0] = (max_min[1] - max_min[0]) * (max_min[3] - max_min[2]);
  10f0ec:	e00a0a91 	mul	sl, r1, sl
		  if(parity==0){
  10f0f0:	e594300c 	ldr	r3, [r4, #12]
		  tmp = tmp + (((unsigned int)triangle_2d_x1) << 24);
  10f0f4:	e0851c0c 	add	r1, r5, ip, lsl #24
		  tmp = tmp + (((unsigned int)triangle_2d_z) << 24);
  10f0f8:	e59dc008 	ldr	ip, [sp, #8]
  10f0fc:	e087780e 	add	r7, r7, lr, lsl #16
		  max_min[3] = find_max_new( triangle_2d_y0, triangle_2d_y1, triangle_2d_y2 );
  10f100:	e5c4b007 	strb	fp, [r4, #7]
		  if(parity==0){
  10f104:	e3530000 	cmp	r3, #0
		  max_index[0] = (max_min[1] - max_min[0]) * (max_min[3] - max_min[2]);
  10f108:	e584a000 	str	sl, [r4]
		  tmp = tmp + (((unsigned int)triangle_2d_z) << 24);
  10f10c:	e080000c 	add	r0, r0, ip
		  max_min[4] = max_min[1] - max_min[0];
  10f110:	e5c4e008 	strb	lr, [r4, #8]
		  tmp = tmp + (((unsigned int)triangle_2d_z) << 24);
  10f114:	e0806006 	add	r6, r0, r6
		  tmp = tmp + (((unsigned int)max_min[1]) << 24);
  10f118:	e089a00a 	add	sl, r9, sl
		  tmp = tmp + (((unsigned int)triangle_2d_z) << 24);
  10f11c:	e0866002 	add	r6, r6, r2
		  tmp = tmp + (((unsigned int)max_min[4]) << 16);
  10f120:	e087b40b 	add	fp, r7, fp, lsl #8
			stream.stream1_write(out_tmp1);
  10f124:	e28d0010 	add	r0, sp, #16
		  if(parity==0){
  10f128:	1a000014 	bne	10f180 <main+0x34c>
			stream.stream1_write(out_tmp1);
  10f12c:	ebffc567 	bl	1006d0 <stream_inst::stream1_write(unsigned int)>
			stream.stream1_write(out_tmp2);
  10f130:	e1a01006 	mov	r1, r6
  10f134:	e28d0010 	add	r0, sp, #16
  10f138:	ebffc564 	bl	1006d0 <stream_inst::stream1_write(unsigned int)>
			stream.stream1_write(out_tmp3);
  10f13c:	e1a0100a 	mov	r1, sl
  10f140:	e28d0010 	add	r0, sp, #16
  10f144:	ebffc561 	bl	1006d0 <stream_inst::stream1_write(unsigned int)>
			stream.stream1_write(out_tmp4);
  10f148:	e1a0100b 	mov	r1, fp
  10f14c:	eaffff98 	b	10efb4 <main+0x180>
  10f150:	e15c0003 	cmp	ip, r3
  10f154:	31a0900c 	movcc	r9, ip
  10f158:	eaffffca 	b	10f088 <main+0x254>
  10f15c:	e15c0003 	cmp	ip, r3
  10f160:	21a0300c 	movcs	r3, ip
  10f164:	eaffffcd 	b	10f0a0 <main+0x26c>
  10f168:	e152000b 	cmp	r2, fp
  10f16c:	31a07002 	movcc	r7, r2
  10f170:	eaffffd0 	b	10f0b8 <main+0x284>
  10f174:	e152000b 	cmp	r2, fp
  10f178:	21a0b002 	movcs	fp, r2
  10f17c:	eaffffd3 	b	10f0d0 <main+0x29c>
			stream.stream2_write(out_tmp1);
  10f180:	ebffc564 	bl	100718 <stream_inst::stream2_write(unsigned int)>
			stream.stream2_write(out_tmp2);
  10f184:	e1a01006 	mov	r1, r6
  10f188:	e28d0010 	add	r0, sp, #16
  10f18c:	ebffc561 	bl	100718 <stream_inst::stream2_write(unsigned int)>
			stream.stream2_write(out_tmp3);
  10f190:	e1a0100a 	mov	r1, sl
  10f194:	e28d0010 	add	r0, sp, #16
  10f198:	ebffc55e 	bl	100718 <stream_inst::stream2_write(unsigned int)>
			stream.stream2_write(out_tmp4);
  10f19c:	e1a0100b 	mov	r1, fp
  10f1a0:	e28d0010 	add	r0, sp, #16
  10f1a4:	ebffc55b 	bl	100718 <stream_inst::stream2_write(unsigned int)>
			parity = 0;
  10f1a8:	e3a03000 	mov	r3, #0
  10f1ac:	eaffff83 	b	10efc0 <main+0x18c>
  10f1b0:	0010f53b 	.word	0x0010f53b
  10f1b4:	00118104 	.word	0x00118104
  10f1b8:	0010f547 	.word	0x0010f547
  10f1bc:	aaaaaaab 	.word	0xaaaaaaab
  10f1c0:	00118114 	.word	0x00118114
  10f1c4:	0010f553 	.word	0x0010f553
  10f1c8:	8101b280 	.word	0x8101b280
  10f1cc:	7fabb0b0 	.word	0x7fabb0b0
  10f1d0:	00000000 	.word	0x00000000

Disassembly of section .init:

0010f1d4 <_init>:
  10f1d4:	e1a0c00d 	mov	ip, sp
  10f1d8:	e92ddff8 	push	{r3, r4, r5, r6, r7, r8, r9, sl, fp, ip, lr, pc}
  10f1dc:	e24cb004 	sub	fp, ip, #4
  10f1e0:	e24bd028 	sub	sp, fp, #40	; 0x28
  10f1e4:	e89d6ff0 	ldm	sp, {r4, r5, r6, r7, r8, r9, sl, fp, sp, lr}
  10f1e8:	e12fff1e 	bx	lr

Disassembly of section .fini:

0010f1ec <_fini>:
  10f1ec:	e1a0c00d 	mov	ip, sp
  10f1f0:	e92ddff8 	push	{r3, r4, r5, r6, r7, r8, r9, sl, fp, ip, lr, pc}
  10f1f4:	e24cb004 	sub	fp, ip, #4
  10f1f8:	e24bd028 	sub	sp, fp, #40	; 0x28
  10f1fc:	e89d6ff0 	ldm	sp, {r4, r5, r6, r7, r8, r9, sl, fp, sp, lr}
  10f200:	e12fff1e 	bx	lr

